
custom.elf:     file format elf32-littlenios2
custom.elf
architecture: nios2, flags 0x00000112:
EXEC_P, HAS_SYMS, D_PAGED
start address 0x000401b8

Program Header:
    LOAD off    0x00001000 vaddr 0x00040000 paddr 0x00040000 align 2**12
         filesz 0x00000020 memsz 0x00000020 flags r-x
    LOAD off    0x00001020 vaddr 0x00040020 paddr 0x00040020 align 2**12
         filesz 0x0000d6c8 memsz 0x0000d6c8 flags r-x
    LOAD off    0x0000e6e8 vaddr 0x0004d6e8 paddr 0x0004f140 align 2**12
         filesz 0x00001a58 memsz 0x00001a58 flags rw-
    LOAD off    0x00010b98 vaddr 0x00050b98 paddr 0x00050b98 align 2**12
         filesz 0x00000000 memsz 0x000026f4 flags rw-

Sections:
Idx Name          Size      VMA       LMA       File off  Algn
  0 .entry        00000020  00040000  00040000  00001000  2**5
                  CONTENTS, ALLOC, LOAD, READONLY, CODE
  1 .exceptions   00000198  00040020  00040020  00001020  2**2
                  CONTENTS, ALLOC, LOAD, READONLY, CODE
  2 .text         0000cbd8  000401b8  000401b8  000011b8  2**2
                  CONTENTS, ALLOC, LOAD, READONLY, CODE
  3 .rodata       00000958  0004cd90  0004cd90  0000dd90  2**2
                  CONTENTS, ALLOC, LOAD, READONLY, DATA
  4 .rwdata       00001a58  0004d6e8  0004f140  0000e6e8  2**2
                  CONTENTS, ALLOC, LOAD, DATA, SMALL_DATA
  5 .bss          000026f4  00050b98  00050b98  00010b98  2**2
                  ALLOC, SMALL_DATA
  6 .comment      00000023  00000000  00000000  00010140  2**0
                  CONTENTS, READONLY
  7 .debug_aranges 00000dd8  00000000  00000000  00010168  2**3
                  CONTENTS, READONLY, DEBUGGING
  8 .debug_info   00022e65  00000000  00000000  00010f40  2**0
                  CONTENTS, READONLY, DEBUGGING
  9 .debug_abbrev 00009186  00000000  00000000  00033da5  2**0
                  CONTENTS, READONLY, DEBUGGING
 10 .debug_line   0000a419  00000000  00000000  0003cf2b  2**0
                  CONTENTS, READONLY, DEBUGGING
 11 .debug_frame  0000191c  00000000  00000000  00047344  2**2
                  CONTENTS, READONLY, DEBUGGING
 12 .debug_str    00002f73  00000000  00000000  00048c60  2**0
                  CONTENTS, READONLY, DEBUGGING
 13 .debug_loc    00010dc7  00000000  00000000  0004bbd3  2**0
                  CONTENTS, READONLY, DEBUGGING
 14 .debug_alt_sim_info 00000020  00000000  00000000  0005c99c  2**2
                  CONTENTS, READONLY, DEBUGGING
 15 .debug_ranges 00000a98  00000000  00000000  0005c9c0  2**3
                  CONTENTS, READONLY, DEBUGGING
 16 .thread_model 00000003  00000000  00000000  00060563  2**0
                  CONTENTS, READONLY
 17 .cpu          00000003  00000000  00000000  00060566  2**0
                  CONTENTS, READONLY
 18 .qsys         00000001  00000000  00000000  00060569  2**0
                  CONTENTS, READONLY
 19 .simulation_enabled 00000001  00000000  00000000  0006056a  2**0
                  CONTENTS, READONLY
 20 .sysid_hash   00000004  00000000  00000000  0006056b  2**0
                  CONTENTS, READONLY
 21 .sysid_base   00000004  00000000  00000000  0006056f  2**0
                  CONTENTS, READONLY
 22 .sysid_time   00000004  00000000  00000000  00060573  2**0
                  CONTENTS, READONLY
 23 .stderr_dev   00000009  00000000  00000000  00060577  2**0
                  CONTENTS, READONLY
 24 .stdin_dev    00000009  00000000  00000000  00060580  2**0
                  CONTENTS, READONLY
 25 .stdout_dev   00000009  00000000  00000000  00060589  2**0
                  CONTENTS, READONLY
 26 .sopc_system_name 00000007  00000000  00000000  00060592  2**0
                  CONTENTS, READONLY
 27 .quartus_project_dir 0000004a  00000000  00000000  00060599  2**0
                  CONTENTS, READONLY
 28 .jdi          000045b9  00000000  00000000  000605e3  2**0
                  CONTENTS, READONLY
 29 .sopcinfo     0003a579  00000000  00000000  00064b9c  2**0
                  CONTENTS, READONLY
SYMBOL TABLE:
00040000 l    d  .entry	00000000 .entry
00040020 l    d  .exceptions	00000000 .exceptions
000401b8 l    d  .text	00000000 .text
0004cd90 l    d  .rodata	00000000 .rodata
0004d6e8 l    d  .rwdata	00000000 .rwdata
00050b98 l    d  .bss	00000000 .bss
00000000 l    d  .comment	00000000 .comment
00000000 l    d  .debug_aranges	00000000 .debug_aranges
00000000 l    d  .debug_info	00000000 .debug_info
00000000 l    d  .debug_abbrev	00000000 .debug_abbrev
00000000 l    d  .debug_line	00000000 .debug_line
00000000 l    d  .debug_frame	00000000 .debug_frame
00000000 l    d  .debug_str	00000000 .debug_str
00000000 l    d  .debug_loc	00000000 .debug_loc
00000000 l    d  .debug_alt_sim_info	00000000 .debug_alt_sim_info
00000000 l    d  .debug_ranges	00000000 .debug_ranges
00000000 l    df *ABS*	00000000 ../custom_bsp//obj/HAL/src/crt0.o
000401f0 l       .text	00000000 alt_after_alt_main
00000000 l    df *ABS*	00000000 alt_exception_entry.o
00040094 l       .exceptions	00000000 alt_exception_unknown
00000000 l    df *ABS*	00000000 alt_irq_handler.c
00000000 l    df *ABS*	00000000 ci_crc.c
00000000 l    df *ABS*	00000000 crc.c
000402f4 l     F .text	0000008c reflect
00000000 l    df *ABS*	00000000 crc_main.c
00000000 l    df *ABS*	00000000 lib2-divmod.c
00040cd0 l     F .text	00000074 udivmodsi4
00000000 l    df *ABS*	00000000 lib2-mul.c
00000000 l    df *ABS*	00000000 exit.c
00000000 l    df *ABS*	00000000 impure.c
0004d6e8 l     O .rwdata	00000400 impure_data
00000000 l    df *ABS*	00000000 printf.c
00000000 l    df *ABS*	00000000 puts.c
00000000 l    df *ABS*	00000000 strlen.c
00000000 l    df *ABS*	00000000 vfprintf.c
00040fec l     F .text	00000034 __sprint_r
0004d412 l     O .rodata	00000010 blanks.3515
0004d422 l     O .rodata	00000010 zeroes.3516
00000000 l    df *ABS*	00000000 wsetup.c
00000000 l    df *ABS*	00000000 __call_atexit.c
00000000 l    df *ABS*	00000000 dtoa.c
000431d4 l     F .text	0000023c quorem
00000000 l    df *ABS*	00000000 fflush.c
00000000 l    df *ABS*	00000000 findfp.c
00044c44 l     F .text	00000008 __fp_lock
00044c4c l     F .text	00000008 __fp_unlock
00000000 l    df *ABS*	00000000 mallocr.c
00000000 l    df *ABS*	00000000 fvwrite.c
00000000 l    df *ABS*	00000000 fwalk.c
00000000 l    df *ABS*	00000000 locale.c
0004d454 l     O .rodata	00000030 lconv
00000000 l    df *ABS*	00000000 makebuf.c
00000000 l    df *ABS*	00000000 mallocr.c
00000000 l    df *ABS*	00000000 memchr.c
00000000 l    df *ABS*	00000000 memcpy.c
00000000 l    df *ABS*	00000000 memmove.c
00000000 l    df *ABS*	00000000 memset.c
00000000 l    df *ABS*	00000000 mprec.c
0004d59c l     O .rodata	0000000c p05.2435
00000000 l    df *ABS*	00000000 mallocr.c
00000000 l    df *ABS*	00000000 s_isinfd.c
00000000 l    df *ABS*	00000000 s_isnand.c
00000000 l    df *ABS*	00000000 sbrkr.c
00000000 l    df *ABS*	00000000 stdio.c
00000000 l    df *ABS*	00000000 strcmp.c
00000000 l    df *ABS*	00000000 writer.c
00000000 l    df *ABS*	00000000 mallocr.c
00000000 l    df *ABS*	00000000 closer.c
00000000 l    df *ABS*	00000000 fclose.c
00000000 l    df *ABS*	00000000 fstatr.c
00000000 l    df *ABS*	00000000 int_errno.c
00000000 l    df *ABS*	00000000 isattyr.c
00000000 l    df *ABS*	00000000 lseekr.c
00000000 l    df *ABS*	00000000 readr.c
00000000 l    df *ABS*	00000000 libgcc2.c
00000000 l    df *ABS*	00000000 libgcc2.c
00000000 l    df *ABS*	00000000 fp-bit.c
00049228 l     F .text	00000354 _fpadd_parts
00000000 l    df *ABS*	00000000 fp-bit.c
00000000 l    df *ABS*	00000000 fp-bit.c
00000000 l    df *ABS*	00000000 fp-bit.c
00000000 l    df *ABS*	00000000 fp-bit.c
00000000 l    df *ABS*	00000000 fp-bit.c
00000000 l    df *ABS*	00000000 fp-bit.c
00000000 l    df *ABS*	00000000 fp-bit.c
00000000 l    df *ABS*	00000000 fp-bit.c
00000000 l    df *ABS*	00000000 fp-bit.c
00000000 l    df *ABS*	00000000 fp-bit.c
00000000 l    df *ABS*	00000000 fp-bit.c
00000000 l    df *ABS*	00000000 libgcc2.c
00000000 l    df *ABS*	00000000 libgcc2.c
00000000 l    df *ABS*	00000000 libgcc2.c
00000000 l    df *ABS*	00000000 fp-bit.c
00000000 l    df *ABS*	00000000 fp-bit.c
00000000 l    df *ABS*	00000000 fp-bit.c
00000000 l    df *ABS*	00000000 libgcc2.c
00000000 l    df *ABS*	00000000 libgcc2.c
00000000 l    df *ABS*	00000000 alt_close.c
0004a5a4 l     F .text	00000050 alt_get_errno
00000000 l    df *ABS*	00000000 alt_dev.c
0004a6c0 l     F .text	0000002c alt_dev_null_write
00000000 l    df *ABS*	00000000 alt_errno.c
00000000 l    df *ABS*	00000000 alt_exit.c
00000000 l    df *ABS*	00000000 alt_fstat.c
0004a728 l     F .text	00000050 alt_get_errno
00000000 l    df *ABS*	00000000 alt_isatty.c
0004a828 l     F .text	00000050 alt_get_errno
00000000 l    df *ABS*	00000000 alt_load.c
0004a91c l     F .text	0000006c alt_load_section
00000000 l    df *ABS*	00000000 alt_lseek.c
0004aa08 l     F .text	00000050 alt_get_errno
00000000 l    df *ABS*	00000000 alt_main.c
00000000 l    df *ABS*	00000000 alt_malloc_lock.c
00000000 l    df *ABS*	00000000 alt_read.c
0004abe4 l     F .text	00000050 alt_get_errno
00000000 l    df *ABS*	00000000 alt_release_fd.c
00000000 l    df *ABS*	00000000 alt_sbrk.c
0004f130 l     O .rwdata	00000004 heap_end
00000000 l    df *ABS*	00000000 alt_write.c
0004ae58 l     F .text	00000050 alt_get_errno
00000000 l    df *ABS*	00000000 alt_sys_init.c
0004af98 l     F .text	00000038 alt_dev_reg
0004e0a4 l     O .rwdata	00001060 jtag_uart
00000000 l    df *ABS*	00000000 altera_avalon_jtag_uart_fd.c
00000000 l    df *ABS*	00000000 altera_avalon_jtag_uart_init.c
0004b2a8 l     F .text	00000204 altera_avalon_jtag_uart_irq
0004b4ac l     F .text	000000a4 altera_avalon_jtag_uart_timeout
00000000 l    df *ABS*	00000000 altera_avalon_jtag_uart_ioctl.c
00000000 l    df *ABS*	00000000 altera_avalon_jtag_uart_read.c
00000000 l    df *ABS*	00000000 altera_avalon_jtag_uart_write.c
00000000 l    df *ABS*	00000000 altera_avalon_timer_sc.c
0004bae8 l     F .text	00000074 alt_avalon_timer_sc_irq
00000000 l    df *ABS*	00000000 altera_avalon_timer_ts.c
00000000 l    df *ABS*	00000000 altera_avalon_timer_vars.c
00000000 l    df *ABS*	00000000 alt_alarm_start.c
00000000 l    df *ABS*	00000000 alt_dcache_flush_all.c
00000000 l    df *ABS*	00000000 alt_dev_llist_insert.c
0004be80 l     F .text	00000050 alt_get_errno
00000000 l    df *ABS*	00000000 alt_do_ctors.c
00000000 l    df *ABS*	00000000 alt_do_dtors.c
00000000 l    df *ABS*	00000000 alt_icache_flush_all.c
00000000 l    df *ABS*	00000000 alt_iic.c
00000000 l    df *ABS*	00000000 alt_iic_isr_register.c
00000000 l    df *ABS*	00000000 alt_io_redirect.c
0004c320 l     F .text	000000e0 alt_open_fd
00000000 l    df *ABS*	00000000 alt_irq_vars.c
00000000 l    df *ABS*	00000000 alt_open.c
0004c478 l     F .text	00000050 alt_get_errno
0004c4c8 l     F .text	000000f0 alt_file_locked
00000000 l    df *ABS*	00000000 alt_tick.c
00000000 l    df *ABS*	00000000 altera_nios2_qsys_irq.c
00000000 l    df *ABS*	00000000 alt_find_dev.c
00000000 l    df *ABS*	00000000 alt_find_file.c
00000000 l    df *ABS*	00000000 alt_get_fd.c
00000000 l    df *ABS*	00000000 alt_icache_flush.c
00000000 l    df *ABS*	00000000 atexit.c
00000000 l    df *ABS*	00000000 memcmp.c
00000000 l    df *ABS*	00000000 __atexit.c
00000000 l    df *ABS*	00000000 
00047704 g     F .text	00000074 _mprec_log10
000477f4 g     F .text	00000084 __any_on
00048474 g     F .text	00000064 _isatty_r
0004d484 g     O .rodata	00000028 __mprec_tinytens
0004ab2c g     F .text	00000078 alt_main
0004a560 g     F .text	00000044 __ashldi3
00040ec8 g     F .text	00000084 _puts_r
00052ffc g     O .bss	00000100 alt_irq
000484d8 g     F .text	0000006c _lseek_r
0004f140 g       *ABS*	00000000 __flash_rwdata_start
00049ac8 g     F .text	0000005c __eqdf2
0005328c g       *ABS*	00000000 __alt_heap_start
00040e8c g     F .text	0000003c printf
00048018 g     F .text	0000005c __sseek
00044ce8 g     F .text	0000010c __sinit
00045980 g     F .text	0000009c _setlocale_r
00044c60 g     F .text	00000078 __sfmoreglue
0004abc4 g     F .text	00000020 __malloc_unlock
00050bc4 g     O .bss	00000004 altera_avalon_timer_ts_freq
000465c0 g     F .text	0000018c memmove
00044cd8 g     F .text	00000010 _cleanup
00046828 g     F .text	000000a8 _Balloc
00049b80 g     F .text	00000064 __gtdf2
00000000  w      *UND*	00000000 __errno
00040000 g     F .entry	0000001c __reset
00040020 g       *ABS*	00000000 __flash_exceptions_start
0004840c g     F .text	00000068 _fstat_r
00050bb0 g     O .bss	00000004 errno
00050bb8 g     O .bss	00000004 alt_argv
00057104 g       *ABS*	00000000 _gp
0004df24 g     O .rwdata	00000180 alt_fd_list
0004c8cc g     F .text	00000090 alt_find_dev
00046480 g     F .text	00000140 memcpy
00044c54 g     F .text	0000000c _cleanup_r
00049ca4 g     F .text	000000d4 __floatsidf
0004c400 g     F .text	00000078 alt_io_redirect
00049c48 g     F .text	0000005c __ltdf2
0004cd90 g       *ABS*	00000000 __DTOR_END__
00040f4c g     F .text	00000014 puts
00047660 g     F .text	000000a4 __ratio
0004b6ac g     F .text	00000218 altera_avalon_jtag_uart_read
00000000  w      *UND*	00000000 malloc
00040e60 g     F .text	0000002c _printf_r
00040df0 g     F .text	00000008 __udivsi3
0004a878 g     F .text	000000a4 isatty
0004d4d4 g     O .rodata	000000c8 __mprec_tens
00045a1c g     F .text	0000000c __locale_charset
0004cb44 g     F .text	0000008c alt_icache_flush
00050bac g     O .bss	00000004 __malloc_top_pad
0004f10c g     O .rwdata	00000004 __mb_cur_max
00045a28 g     F .text	0000000c _localeconv_r
00046c58 g     F .text	0000003c __i2b
0004533c g     F .text	000004e4 __sfvwrite_r
00047ed8 g     F .text	00000064 _sbrk_r
00048544 g     F .text	0000006c _read_r
0004dae8 g     O .rwdata	0000000c __lc_ctype
0004f128 g     O .rwdata	00000004 alt_max_fd
0004a348 g     F .text	00000104 __unpack_d
000482bc g     F .text	0000013c _fclose_r
00044c14 g     F .text	00000030 fflush
00050ba8 g     O .bss	00000004 __malloc_max_sbrked_mem
0004957c g     F .text	00000054 __adddf3
000473d4 g     F .text	00000148 __b2d
00048c00 g     F .text	00000628 __umoddi3
0004aa58 g     F .text	000000d4 lseek
0004f104 g     O .rwdata	00000004 _global_impure_ptr
00047878 g     F .text	000005fc _realloc_r
0005328c g       *ABS*	00000000 __bss_end
0004c230 g     F .text	000000f0 alt_iic_isr_register
0004c7a8 g     F .text	00000104 alt_tick
000485b0 g     F .text	00000650 __udivdi3
0004d4ac g     O .rodata	00000028 __mprec_bigtens
00046a3c g     F .text	00000104 __s2b
00049e4c g     F .text	0000011c __floatunsidf
00047174 g     F .text	00000058 __mcmp
00044f00 g     F .text	00000018 __fp_lock_all
0004c1e4 g     F .text	0000004c alt_ic_irq_enabled
0004c710 g     F .text	00000098 alt_alarm_stop
00050bc8 g     O .bss	00000004 alt_irq_active
00040000 g       *ABS*	00000000 __alt_mem_onchip_mem
000400ec g     F .exceptions	000000cc alt_irq_handler
0004defc g     O .rwdata	00000028 alt_dev_null
0004be64 g     F .text	0000001c alt_dcache_flush_all
00046b40 g     F .text	00000068 __hi0bits
00049d78 g     F .text	000000d4 __fixdfsi
0004f140 g       *ABS*	00000000 __ram_rwdata_end
0004f120 g     O .rwdata	00000008 alt_dev_list
0004aea8 g     F .text	000000f0 write
00040380 g     F .text	000000ec crcSlow
0004bcfc g     F .text	00000028 alt_timestamp_freq
0004d6e8 g       *ABS*	00000000 __ram_rodata_end
0004a778 g     F .text	000000b0 fstat
0004a51c g     F .text	00000044 __lshrdi3
00046eec g     F .text	0000012c __pow5mult
00050ba0 g     O .bss	00000004 __nlocale_changed
00040df8 g     F .text	00000008 __umodsi3
0005328c g       *ABS*	00000000 end
00050ffc g     O .bss	00002000 data_buffer_region
0004b1e8 g     F .text	000000c0 altera_avalon_jtag_uart_init
0004cd90 g       *ABS*	00000000 __CTOR_LIST__
00080000 g       *ABS*	00000000 __alt_stack_pointer
0004bb5c g     F .text	00000088 alt_avalon_timer_sc_init
0004a078 g     F .text	000000ac __clzsi2
0004b8c4 g     F .text	00000224 altera_avalon_jtag_uart_write
00044ef0 g     F .text	00000004 __sfp_lock_acquire
00046388 g     F .text	000000f8 memchr
00041020 g     F .text	00001e7c ___vfprintf_internal_r
0004506c g     F .text	000002d0 _free_r
00043034 g     F .text	000001a0 __call_exitprocs
00050b9c g     O .bss	00000004 __mlocale_changed
0004f110 g     O .rwdata	00000004 __malloc_sbrk_base
000401b8 g     F .text	0000003c _start
00050bcc g     O .bss	00000004 _alt_tick_rate
00047018 g     F .text	0000015c __lshift
00050bd0 g     O .bss	00000004 _alt_nticks
0004ac34 g     F .text	000000f4 read
0004b004 g     F .text	00000080 alt_sys_init
0004cc60 g     F .text	00000130 __register_exitproc
00046c94 g     F .text	00000258 __multiply
0004b550 g     F .text	00000068 altera_avalon_jtag_uart_close
00040e00 g     F .text	00000028 __mulsi3
0004d6e8 g       *ABS*	00000000 __ram_rwdata_start
0004cd90 g       *ABS*	00000000 __ram_rodata_start
00050bd4 g     O .bss	00000028 __malloc_current_mallinfo
0004751c g     F .text	00000144 __d2b
0004b084 g     F .text	00000060 altera_avalon_jtag_uart_read_fd
0004ca70 g     F .text	000000d4 alt_get_fd
0004a44c g     F .text	000000d0 __fpcmp_parts_d
00048258 g     F .text	00000064 _close_r
0004cbe4 g     F .text	0000007c memcmp
0004b144 g     F .text	00000050 altera_avalon_jtag_uart_close_fd
0005328c g       *ABS*	00000000 __alt_stack_base
0004b194 g     F .text	00000054 altera_avalon_jtag_uart_ioctl_fd
00042ec0 g     F .text	00000174 __swsetup_r
00049914 g     F .text	000001b4 __divdf3
0004046c g     F .text	000000bc crcInit
00044df4 g     F .text	000000fc __sfp
00047778 g     F .text	0000007c __copybits
0004daf4 g     O .rwdata	00000408 __malloc_av_
00044efc g     F .text	00000004 __sinit_lock_release
00049630 g     F .text	000002e4 __muldf3
00047f3c g     F .text	00000054 __sread
000401f4 g     F .text	00000100 crcCI
0004c95c g     F .text	00000114 alt_find_file
0004bed0 g     F .text	000000a0 alt_dev_llist_insert
0004aba4 g     F .text	00000020 __malloc_lock
0004ada8 g     F .text	000000b0 sbrk
00044a2c g     F .text	000001e8 _fflush_r
0004818c g     F .text	000000cc _calloc_r
00050b98 g       *ABS*	00000000 __bss_start
0004674c g     F .text	000000dc memset
000405ec g     F .text	000006e4 main
00050bbc g     O .bss	00000004 alt_envp
00050ba4 g     O .bss	00000004 __malloc_max_total_mem
0004b0e4 g     F .text	00000060 altera_avalon_jtag_uart_write_fd
00048074 g     F .text	00000008 __sclose
00080000 g       *ABS*	00000000 __alt_heap_limit
000483f8 g     F .text	00000014 fclose
0004bbe4 g     F .text	00000088 alt_timestamp_start
000530fc g     O .bss	00000190 _atexit0
00043410 g     F .text	0000161c _dtoa_r
00045c04 g     F .text	00000784 _malloc_r
0004f12c g     O .rwdata	00000004 alt_errno
00045820 g     F .text	000000a8 _fwalk
00040d44 g     F .text	00000050 __divsi3
0004d5a8 g     O .rodata	00000014 __thenan_df
00044f30 g     F .text	0000013c _malloc_trim_r
0004cd90 g       *ABS*	00000000 __CTOR_END__
0004807c g     F .text	000000a4 strcmp
0004cd90 g       *ABS*	00000000 __flash_rodata_start
0004cd90 g       *ABS*	00000000 __DTOR_LIST__
00049b24 g     F .text	0000005c __nedf2
0004afd0 g     F .text	00000034 alt_irq_init
0004ad28 g     F .text	00000080 alt_release_fd
0004d5bc g     O .rodata	00000100 __clz_tab
00050b98 g     O .bss	00000004 _PathLocale
0004cbd0 g     F .text	00000014 atexit
00048120 g     F .text	0000006c _write_r
00045a34 g     F .text	0000001c setlocale
0004f108 g     O .rwdata	00000004 _impure_ptr
00050bb4 g     O .bss	00000004 alt_argc
00050bc0 g     O .bss	00000004 altera_avalon_timer_ts_base
0004bfcc g     F .text	0000005c _do_dtors
00040528 g     F .text	000000c4 crcFast
00040020 g       .exceptions	00000000 alt_irq_entry
00047374 g     F .text	00000060 __ulp
00047e74 g     F .text	00000038 __isinfd
00044f18 g     F .text	00000018 __fp_unlock_all
0004f118 g     O .rwdata	00000008 alt_fs_list
00040020 g       *ABS*	00000000 __ram_exceptions_start
00045a50 g     F .text	0000000c localeconv
0004bc6c g     F .text	00000090 alt_timestamp
0004c058 g     F .text	00000050 alt_ic_isr_register
0004f140 g       *ABS*	00000000 _edata
0005328c g       *ABS*	00000000 _end
00050bfc g     O .bss	00000400 crcTable
000401b8 g       *ABS*	00000000 __ram_exceptions_end
0004b5b8 g     F .text	000000f4 altera_avalon_jtag_uart_ioctl
0004c144 g     F .text	000000a0 alt_ic_irq_disable
00047f90 g     F .text	00000088 __swrite
0004f114 g     O .rwdata	00000004 __malloc_trim_threshold
0004c8ac g     F .text	00000020 altera_nios2_qsys_irq_init
00040e28 g     F .text	00000038 exit
000458c8 g     F .text	000000b8 _fwalk_reent
000471cc g     F .text	000001a8 __mdiff
00040d94 g     F .text	0000005c __modsi3
00080000 g       *ABS*	00000000 __alt_data_end
00040020 g     F .exceptions	00000000 alt_exception
00044ef4 g     F .text	00000004 __sfp_lock_release
00047eac g     F .text	0000002c __isnand
0004a6ec g     F .text	0000003c _exit
0004bd24 g     F .text	00000140 alt_alarm_start
00049f68 g     F .text	00000110 __muldi3
00045a5c g     F .text	000001a8 __smakebuf_r
00040f60 g     F .text	0000008c strlen
0004c5b8 g     F .text	00000158 open
00049be4 g     F .text	00000064 __gedf2
0004c028 g     F .text	00000030 alt_icache_flush_all
0004f134 g     O .rwdata	00000004 alt_priority_mask
0004c0a8 g     F .text	0000009c alt_ic_irq_enable
00042e9c g     F .text	00000024 __vfprintf_internal
000495d0 g     F .text	00000060 __subdf3
00046ba8 g     F .text	000000b0 __lo0bits
0004f138 g     O .rwdata	00000008 alt_alarm_list
0004bf70 g     F .text	0000005c _do_ctors
0004a5f4 g     F .text	000000cc close
0004a988 g     F .text	00000080 alt_load
0004a124 g     F .text	00000224 __pack_d
00000000  w      *UND*	00000000 free
00044ef8 g     F .text	00000004 __sinit_lock_acquire
000468f8 g     F .text	00000144 __multadd
000468d0 g     F .text	00000028 _Bfree



Disassembly of section .entry:

00040000 <__reset>:
#if NIOS2_ICACHE_SIZE > 0 && defined(ALT_ALLOW_CODE_AT_RESET) && !defined(ALT_SIM_OPTIMIZE)
    /* Assume the instruction cache size is always a power of two. */
#if NIOS2_ICACHE_SIZE > 0x8000
    movhi r2, %hi(NIOS2_ICACHE_SIZE)
#else
    movui r2, NIOS2_ICACHE_SIZE
   40000:	00840014 	movui	r2,4096
#endif

0:
    initi r2
   40004:	1001483a 	initi	r2
    addi r2, r2, -NIOS2_ICACHE_LINE_SIZE
   40008:	10bff804 	addi	r2,r2,-32
    bgt r2, zero, 0b
   4000c:	00bffd16 	blt	zero,r2,40004 <__reset+0x4>
 * Jump to the _start entry point in the .text section if reset code
 * is allowed or if optimizing for RTL simulation.
 */
#if defined(ALT_ALLOW_CODE_AT_RESET) || defined(ALT_SIM_OPTIMIZE)
    /* Jump to the _start entry point in the .text section. */
    movhi r1, %hi(_start)
   40010:	00400134 	movhi	at,4
    ori r1, r1, %lo(_start)
   40014:	08406e14 	ori	at,at,440
    jmp r1
   40018:	0800683a 	jmp	at
   4001c:	00000000 	call	0 <__alt_mem_onchip_mem-0x40000>

Disassembly of section .exceptions:

00040020 <alt_exception>:

#else /* ALT_EXCEPTION_STACK disabled */
        /* 
         * Reserve space on normal stack for registers about to be pushed.
         */
        addi  sp, sp, -76
   40020:	deffed04 	addi	sp,sp,-76
         * documentation for details).
         *
         * Leave a gap in the stack frame at 4(sp) for the muldiv handler to
         * store zero into.
         */
        stw   ra,  0(sp)
   40024:	dfc00015 	stw	ra,0(sp)
        stw   r1,   8(sp)
   40028:	d8400215 	stw	at,8(sp)
        stw   r2,  12(sp)
   4002c:	d8800315 	stw	r2,12(sp)
        stw   r3,  16(sp)
   40030:	d8c00415 	stw	r3,16(sp)
        stw   r4,  20(sp)
   40034:	d9000515 	stw	r4,20(sp)
        stw   r5,  24(sp)
   40038:	d9400615 	stw	r5,24(sp)
        stw   r6,  28(sp)
   4003c:	d9800715 	stw	r6,28(sp)
        stw   r7,  32(sp)
   40040:	d9c00815 	stw	r7,32(sp)
        rdctl r5, estatus   /* Read early to avoid usage stall */
   40044:	000b307a 	rdctl	r5,estatus
        stw   r8,  36(sp)
   40048:	da000915 	stw	r8,36(sp)
        stw   r9,  40(sp)
   4004c:	da400a15 	stw	r9,40(sp)
        stw   r10, 44(sp)
   40050:	da800b15 	stw	r10,44(sp)
        stw   r11, 48(sp)
   40054:	dac00c15 	stw	r11,48(sp)
        stw   r12, 52(sp)
   40058:	db000d15 	stw	r12,52(sp)
        stw   r13, 56(sp)
   4005c:	db400e15 	stw	r13,56(sp)
        stw   r14, 60(sp)
   40060:	db800f15 	stw	r14,60(sp)
        stw   r15, 64(sp)
   40064:	dbc01015 	stw	r15,64(sp)
        /*
         * ea-4 contains the address of the instruction being executed
         * when the exception occured. For interrupt exceptions, we will
         * will be re-issue the isntruction. Store it in 72(sp)
         */
        stw   r5,  68(sp)  /* estatus */
   40068:	d9401115 	stw	r5,68(sp)
        addi  r15, ea, -4  /* instruction that caused exception */
   4006c:	ebffff04 	addi	r15,ea,-4
        stw   r15,  72(sp)
   40070:	dbc01215 	stw	r15,72(sp)
#else
        /*
         * Test to see if the exception was a software exception or caused 
         * by an external interrupt, and vector accordingly.
         */
        rdctl r4, ipending
   40074:	0009313a 	rdctl	r4,ipending
        andi  r2, r5, 1
   40078:	2880004c 	andi	r2,r5,1
        beq   r2, zero, .Lnot_irq
   4007c:	10000326 	beq	r2,zero,4008c <alt_exception+0x6c>
        beq   r4, zero, .Lnot_irq
   40080:	20000226 	beq	r4,zero,4008c <alt_exception+0x6c>
        /*
         * Now that all necessary registers have been preserved, call 
         * alt_irq_handler() to process the interrupts.
         */

        call alt_irq_handler
   40084:	00400ec0 	call	400ec <alt_irq_handler>

        .section .exceptions.irqreturn, "xa"

        br    .Lexception_exit
   40088:	00000306 	br	40098 <alt_exception_unknown+0x4>
         * upon completion, so we write ea (address of instruction *after*
         * the one where the exception occured) into 72(sp). The actual
         * instruction that caused the exception is written in r2, which these
         * handlers will utilize.
         */
        stw   ea,  72(sp)  /* Don't re-issue */
   4008c:	df401215 	stw	ea,72(sp)
        ldw   r2, -4(ea)   /* Instruction that caused exception */
   40090:	e8bfff17 	ldw	r2,-4(ea)

00040094 <alt_exception_unknown>:
#ifdef NIOS2_HAS_DEBUG_STUB
       /*
        *  Either tell the user now (if there is a debugger attached) or go into
        *  the debug monitor which will loop until a debugger is attached.
        */
        break
   40094:	003da03a 	break	0
        /* 
         * Restore the saved registers, so that all general purpose registers 
         * have been restored to their state at the time the interrupt occured.
         */

        ldw   r5,  68(sp)
   40098:	d9401117 	ldw	r5,68(sp)
        ldw   ea,  72(sp)  /* This becomes the PC once eret is executed */
   4009c:	df401217 	ldw	ea,72(sp)
        ldw   ra,   0(sp)
   400a0:	dfc00017 	ldw	ra,0(sp)

        wrctl estatus, r5
   400a4:	2801707a 	wrctl	estatus,r5

        ldw   r1,   8(sp)
   400a8:	d8400217 	ldw	at,8(sp)
        ldw   r2,  12(sp)
   400ac:	d8800317 	ldw	r2,12(sp)
        ldw   r3,  16(sp)
   400b0:	d8c00417 	ldw	r3,16(sp)
        ldw   r4,  20(sp)
   400b4:	d9000517 	ldw	r4,20(sp)
        ldw   r5,  24(sp)
   400b8:	d9400617 	ldw	r5,24(sp)
        ldw   r6,  28(sp)
   400bc:	d9800717 	ldw	r6,28(sp)
        ldw   r7,  32(sp)
   400c0:	d9c00817 	ldw	r7,32(sp)

#if defined(ALT_EXCEPTION_STACK) && defined(ALT_STACK_CHECK)
        ldw   et, %gprel(alt_exception_old_stack_limit)(gp)
#endif

        ldw   r8,  36(sp)
   400c4:	da000917 	ldw	r8,36(sp)
        ldw   r9,  40(sp)
   400c8:	da400a17 	ldw	r9,40(sp)
        ldw   r10, 44(sp)
   400cc:	da800b17 	ldw	r10,44(sp)
        ldw   r11, 48(sp)
   400d0:	dac00c17 	ldw	r11,48(sp)
        ldw   r12, 52(sp)
   400d4:	db000d17 	ldw	r12,52(sp)
        ldw   r13, 56(sp)
   400d8:	db400e17 	ldw	r13,56(sp)
        ldw   r14, 60(sp)
   400dc:	db800f17 	ldw	r14,60(sp)
        ldw   r15, 64(sp)
   400e0:	dbc01017 	ldw	r15,64(sp)
        stw   et, %gprel(alt_stack_limit_value)(gp)
        stw   zero, %gprel(alt_exception_old_stack_limit)(gp)
#endif /* ALT_STACK_CHECK */
        ldw   sp,  76(sp)
#else /* ALT_EXCEPTION_STACK disabled */
        addi  sp, sp, 76
   400e4:	dec01304 	addi	sp,sp,76

        /*
         * Return to the interrupted instruction.
         */

        eret
   400e8:	ef80083a 	eret

000400ec <alt_irq_handler>:
 * instruction is present if the macro ALT_CI_INTERRUPT_VECTOR defined.
 */

void alt_irq_handler (void) __attribute__ ((section (".exceptions")));
void alt_irq_handler (void)
{
   400ec:	defff904 	addi	sp,sp,-28
   400f0:	dfc00615 	stw	ra,24(sp)
   400f4:	df000515 	stw	fp,20(sp)
   400f8:	df000504 	addi	fp,sp,20
  
  /*
   * Notify the operating system that we are at interrupt level.
   */ 
  
  ALT_OS_INT_ENTER();
   400fc:	0001883a 	nop
#ifndef NIOS2_EIC_PRESENT
static ALT_INLINE alt_u32 ALT_ALWAYS_INLINE alt_irq_pending (void)
{
  alt_u32 active;

  NIOS2_READ_IPENDING (active);
   40100:	0005313a 	rdctl	r2,ipending
   40104:	e0bffe15 	stw	r2,-8(fp)

  return active;
   40108:	e0bffe17 	ldw	r2,-8(fp)
   * Consider the case where the high priority interupt is asserted during
   * the interrupt entry sequence for a lower priority interrupt to see why
   * this is the case.
   */

  active = alt_irq_pending ();
   4010c:	e0bffb15 	stw	r2,-20(fp)

  do
  {
    i = 0;
   40110:	e03ffd15 	stw	zero,-12(fp)
    mask = 1;
   40114:	00800044 	movi	r2,1
   40118:	e0bffc15 	stw	r2,-16(fp)
     * called to clear the interrupt condition.
     */

    do
    {
      if (active & mask)
   4011c:	e0fffb17 	ldw	r3,-20(fp)
   40120:	e0bffc17 	ldw	r2,-16(fp)
   40124:	1884703a 	and	r2,r3,r2
   40128:	10001726 	beq	r2,zero,40188 <alt_irq_handler+0x9c>
      { 
#ifdef ALT_ENHANCED_INTERRUPT_API_PRESENT
        alt_irq[i].handler(alt_irq[i].context); 
   4012c:	00c00174 	movhi	r3,5
   40130:	18cbff04 	addi	r3,r3,12284
   40134:	e0bffd17 	ldw	r2,-12(fp)
   40138:	100490fa 	slli	r2,r2,3
   4013c:	1885883a 	add	r2,r3,r2
   40140:	10c00017 	ldw	r3,0(r2)
   40144:	01000174 	movhi	r4,5
   40148:	210bff04 	addi	r4,r4,12284
   4014c:	e0bffd17 	ldw	r2,-12(fp)
   40150:	100490fa 	slli	r2,r2,3
   40154:	2085883a 	add	r2,r4,r2
   40158:	10800104 	addi	r2,r2,4
   4015c:	10800017 	ldw	r2,0(r2)
   40160:	1009883a 	mov	r4,r2
   40164:	183ee83a 	callr	r3
#else
        alt_irq[i].handler(alt_irq[i].context, i); 
#endif
        break;
   40168:	0001883a 	nop
#ifndef NIOS2_EIC_PRESENT
static ALT_INLINE alt_u32 ALT_ALWAYS_INLINE alt_irq_pending (void)
{
  alt_u32 active;

  NIOS2_READ_IPENDING (active);
   4016c:	0005313a 	rdctl	r2,ipending
   40170:	e0bfff15 	stw	r2,-4(fp)

  return active;
   40174:	e0bfff17 	ldw	r2,-4(fp)
      mask <<= 1;
      i++;

    } while (1);

    active = alt_irq_pending ();
   40178:	e0bffb15 	stw	r2,-20(fp)
    
  } while (active);
   4017c:	e0bffb17 	ldw	r2,-20(fp)
   40180:	103fe31e 	bne	r2,zero,40110 <alt_irq_handler+0x24>

  /*
   * Notify the operating system that interrupt processing is complete.
   */ 

  ALT_OS_INT_EXIT();
   40184:	00000706 	br	401a4 <alt_irq_handler+0xb8>
#else
        alt_irq[i].handler(alt_irq[i].context, i); 
#endif
        break;
      }
      mask <<= 1;
   40188:	e0bffc17 	ldw	r2,-16(fp)
   4018c:	1085883a 	add	r2,r2,r2
   40190:	e0bffc15 	stw	r2,-16(fp)
      i++;
   40194:	e0bffd17 	ldw	r2,-12(fp)
   40198:	10800044 	addi	r2,r2,1
   4019c:	e0bffd15 	stw	r2,-12(fp)

    } while (1);
   401a0:	003fde06 	br	4011c <alt_irq_handler+0x30>
  /*
   * Notify the operating system that interrupt processing is complete.
   */ 

  ALT_OS_INT_EXIT();
}
   401a4:	e037883a 	mov	sp,fp
   401a8:	dfc00117 	ldw	ra,4(sp)
   401ac:	df000017 	ldw	fp,0(sp)
   401b0:	dec00204 	addi	sp,sp,8
   401b4:	f800283a 	ret

Disassembly of section .text:

000401b8 <_start>:

    /*
     * Now that the caches are initialized, set up the stack pointer and global pointer.
     * The values provided by the linker are assumed to be correctly aligned.
     */
    movhi sp, %hi(__alt_stack_pointer)
   401b8:	06c00234 	movhi	sp,8
    ori sp, sp, %lo(__alt_stack_pointer)
   401bc:	dec00014 	ori	sp,sp,0
    movhi gp, %hi(_gp)
   401c0:	06800174 	movhi	gp,5
    ori gp, gp, %lo(_gp)
   401c4:	d69c4114 	ori	gp,gp,28932
 */
#ifndef ALT_SIM_OPTIMIZE
    /* Log that the BSS is about to be cleared. */
    ALT_LOG_PUTS(alt_log_msg_bss)

    movhi r2, %hi(__bss_start)
   401c8:	00800174 	movhi	r2,5
    ori r2, r2, %lo(__bss_start)
   401cc:	1082e614 	ori	r2,r2,2968

    movhi r3, %hi(__bss_end)
   401d0:	00c00174 	movhi	r3,5
    ori r3, r3, %lo(__bss_end)
   401d4:	18cca314 	ori	r3,r3,12940

    beq r2, r3, 1f
   401d8:	10c00326 	beq	r2,r3,401e8 <_start+0x30>

0:
    stw zero, (r2)
   401dc:	10000015 	stw	zero,0(r2)
    addi r2, r2, 4
   401e0:	10800104 	addi	r2,r2,4
    bltu r2, r3, 0b
   401e4:	10fffd36 	bltu	r2,r3,401dc <_start+0x24>
     * section aren't defined until alt_load() has been called).
     */
    mov   et, zero
#endif

    call alt_load
   401e8:	004a9880 	call	4a988 <alt_load>

    /* Log that alt_main is about to be called. */
    ALT_LOG_PUTS(alt_log_msg_alt_main)

    /* Call the C entry point. It should never return. */
    call alt_main
   401ec:	004ab2c0 	call	4ab2c <alt_main>

000401f0 <alt_after_alt_main>:

    /* Wait in infinite loop in case alt_main does return. */
alt_after_alt_main:
    br alt_after_alt_main
   401f0:	003fff06 	br	401f0 <alt_after_alt_main>

000401f4 <crcCI>:
 * n = 6, Read  96 bits data from the custom instruction
 * n = 7, Read 128 bits data from the custom instruction*/
#define CRC_CI_MACRO(n, A) ALT_CI_CRC_CUSTOM_INSTRUCTION_0(n,A)      // __builtin_custom_ini(ALT_CI_CRC_N + (n & 0x7), (A))

unsigned long crcCI(unsigned char * input_data, unsigned long input_data_length)
{
   401f4:	defffb04 	addi	sp,sp,-20
   401f8:	df000415 	stw	fp,16(sp)
   401fc:	df000404 	addi	fp,sp,16
   40200:	e13ffe15 	stw	r4,-8(fp)
   40204:	e17fff15 	stw	r5,-4(fp)
  unsigned long index;
  /* copy of the data buffer pointer so that it can advance by different widths */
  void * input_data_copy = (void *)input_data;
   40208:	e0bffe17 	ldw	r2,-8(fp)
   4020c:	e0bffd15 	stw	r2,-12(fp)

  /* The custom instruction CRC will initialize to the inital remainder value */    
  CRC_CI_MACRO(0,0);
   40210:	0005883a 	mov	r2,zero
   40214:	1005c032 	custom	0,r2,r2,zero
  
  /* Write 32 bit data to the custom instruction.  If the buffer does not end
   * on a 32 bit boundary then the remaining data will be sent to the custom
   * instruction in the 'if' statement below.
   */
  for(index = 0; index < (input_data_length & 0xFFFFFFFC); index+=4)
   40218:	e03ffc15 	stw	zero,-16(fp)
   4021c:	00000906 	br	40244 <crcCI+0x50>
  {
    CRC_CI_MACRO(3, *(unsigned long *)input_data_copy);
   40220:	e0bffd17 	ldw	r2,-12(fp)
   40224:	10800017 	ldw	r2,0(r2)
   40228:	1005c0f2 	custom	3,r2,r2,zero
    input_data_copy += 4;  /* void pointer, must move by 4 for each word */
   4022c:	e0bffd17 	ldw	r2,-12(fp)
   40230:	10800104 	addi	r2,r2,4
   40234:	e0bffd15 	stw	r2,-12(fp)
  
  /* Write 32 bit data to the custom instruction.  If the buffer does not end
   * on a 32 bit boundary then the remaining data will be sent to the custom
   * instruction in the 'if' statement below.
   */
  for(index = 0; index < (input_data_length & 0xFFFFFFFC); index+=4)
   40238:	e0bffc17 	ldw	r2,-16(fp)
   4023c:	10800104 	addi	r2,r2,4
   40240:	e0bffc15 	stw	r2,-16(fp)
   40244:	e0ffff17 	ldw	r3,-4(fp)
   40248:	00bfff04 	movi	r2,-4
   4024c:	1884703a 	and	r2,r3,r2
   40250:	e0fffc17 	ldw	r3,-16(fp)
   40254:	18bff236 	bltu	r3,r2,40220 <crcCI+0x2c>
    CRC_CI_MACRO(3, *(unsigned long *)input_data_copy);
    input_data_copy += 4;  /* void pointer, must move by 4 for each word */
  }

  /* Write the remainder of the buffer if it does not end on a word boundary */  
  if((input_data_length & 0x3) == 0x3)  /* 3 bytes left */
   40258:	e0bfff17 	ldw	r2,-4(fp)
   4025c:	108000cc 	andi	r2,r2,3
   40260:	108000d8 	cmpnei	r2,r2,3
   40264:	10000c1e 	bne	r2,zero,40298 <crcCI+0xa4>
  {
    CRC_CI_MACRO(2, *(unsigned short *)input_data_copy);
   40268:	e0bffd17 	ldw	r2,-12(fp)
   4026c:	1080000b 	ldhu	r2,0(r2)
   40270:	10bfffcc 	andi	r2,r2,65535
   40274:	1005c0b2 	custom	2,r2,r2,zero
    input_data_copy += 2;
   40278:	e0bffd17 	ldw	r2,-12(fp)
   4027c:	10800084 	addi	r2,r2,2
   40280:	e0bffd15 	stw	r2,-12(fp)
    CRC_CI_MACRO(1, *(unsigned char *)input_data_copy);
   40284:	e0bffd17 	ldw	r2,-12(fp)
   40288:	10800003 	ldbu	r2,0(r2)
   4028c:	10803fcc 	andi	r2,r2,255
   40290:	1005c072 	custom	1,r2,r2,zero
   40294:	00001106 	br	402dc <crcCI+0xe8>
  }
  else if((input_data_length & 0x3) == 0x2) /* 2 bytes left */
   40298:	e0bfff17 	ldw	r2,-4(fp)
   4029c:	108000cc 	andi	r2,r2,3
   402a0:	10800098 	cmpnei	r2,r2,2
   402a4:	1000051e 	bne	r2,zero,402bc <crcCI+0xc8>
  {
    CRC_CI_MACRO(2, *(unsigned short *)input_data_copy);    
   402a8:	e0bffd17 	ldw	r2,-12(fp)
   402ac:	1080000b 	ldhu	r2,0(r2)
   402b0:	10bfffcc 	andi	r2,r2,65535
   402b4:	1005c0b2 	custom	2,r2,r2,zero
   402b8:	00000806 	br	402dc <crcCI+0xe8>
  }
  else if((input_data_length & 0x3) == 0x1) /* 1 byte left */
   402bc:	e0bfff17 	ldw	r2,-4(fp)
   402c0:	108000cc 	andi	r2,r2,3
   402c4:	10800058 	cmpnei	r2,r2,1
   402c8:	1000041e 	bne	r2,zero,402dc <crcCI+0xe8>
  {
    CRC_CI_MACRO(1, *(unsigned char *)input_data_copy);    
   402cc:	e0bffd17 	ldw	r2,-12(fp)
   402d0:	10800003 	ldbu	r2,0(r2)
   402d4:	10803fcc 	andi	r2,r2,255
   402d8:	1005c072 	custom	1,r2,r2,zero
  
  /* There are 4 registers in the CRC custom instruction.  Since
   * this example uses CRC-32 only the first register must be read
   * in order to receive the full result.
   */
  return CRC_CI_MACRO(4, 0);
   402dc:	0005883a 	mov	r2,zero
   402e0:	1005c132 	custom	4,r2,r2,zero
}
   402e4:	e037883a 	mov	sp,fp
   402e8:	df000017 	ldw	fp,0(sp)
   402ec:	dec00104 	addi	sp,sp,4
   402f0:	f800283a 	ret

000402f4 <reflect>:
 * Returns:   The reflection of the original data.
 *
 *********************************************************************/
static unsigned long
reflect(unsigned long data, unsigned char nBits)
{
   402f4:	defffb04 	addi	sp,sp,-20
   402f8:	df000415 	stw	fp,16(sp)
   402fc:	df000404 	addi	fp,sp,16
   40300:	e13ffe15 	stw	r4,-8(fp)
   40304:	2805883a 	mov	r2,r5
   40308:	e0bfff05 	stb	r2,-4(fp)
  unsigned long  reflection = 0x00000000;
   4030c:	e03ffc15 	stw	zero,-16(fp)
  unsigned char  bit;

  /*
   * Reflect the data about the center bit.
   */
  for (bit = 0; bit < nBits; ++bit)
   40310:	e03ffd05 	stb	zero,-12(fp)
   40314:	00001206 	br	40360 <reflect+0x6c>
  {
    /*
     * If the LSB bit is set, set the reflection of it.
     */
    if (data & 0x01)
   40318:	e0bffe17 	ldw	r2,-8(fp)
   4031c:	1080004c 	andi	r2,r2,1
   40320:	10000926 	beq	r2,zero,40348 <reflect+0x54>
    {
      reflection |= (1 << ((nBits - 1) - bit));
   40324:	e0bfff03 	ldbu	r2,-4(fp)
   40328:	10ffffc4 	addi	r3,r2,-1
   4032c:	e0bffd03 	ldbu	r2,-12(fp)
   40330:	1885c83a 	sub	r2,r3,r2
   40334:	00c00044 	movi	r3,1
   40338:	1884983a 	sll	r2,r3,r2
   4033c:	e0fffc17 	ldw	r3,-16(fp)
   40340:	1884b03a 	or	r2,r3,r2
   40344:	e0bffc15 	stw	r2,-16(fp)
    }

    data = (data >> 1);
   40348:	e0bffe17 	ldw	r2,-8(fp)
   4034c:	1004d07a 	srli	r2,r2,1
   40350:	e0bffe15 	stw	r2,-8(fp)
  unsigned char  bit;

  /*
   * Reflect the data about the center bit.
   */
  for (bit = 0; bit < nBits; ++bit)
   40354:	e0bffd03 	ldbu	r2,-12(fp)
   40358:	10800044 	addi	r2,r2,1
   4035c:	e0bffd05 	stb	r2,-12(fp)
   40360:	e0fffd03 	ldbu	r3,-12(fp)
   40364:	e0bfff03 	ldbu	r2,-4(fp)
   40368:	18bfeb36 	bltu	r3,r2,40318 <reflect+0x24>
    }

    data = (data >> 1);
  }

  return (reflection);
   4036c:	e0bffc17 	ldw	r2,-16(fp)

} /* reflect() */
   40370:	e037883a 	mov	sp,fp
   40374:	df000017 	ldw	fp,0(sp)
   40378:	dec00104 	addi	sp,sp,4
   4037c:	f800283a 	ret

00040380 <crcSlow>:
 * Returns:   The CRC of the message.
 *
 *********************************************************************/
crc
crcSlow(unsigned char const message[], int nBytes)
{
   40380:	defff904 	addi	sp,sp,-28
   40384:	dfc00615 	stw	ra,24(sp)
   40388:	df000515 	stw	fp,20(sp)
   4038c:	df000504 	addi	fp,sp,20
   40390:	e13ffe15 	stw	r4,-8(fp)
   40394:	e17fff15 	stw	r5,-4(fp)
    crc            remainder = INITIAL_REMAINDER;
   40398:	00bfffc4 	movi	r2,-1
   4039c:	e0bffb15 	stw	r2,-20(fp)


    /*
     * Perform modulo-2 division, a byte at a time.
     */
    for (byte = 0; byte < nBytes; ++byte)
   403a0:	e03ffc15 	stw	zero,-16(fp)
   403a4:	00002506 	br	4043c <crcSlow+0xbc>
    {
        /*
         * Bring the next byte into the remainder.
         */
        remainder ^= (REFLECT_DATA(message[byte]) << (WIDTH - 8));
   403a8:	e0bffc17 	ldw	r2,-16(fp)
   403ac:	e0fffe17 	ldw	r3,-8(fp)
   403b0:	1885883a 	add	r2,r3,r2
   403b4:	10800003 	ldbu	r2,0(r2)
   403b8:	10803fcc 	andi	r2,r2,255
   403bc:	1009883a 	mov	r4,r2
   403c0:	01400204 	movi	r5,8
   403c4:	00402f40 	call	402f4 <reflect>
   403c8:	10803fcc 	andi	r2,r2,255
   403cc:	1004963a 	slli	r2,r2,24
   403d0:	e0fffb17 	ldw	r3,-20(fp)
   403d4:	1884f03a 	xor	r2,r3,r2
   403d8:	e0bffb15 	stw	r2,-20(fp)

        /*
         * Perform modulo-2 division, a bit at a time.
         */
        for (bit = 8; bit > 0; --bit)
   403dc:	00800204 	movi	r2,8
   403e0:	e0bffd05 	stb	r2,-12(fp)
   403e4:	00001006 	br	40428 <crcSlow+0xa8>
        {
            /*
             * Try to divide the current data bit.
             */
            if (remainder & TOPBIT)
   403e8:	e0bffb17 	ldw	r2,-20(fp)
   403ec:	1000080e 	bge	r2,zero,40410 <crcSlow+0x90>
            {
                remainder = (remainder << 1) ^ POLYNOMIAL;
   403f0:	e0bffb17 	ldw	r2,-20(fp)
   403f4:	1085883a 	add	r2,r2,r2
   403f8:	1007883a 	mov	r3,r2
   403fc:	00813074 	movhi	r2,1217
   40400:	10876dc4 	addi	r2,r2,7607
   40404:	1884f03a 	xor	r2,r3,r2
   40408:	e0bffb15 	stw	r2,-20(fp)
   4040c:	00000306 	br	4041c <crcSlow+0x9c>
            }
            else
            {
                remainder = (remainder << 1);
   40410:	e0bffb17 	ldw	r2,-20(fp)
   40414:	1085883a 	add	r2,r2,r2
   40418:	e0bffb15 	stw	r2,-20(fp)
        remainder ^= (REFLECT_DATA(message[byte]) << (WIDTH - 8));

        /*
         * Perform modulo-2 division, a bit at a time.
         */
        for (bit = 8; bit > 0; --bit)
   4041c:	e0bffd03 	ldbu	r2,-12(fp)
   40420:	10bfffc4 	addi	r2,r2,-1
   40424:	e0bffd05 	stb	r2,-12(fp)
   40428:	e0bffd03 	ldbu	r2,-12(fp)
   4042c:	103fee1e 	bne	r2,zero,403e8 <crcSlow+0x68>


    /*
     * Perform modulo-2 division, a byte at a time.
     */
    for (byte = 0; byte < nBytes; ++byte)
   40430:	e0bffc17 	ldw	r2,-16(fp)
   40434:	10800044 	addi	r2,r2,1
   40438:	e0bffc15 	stw	r2,-16(fp)
   4043c:	e0fffc17 	ldw	r3,-16(fp)
   40440:	e0bfff17 	ldw	r2,-4(fp)
   40444:	18bfd816 	blt	r3,r2,403a8 <crcSlow+0x28>
    }

    /*
     * The final remainder is the CRC result.
     */
    return (REFLECT_REMAINDER(remainder) ^ FINAL_XOR_VALUE);
   40448:	e13ffb17 	ldw	r4,-20(fp)
   4044c:	01400804 	movi	r5,32
   40450:	00402f40 	call	402f4 <reflect>
   40454:	0084303a 	nor	r2,zero,r2

}   /* crcSlow() */
   40458:	e037883a 	mov	sp,fp
   4045c:	dfc00117 	ldw	ra,4(sp)
   40460:	df000017 	ldw	fp,0(sp)
   40464:	dec00204 	addi	sp,sp,8
   40468:	f800283a 	ret

0004046c <crcInit>:
 * Returns:   None defined.
 *
 *********************************************************************/
void
crcInit(void)
{
   4046c:	defffc04 	addi	sp,sp,-16
   40470:	df000315 	stw	fp,12(sp)
   40474:	df000304 	addi	fp,sp,12


    /*
     * Compute the remainder of each possible dividend.
     */
    for (dividend = 0; dividend < 256; ++dividend)
   40478:	e03ffe15 	stw	zero,-8(fp)
   4047c:	00002306 	br	4050c <crcInit+0xa0>
    {
        /*
         * Start with the dividend followed by zeros.
         */
        remainder = dividend << (WIDTH - 8);
   40480:	e0bffe17 	ldw	r2,-8(fp)
   40484:	1004963a 	slli	r2,r2,24
   40488:	e0bffd15 	stw	r2,-12(fp)

        /*
         * Perform modulo-2 division, a bit at a time.
         */
        for (bit = 8; bit > 0; --bit)
   4048c:	00800204 	movi	r2,8
   40490:	e0bfff05 	stb	r2,-4(fp)
   40494:	00001006 	br	404d8 <crcInit+0x6c>
        {
            /*
             * Try to divide the current data bit.
             */     
            if (remainder & TOPBIT)
   40498:	e0bffd17 	ldw	r2,-12(fp)
   4049c:	1000080e 	bge	r2,zero,404c0 <crcInit+0x54>
            {
                remainder = (remainder << 1) ^ POLYNOMIAL;
   404a0:	e0bffd17 	ldw	r2,-12(fp)
   404a4:	1085883a 	add	r2,r2,r2
   404a8:	1007883a 	mov	r3,r2
   404ac:	00813074 	movhi	r2,1217
   404b0:	10876dc4 	addi	r2,r2,7607
   404b4:	1884f03a 	xor	r2,r3,r2
   404b8:	e0bffd15 	stw	r2,-12(fp)
   404bc:	00000306 	br	404cc <crcInit+0x60>
            }
            else
            {
                remainder = (remainder << 1);
   404c0:	e0bffd17 	ldw	r2,-12(fp)
   404c4:	1085883a 	add	r2,r2,r2
   404c8:	e0bffd15 	stw	r2,-12(fp)
        remainder = dividend << (WIDTH - 8);

        /*
         * Perform modulo-2 division, a bit at a time.
         */
        for (bit = 8; bit > 0; --bit)
   404cc:	e0bfff03 	ldbu	r2,-4(fp)
   404d0:	10bfffc4 	addi	r2,r2,-1
   404d4:	e0bfff05 	stb	r2,-4(fp)
   404d8:	e0bfff03 	ldbu	r2,-4(fp)
   404dc:	103fee1e 	bne	r2,zero,40498 <crcInit+0x2c>
        }

        /*
         * Store the result into the table.
         */
        crcTable[dividend] = remainder;
   404e0:	00c00174 	movhi	r3,5
   404e4:	18c2ff04 	addi	r3,r3,3068
   404e8:	e0bffe17 	ldw	r2,-8(fp)
   404ec:	1085883a 	add	r2,r2,r2
   404f0:	1085883a 	add	r2,r2,r2
   404f4:	1885883a 	add	r2,r3,r2
   404f8:	e0fffd17 	ldw	r3,-12(fp)
   404fc:	10c00015 	stw	r3,0(r2)


    /*
     * Compute the remainder of each possible dividend.
     */
    for (dividend = 0; dividend < 256; ++dividend)
   40500:	e0bffe17 	ldw	r2,-8(fp)
   40504:	10800044 	addi	r2,r2,1
   40508:	e0bffe15 	stw	r2,-8(fp)
   4050c:	e0bffe17 	ldw	r2,-8(fp)
   40510:	10804010 	cmplti	r2,r2,256
   40514:	103fda1e 	bne	r2,zero,40480 <crcInit+0x14>
         * Store the result into the table.
         */
        crcTable[dividend] = remainder;
    }

}   /* crcInit() */
   40518:	e037883a 	mov	sp,fp
   4051c:	df000017 	ldw	fp,0(sp)
   40520:	dec00104 	addi	sp,sp,4
   40524:	f800283a 	ret

00040528 <crcFast>:
 * Returns:   The CRC of the message.
 *
 *********************************************************************/
crc
crcFast(unsigned char const message[], int nBytes)
{
   40528:	defff904 	addi	sp,sp,-28
   4052c:	dfc00615 	stw	ra,24(sp)
   40530:	df000515 	stw	fp,20(sp)
   40534:	df000504 	addi	fp,sp,20
   40538:	e13ffe15 	stw	r4,-8(fp)
   4053c:	e17fff15 	stw	r5,-4(fp)
    crc            remainder = INITIAL_REMAINDER;
   40540:	00bfffc4 	movi	r2,-1
   40544:	e0bffb15 	stw	r2,-20(fp)


    /*
     * Divide the message by the polynomial, a byte at a time.
     */
    for (byte = 0; byte < nBytes; ++byte)
   40548:	e03ffc15 	stw	zero,-16(fp)
   4054c:	00001b06 	br	405bc <crcFast+0x94>
    {
        data = REFLECT_DATA(message[byte]) ^ (remainder >> (WIDTH - 8));
   40550:	e0bffc17 	ldw	r2,-16(fp)
   40554:	e0fffe17 	ldw	r3,-8(fp)
   40558:	1885883a 	add	r2,r3,r2
   4055c:	10800003 	ldbu	r2,0(r2)
   40560:	10803fcc 	andi	r2,r2,255
   40564:	1009883a 	mov	r4,r2
   40568:	01400204 	movi	r5,8
   4056c:	00402f40 	call	402f4 <reflect>
   40570:	1007883a 	mov	r3,r2
   40574:	e0bffb17 	ldw	r2,-20(fp)
   40578:	1004d63a 	srli	r2,r2,24
   4057c:	1884f03a 	xor	r2,r3,r2
   40580:	e0bffd05 	stb	r2,-12(fp)
      remainder = crcTable[data] ^ (remainder << 8);
   40584:	e0bffd03 	ldbu	r2,-12(fp)
   40588:	00c00174 	movhi	r3,5
   4058c:	18c2ff04 	addi	r3,r3,3068
   40590:	1085883a 	add	r2,r2,r2
   40594:	1085883a 	add	r2,r2,r2
   40598:	1885883a 	add	r2,r3,r2
   4059c:	10c00017 	ldw	r3,0(r2)
   405a0:	e0bffb17 	ldw	r2,-20(fp)
   405a4:	1004923a 	slli	r2,r2,8
   405a8:	1884f03a 	xor	r2,r3,r2
   405ac:	e0bffb15 	stw	r2,-20(fp)


    /*
     * Divide the message by the polynomial, a byte at a time.
     */
    for (byte = 0; byte < nBytes; ++byte)
   405b0:	e0bffc17 	ldw	r2,-16(fp)
   405b4:	10800044 	addi	r2,r2,1
   405b8:	e0bffc15 	stw	r2,-16(fp)
   405bc:	e0fffc17 	ldw	r3,-16(fp)
   405c0:	e0bfff17 	ldw	r2,-4(fp)
   405c4:	18bfe216 	blt	r3,r2,40550 <crcFast+0x28>
    }

    /*
     * The final remainder is the CRC.
     */
    return (REFLECT_REMAINDER(remainder) ^ FINAL_XOR_VALUE);
   405c8:	e13ffb17 	ldw	r4,-20(fp)
   405cc:	01400804 	movi	r5,32
   405d0:	00402f40 	call	402f4 <reflect>
   405d4:	0084303a 	nor	r2,zero,r2

}   /* crcFast() */
   405d8:	e037883a 	mov	sp,fp
   405dc:	dfc00117 	ldw	ra,4(sp)
   405e0:	df000017 	ldw	fp,0(sp)
   405e4:	dec00204 	addi	sp,sp,8
   405e8:	f800283a 	ret

000405ec <main>:




int main()
{
   405ec:	deff9404 	addi	sp,sp,-432
   405f0:	dfc06b15 	stw	ra,428(sp)
   405f4:	df006a15 	stw	fp,424(sp)
   405f8:	dc006915 	stw	r16,420(sp)
   405fc:	df006904 	addi	fp,sp,420
  unsigned long buffer_counter, data_counter;
  unsigned long sw_slow_results[NUMBER_OF_BUFFERS];
  unsigned long sw_fast_results[NUMBER_OF_BUFFERS];
  unsigned long ci_results[NUMBER_OF_BUFFERS];
  unsigned char random_data = 0x5A;
   40600:	00801684 	movi	r2,90
   40604:	e0bf9905 	stb	r2,-412(fp)
  alt_u32 sw_slow_timeA, sw_slow_timeB;
  alt_u32 sw_fast_timeA, sw_fast_timeB;
  alt_u32 ci_timeA, ci_timeB;


  printf("+-----------------------------------------------------------+\n");
   40608:	01000174 	movhi	r4,5
   4060c:	21336404 	addi	r4,r4,-12912
   40610:	0040f4c0 	call	40f4c <puts>
  printf("| Comparison between software and custom instruction CRC32  |\n");
   40614:	01000174 	movhi	r4,5
   40618:	21337404 	addi	r4,r4,-12848
   4061c:	0040f4c0 	call	40f4c <puts>
  printf("+-----------------------------------------------------------+\n\n\n");
   40620:	01000174 	movhi	r4,5
   40624:	21338404 	addi	r4,r4,-12784
   40628:	0040f4c0 	call	40f4c <puts>
  
  printf("System specification\n");
   4062c:	01000174 	movhi	r4,5
   40630:	21339404 	addi	r4,r4,-12720
   40634:	0040f4c0 	call	40f4c <puts>
  printf("--------------------\n");
   40638:	01000174 	movhi	r4,5
   4063c:	21339a04 	addi	r4,r4,-12696
   40640:	0040f4c0 	call	40f4c <puts>

  printf("System clock speed = %lu MHz\n", (unsigned long)ALT_CPU_FREQ /(unsigned long)1000000);
   40644:	01000174 	movhi	r4,5
   40648:	2133a004 	addi	r4,r4,-12672
   4064c:	01400c84 	movi	r5,50
   40650:	0040e8c0 	call	40e8c <printf>
  printf("Number of buffer locations = %d\n", NUMBER_OF_BUFFERS);
   40654:	01000174 	movhi	r4,5
   40658:	2133a804 	addi	r4,r4,-12640
   4065c:	01400804 	movi	r5,32
   40660:	0040e8c0 	call	40e8c <printf>
  printf("Size of each buffer = %d bytes\n\n\n", BUFFER_SIZE);
   40664:	01000174 	movhi	r4,5
   40668:	2133b104 	addi	r4,r4,-12604
   4066c:	01404004 	movi	r5,256
   40670:	0040e8c0 	call	40e8c <printf>


  /* Initializing the data buffers */
  printf("Initializing all of the buffers with pseudo-random data\n");
   40674:	01000174 	movhi	r4,5
   40678:	2133ba04 	addi	r4,r4,-12568
   4067c:	0040f4c0 	call	40f4c <puts>
  printf("-------------------------------------------------------\n");
   40680:	01000174 	movhi	r4,5
   40684:	2133c804 	addi	r4,r4,-12512
   40688:	0040f4c0 	call	40f4c <puts>
  for(buffer_counter = 0; buffer_counter < NUMBER_OF_BUFFERS; buffer_counter++)
   4068c:	e03f9715 	stw	zero,-420(fp)
   40690:	00001d06 	br	40708 <main+0x11c>
  {
    for(data_counter = 0; data_counter < BUFFER_SIZE; data_counter++)
   40694:	e03f9815 	stw	zero,-416(fp)
   40698:	00001506 	br	406f0 <main+0x104>
    {
      data_buffer_region[buffer_counter][data_counter] = random_data;
   4069c:	00c00174 	movhi	r3,5
   406a0:	18c3ff04 	addi	r3,r3,4092
   406a4:	e0bf9717 	ldw	r2,-420(fp)
   406a8:	1008923a 	slli	r4,r2,8
   406ac:	e0bf9817 	ldw	r2,-416(fp)
   406b0:	2085883a 	add	r2,r4,r2
   406b4:	1885883a 	add	r2,r3,r2
   406b8:	e0ff9903 	ldbu	r3,-412(fp)
   406bc:	10c00005 	stb	r3,0(r2)
      random_data = (random_data >> 4) + (random_data << 4) + (data_counter & 0xFF);
   406c0:	e0bf9903 	ldbu	r2,-412(fp)
   406c4:	10c03fcc 	andi	r3,r2,255
   406c8:	1806d13a 	srli	r3,r3,4
   406cc:	1004913a 	slli	r2,r2,4
   406d0:	1884b03a 	or	r2,r3,r2
   406d4:	1007883a 	mov	r3,r2
   406d8:	e0bf9817 	ldw	r2,-416(fp)
   406dc:	1885883a 	add	r2,r3,r2
   406e0:	e0bf9905 	stb	r2,-412(fp)
  /* Initializing the data buffers */
  printf("Initializing all of the buffers with pseudo-random data\n");
  printf("-------------------------------------------------------\n");
  for(buffer_counter = 0; buffer_counter < NUMBER_OF_BUFFERS; buffer_counter++)
  {
    for(data_counter = 0; data_counter < BUFFER_SIZE; data_counter++)
   406e4:	e0bf9817 	ldw	r2,-416(fp)
   406e8:	10800044 	addi	r2,r2,1
   406ec:	e0bf9815 	stw	r2,-416(fp)
   406f0:	e0bf9817 	ldw	r2,-416(fp)
   406f4:	10804030 	cmpltui	r2,r2,256
   406f8:	103fe81e 	bne	r2,zero,4069c <main+0xb0>


  /* Initializing the data buffers */
  printf("Initializing all of the buffers with pseudo-random data\n");
  printf("-------------------------------------------------------\n");
  for(buffer_counter = 0; buffer_counter < NUMBER_OF_BUFFERS; buffer_counter++)
   406fc:	e0bf9717 	ldw	r2,-420(fp)
   40700:	10800044 	addi	r2,r2,1
   40704:	e0bf9715 	stw	r2,-420(fp)
   40708:	e0bf9717 	ldw	r2,-420(fp)
   4070c:	10800830 	cmpltui	r2,r2,32
   40710:	103fe01e 	bne	r2,zero,40694 <main+0xa8>
    {
      data_buffer_region[buffer_counter][data_counter] = random_data;
      random_data = (random_data >> 4) + (random_data << 4) + (data_counter & 0xFF);
    }
  }
  printf("Initialization completed\n\n\n");
   40714:	01000174 	movhi	r4,5
   40718:	2133d604 	addi	r4,r4,-12456
   4071c:	0040f4c0 	call	40f4c <puts>


  if(alt_timestamp_start() < 0) // starts the timestamp timer
   40720:	004bbe40 	call	4bbe4 <alt_timestamp_start>
   40724:	1000050e 	bge	r2,zero,4073c <main+0x150>
  {
    printf("Please add the high resolution timer to the timestamp timer setting in the syslib properties page.\n");
   40728:	01000174 	movhi	r4,5
   4072c:	2133dd04 	addi	r4,r4,-12428
   40730:	0040f4c0 	call	40f4c <puts>
    exit(1);
   40734:	01000044 	movi	r4,1
   40738:	0040e280 	call	40e28 <exit>
  }


  /* Slow software CRC based on a modulo 2 division implementation */
  printf("Running the software CRC\n");
   4073c:	01000174 	movhi	r4,5
   40740:	2133f604 	addi	r4,r4,-12328
   40744:	0040f4c0 	call	40f4c <puts>
  printf("------------------------\n");
   40748:	01000174 	movhi	r4,5
   4074c:	2133fd04 	addi	r4,r4,-12300
   40750:	0040f4c0 	call	40f4c <puts>
  sw_slow_timeA = alt_timestamp();
   40754:	004bc6c0 	call	4bc6c <alt_timestamp>
   40758:	e0bf9a15 	stw	r2,-408(fp)

  for(buffer_counter = 0; buffer_counter < NUMBER_OF_BUFFERS; buffer_counter++)
   4075c:	e03f9715 	stw	zero,-420(fp)
   40760:	00001306 	br	407b0 <main+0x1c4>
  {
    sw_slow_results[buffer_counter] = crcSlow(data_buffer_region[buffer_counter], BUFFER_SIZE);
   40764:	e0bf9717 	ldw	r2,-420(fp)
   40768:	1006923a 	slli	r3,r2,8
   4076c:	00800174 	movhi	r2,5
   40770:	1083ff04 	addi	r2,r2,4092
   40774:	1885883a 	add	r2,r3,r2
   40778:	1009883a 	mov	r4,r2
   4077c:	01404004 	movi	r5,256
   40780:	00403800 	call	40380 <crcSlow>
   40784:	1007883a 	mov	r3,r2
   40788:	e0bf9717 	ldw	r2,-420(fp)
   4078c:	1085883a 	add	r2,r2,r2
   40790:	1085883a 	add	r2,r2,r2
   40794:	e13f9704 	addi	r4,fp,-420
   40798:	2085883a 	add	r2,r4,r2
   4079c:	10800904 	addi	r2,r2,36
   407a0:	10c00015 	stw	r3,0(r2)
  /* Slow software CRC based on a modulo 2 division implementation */
  printf("Running the software CRC\n");
  printf("------------------------\n");
  sw_slow_timeA = alt_timestamp();

  for(buffer_counter = 0; buffer_counter < NUMBER_OF_BUFFERS; buffer_counter++)
   407a4:	e0bf9717 	ldw	r2,-420(fp)
   407a8:	10800044 	addi	r2,r2,1
   407ac:	e0bf9715 	stw	r2,-420(fp)
   407b0:	e0bf9717 	ldw	r2,-420(fp)
   407b4:	10800830 	cmpltui	r2,r2,32
   407b8:	103fea1e 	bne	r2,zero,40764 <main+0x178>
  {
    sw_slow_results[buffer_counter] = crcSlow(data_buffer_region[buffer_counter], BUFFER_SIZE);
  }
 sw_slow_timeB = alt_timestamp();
   407bc:	004bc6c0 	call	4bc6c <alt_timestamp>
   407c0:	e0bf9b15 	stw	r2,-404(fp)

  printf("Completed\n\n\n");
   407c4:	01000174 	movhi	r4,5
   407c8:	21340404 	addi	r4,r4,-12272
   407cc:	0040f4c0 	call	40f4c <puts>


  /* Fast software CRC based on a lookup table implementation */
  crcInit();
   407d0:	004046c0 	call	4046c <crcInit>
  printf("Running the optimized software CRC\n");
   407d4:	01000174 	movhi	r4,5
   407d8:	21340704 	addi	r4,r4,-12260
   407dc:	0040f4c0 	call	40f4c <puts>
  printf("----------------------------------\n");
   407e0:	01000174 	movhi	r4,5
   407e4:	21341004 	addi	r4,r4,-12224
   407e8:	0040f4c0 	call	40f4c <puts>
  sw_fast_timeA = alt_timestamp();
   407ec:	004bc6c0 	call	4bc6c <alt_timestamp>
   407f0:	e0bf9c15 	stw	r2,-400(fp)
  for(buffer_counter = 0; buffer_counter < NUMBER_OF_BUFFERS; buffer_counter++)
   407f4:	e03f9715 	stw	zero,-420(fp)
   407f8:	00001306 	br	40848 <main+0x25c>
  {
    sw_fast_results[buffer_counter] = crcFast(data_buffer_region[buffer_counter], BUFFER_SIZE);
   407fc:	e0bf9717 	ldw	r2,-420(fp)
   40800:	1006923a 	slli	r3,r2,8
   40804:	00800174 	movhi	r2,5
   40808:	1083ff04 	addi	r2,r2,4092
   4080c:	1885883a 	add	r2,r3,r2
   40810:	1009883a 	mov	r4,r2
   40814:	01404004 	movi	r5,256
   40818:	00405280 	call	40528 <crcFast>
   4081c:	1007883a 	mov	r3,r2
   40820:	e0bf9717 	ldw	r2,-420(fp)
   40824:	1085883a 	add	r2,r2,r2
   40828:	1085883a 	add	r2,r2,r2
   4082c:	e17f9704 	addi	r5,fp,-420
   40830:	2885883a 	add	r2,r5,r2
   40834:	10802904 	addi	r2,r2,164
   40838:	10c00015 	stw	r3,0(r2)
  /* Fast software CRC based on a lookup table implementation */
  crcInit();
  printf("Running the optimized software CRC\n");
  printf("----------------------------------\n");
  sw_fast_timeA = alt_timestamp();
  for(buffer_counter = 0; buffer_counter < NUMBER_OF_BUFFERS; buffer_counter++)
   4083c:	e0bf9717 	ldw	r2,-420(fp)
   40840:	10800044 	addi	r2,r2,1
   40844:	e0bf9715 	stw	r2,-420(fp)
   40848:	e0bf9717 	ldw	r2,-420(fp)
   4084c:	10800830 	cmpltui	r2,r2,32
   40850:	103fea1e 	bne	r2,zero,407fc <main+0x210>
  {
    sw_fast_results[buffer_counter] = crcFast(data_buffer_region[buffer_counter], BUFFER_SIZE);
  }
 sw_fast_timeB = alt_timestamp();
   40854:	004bc6c0 	call	4bc6c <alt_timestamp>
   40858:	e0bf9d15 	stw	r2,-396(fp)
  printf("Completed\n\n\n");
   4085c:	01000174 	movhi	r4,5
   40860:	21340404 	addi	r4,r4,-12272
   40864:	0040f4c0 	call	40f4c <puts>


  /* Custom instruction CRC */
  printf("Running the custom instruction CRC\n");
   40868:	01000174 	movhi	r4,5
   4086c:	21341904 	addi	r4,r4,-12188
   40870:	0040f4c0 	call	40f4c <puts>
  printf("----------------------------------\n");
   40874:	01000174 	movhi	r4,5
   40878:	21341004 	addi	r4,r4,-12224
   4087c:	0040f4c0 	call	40f4c <puts>
 ci_timeA = alt_timestamp();
   40880:	004bc6c0 	call	4bc6c <alt_timestamp>
   40884:	e0bf9e15 	stw	r2,-392(fp)
  for(buffer_counter = 0; buffer_counter < NUMBER_OF_BUFFERS; buffer_counter++)
   40888:	e03f9715 	stw	zero,-420(fp)
   4088c:	00001306 	br	408dc <main+0x2f0>
  {
    ci_results[buffer_counter] = crcCI(data_buffer_region[buffer_counter], BUFFER_SIZE);
   40890:	e0bf9717 	ldw	r2,-420(fp)
   40894:	1006923a 	slli	r3,r2,8
   40898:	00800174 	movhi	r2,5
   4089c:	1083ff04 	addi	r2,r2,4092
   408a0:	1885883a 	add	r2,r3,r2
   408a4:	1009883a 	mov	r4,r2
   408a8:	01404004 	movi	r5,256
   408ac:	00401f40 	call	401f4 <crcCI>
   408b0:	1007883a 	mov	r3,r2
   408b4:	e0bf9717 	ldw	r2,-420(fp)
   408b8:	1085883a 	add	r2,r2,r2
   408bc:	1085883a 	add	r2,r2,r2
   408c0:	e13f9704 	addi	r4,fp,-420
   408c4:	2085883a 	add	r2,r4,r2
   408c8:	10804904 	addi	r2,r2,292
   408cc:	10c00015 	stw	r3,0(r2)

  /* Custom instruction CRC */
  printf("Running the custom instruction CRC\n");
  printf("----------------------------------\n");
 ci_timeA = alt_timestamp();
  for(buffer_counter = 0; buffer_counter < NUMBER_OF_BUFFERS; buffer_counter++)
   408d0:	e0bf9717 	ldw	r2,-420(fp)
   408d4:	10800044 	addi	r2,r2,1
   408d8:	e0bf9715 	stw	r2,-420(fp)
   408dc:	e0bf9717 	ldw	r2,-420(fp)
   408e0:	10800830 	cmpltui	r2,r2,32
   408e4:	103fea1e 	bne	r2,zero,40890 <main+0x2a4>
  {
    ci_results[buffer_counter] = crcCI(data_buffer_region[buffer_counter], BUFFER_SIZE);
  }
  ci_timeB = alt_timestamp();
   408e8:	004bc6c0 	call	4bc6c <alt_timestamp>
   408ec:	e0bf9f15 	stw	r2,-388(fp)
  printf("Completed\n\n\n");
   408f0:	01000174 	movhi	r4,5
   408f4:	21340404 	addi	r4,r4,-12272
   408f8:	0040f4c0 	call	40f4c <puts>

  /* Validation of results */  
  printf("Validating the CRC results from all implementations\n");
   408fc:	01000174 	movhi	r4,5
   40900:	21342204 	addi	r4,r4,-12152
   40904:	0040f4c0 	call	40f4c <puts>
  printf("----------------------------------------------------\n");
   40908:	01000174 	movhi	r4,5
   4090c:	21342f04 	addi	r4,r4,-12100
   40910:	0040f4c0 	call	40f4c <puts>
  for(buffer_counter = 0; buffer_counter < NUMBER_OF_BUFFERS; buffer_counter++)
   40914:	e03f9715 	stw	zero,-420(fp)
   40918:	00004106 	br	40a20 <main+0x434>
  {
    /* Test every combination of results to make sure they are consistant */
    if((sw_slow_results[buffer_counter] != ci_results[buffer_counter]) | 
   4091c:	e0bf9717 	ldw	r2,-420(fp)
   40920:	1085883a 	add	r2,r2,r2
   40924:	1085883a 	add	r2,r2,r2
   40928:	e17f9704 	addi	r5,fp,-420
   4092c:	2885883a 	add	r2,r5,r2
   40930:	10800904 	addi	r2,r2,36
   40934:	10c00017 	ldw	r3,0(r2)
   40938:	e0bf9717 	ldw	r2,-420(fp)
   4093c:	1085883a 	add	r2,r2,r2
   40940:	1085883a 	add	r2,r2,r2
   40944:	e13f9704 	addi	r4,fp,-420
   40948:	2085883a 	add	r2,r4,r2
   4094c:	10804904 	addi	r2,r2,292
   40950:	10800017 	ldw	r2,0(r2)
   40954:	1884c03a 	cmpne	r2,r3,r2
   40958:	1007883a 	mov	r3,r2
       (sw_fast_results[buffer_counter] != ci_results[buffer_counter]))
   4095c:	e0bf9717 	ldw	r2,-420(fp)
   40960:	1085883a 	add	r2,r2,r2
   40964:	1085883a 	add	r2,r2,r2
   40968:	e17f9704 	addi	r5,fp,-420
   4096c:	2885883a 	add	r2,r5,r2
   40970:	10802904 	addi	r2,r2,164
   40974:	11000017 	ldw	r4,0(r2)
   40978:	e0bf9717 	ldw	r2,-420(fp)
   4097c:	1085883a 	add	r2,r2,r2
   40980:	1085883a 	add	r2,r2,r2
   40984:	e17f9704 	addi	r5,fp,-420
   40988:	2885883a 	add	r2,r5,r2
   4098c:	10804904 	addi	r2,r2,292
   40990:	10800017 	ldw	r2,0(r2)
  printf("Validating the CRC results from all implementations\n");
  printf("----------------------------------------------------\n");
  for(buffer_counter = 0; buffer_counter < NUMBER_OF_BUFFERS; buffer_counter++)
  {
    /* Test every combination of results to make sure they are consistant */
    if((sw_slow_results[buffer_counter] != ci_results[buffer_counter]) | 
   40994:	2084c03a 	cmpne	r2,r4,r2
   40998:	1884b03a 	or	r2,r3,r2
   4099c:	10803fcc 	andi	r2,r2,255
   409a0:	10001c26 	beq	r2,zero,40a14 <main+0x428>
       (sw_fast_results[buffer_counter] != ci_results[buffer_counter]))
    {
      printf("FAILURE!  Software CRC = 0x%lx, Optimized Software CRC = 0x%lx, Custom Instruction CRC = 0x%lx,\n",
   409a4:	e0bf9717 	ldw	r2,-420(fp)
   409a8:	1085883a 	add	r2,r2,r2
   409ac:	1085883a 	add	r2,r2,r2
   409b0:	e0ff9704 	addi	r3,fp,-420
   409b4:	1885883a 	add	r2,r3,r2
   409b8:	10800904 	addi	r2,r2,36
   409bc:	11400017 	ldw	r5,0(r2)
   409c0:	e0bf9717 	ldw	r2,-420(fp)
   409c4:	1085883a 	add	r2,r2,r2
   409c8:	1085883a 	add	r2,r2,r2
   409cc:	e13f9704 	addi	r4,fp,-420
   409d0:	2085883a 	add	r2,r4,r2
   409d4:	10802904 	addi	r2,r2,164
   409d8:	10c00017 	ldw	r3,0(r2)
   409dc:	e0bf9717 	ldw	r2,-420(fp)
   409e0:	1085883a 	add	r2,r2,r2
   409e4:	1085883a 	add	r2,r2,r2
   409e8:	e13f9704 	addi	r4,fp,-420
   409ec:	2085883a 	add	r2,r4,r2
   409f0:	10804904 	addi	r2,r2,292
   409f4:	10800017 	ldw	r2,0(r2)
   409f8:	01000174 	movhi	r4,5
   409fc:	21343d04 	addi	r4,r4,-12044
   40a00:	180d883a 	mov	r6,r3
   40a04:	100f883a 	mov	r7,r2
   40a08:	0040e8c0 	call	40e8c <printf>
      sw_slow_results[buffer_counter], sw_fast_results[buffer_counter], ci_results[buffer_counter]);       
      exit(1);     
   40a0c:	01000044 	movi	r4,1
   40a10:	0040e280 	call	40e28 <exit>
  printf("Completed\n\n\n");

  /* Validation of results */  
  printf("Validating the CRC results from all implementations\n");
  printf("----------------------------------------------------\n");
  for(buffer_counter = 0; buffer_counter < NUMBER_OF_BUFFERS; buffer_counter++)
   40a14:	e0bf9717 	ldw	r2,-420(fp)
   40a18:	10800044 	addi	r2,r2,1
   40a1c:	e0bf9715 	stw	r2,-420(fp)
   40a20:	e0bf9717 	ldw	r2,-420(fp)
   40a24:	10800830 	cmpltui	r2,r2,32
   40a28:	103fbc1e 	bne	r2,zero,4091c <main+0x330>
      printf("FAILURE!  Software CRC = 0x%lx, Optimized Software CRC = 0x%lx, Custom Instruction CRC = 0x%lx,\n",
      sw_slow_results[buffer_counter], sw_fast_results[buffer_counter], ci_results[buffer_counter]);       
      exit(1);     
    }
  }
  printf("All CRC implementations produced the same results\n\n\n");
   40a2c:	01000174 	movhi	r4,5
   40a30:	21345604 	addi	r4,r4,-11944
   40a34:	0040f4c0 	call	40f4c <puts>


  // Report processing times
  printf("Processing time for each implementation\n");
   40a38:	01000174 	movhi	r4,5
   40a3c:	21346304 	addi	r4,r4,-11892
   40a40:	0040f4c0 	call	40f4c <puts>
  printf("---------------------------------------\n");
   40a44:	01000174 	movhi	r4,5
   40a48:	21346d04 	addi	r4,r4,-11852
   40a4c:	0040f4c0 	call	40f4c <puts>
  printf("Software CRC = %.2lu ms\n", 1000*((unsigned long)(sw_slow_timeB-sw_slow_timeA))/((unsigned long)alt_timestamp_freq()));
   40a50:	e0ff9b17 	ldw	r3,-404(fp)
   40a54:	e0bf9a17 	ldw	r2,-408(fp)
   40a58:	1885c83a 	sub	r2,r3,r2
   40a5c:	1009883a 	mov	r4,r2
   40a60:	0140fa04 	movi	r5,1000
   40a64:	0040e000 	call	40e00 <__mulsi3>
   40a68:	1021883a 	mov	r16,r2
   40a6c:	004bcfc0 	call	4bcfc <alt_timestamp_freq>
   40a70:	8009883a 	mov	r4,r16
   40a74:	100b883a 	mov	r5,r2
   40a78:	0040df00 	call	40df0 <__udivsi3>
   40a7c:	01000174 	movhi	r4,5
   40a80:	21347704 	addi	r4,r4,-11812
   40a84:	100b883a 	mov	r5,r2
   40a88:	0040e8c0 	call	40e8c <printf>
  printf("Optimized software CRC = %.2lu ms\n", 1000*((unsigned long)(sw_fast_timeB-sw_fast_timeA))/((unsigned long)alt_timestamp_freq()));
   40a8c:	e0ff9d17 	ldw	r3,-396(fp)
   40a90:	e0bf9c17 	ldw	r2,-400(fp)
   40a94:	1885c83a 	sub	r2,r3,r2
   40a98:	1009883a 	mov	r4,r2
   40a9c:	0140fa04 	movi	r5,1000
   40aa0:	0040e000 	call	40e00 <__mulsi3>
   40aa4:	1021883a 	mov	r16,r2
   40aa8:	004bcfc0 	call	4bcfc <alt_timestamp_freq>
   40aac:	8009883a 	mov	r4,r16
   40ab0:	100b883a 	mov	r5,r2
   40ab4:	0040df00 	call	40df0 <__udivsi3>
   40ab8:	01000174 	movhi	r4,5
   40abc:	21347e04 	addi	r4,r4,-11784
   40ac0:	100b883a 	mov	r5,r2
   40ac4:	0040e8c0 	call	40e8c <printf>
  printf("Custom instruction CRC = %.2lu ms\n\n\n", 1000*((unsigned long)(ci_timeB-ci_timeA))/((unsigned long)alt_timestamp_freq()));
   40ac8:	e0ff9f17 	ldw	r3,-388(fp)
   40acc:	e0bf9e17 	ldw	r2,-392(fp)
   40ad0:	1885c83a 	sub	r2,r3,r2
   40ad4:	1009883a 	mov	r4,r2
   40ad8:	0140fa04 	movi	r5,1000
   40adc:	0040e000 	call	40e00 <__mulsi3>
   40ae0:	1021883a 	mov	r16,r2
   40ae4:	004bcfc0 	call	4bcfc <alt_timestamp_freq>
   40ae8:	8009883a 	mov	r4,r16
   40aec:	100b883a 	mov	r5,r2
   40af0:	0040df00 	call	40df0 <__udivsi3>
   40af4:	01000174 	movhi	r4,5
   40af8:	21348704 	addi	r4,r4,-11748
   40afc:	100b883a 	mov	r5,r2
   40b00:	0040e8c0 	call	40e8c <printf>

  printf("Processing throughput for each implementation\n"); // throughput = total bits / (time(s) * 1000000)
   40b04:	01000174 	movhi	r4,5
   40b08:	21349104 	addi	r4,r4,-11708
   40b0c:	0040f4c0 	call	40f4c <puts>
  printf("---------------------------------------------\n");
   40b10:	01000174 	movhi	r4,5
   40b14:	21349d04 	addi	r4,r4,-11660
   40b18:	0040f4c0 	call	40f4c <puts>
  printf("Software CRC = %.2lu Mbps\n", (8 * NUMBER_OF_BUFFERS * BUFFER_SIZE)/(1000000*(unsigned long)(sw_slow_timeB-sw_slow_timeA)/((unsigned long)alt_timestamp_freq())));
   40b1c:	e0ff9b17 	ldw	r3,-404(fp)
   40b20:	e0bf9a17 	ldw	r2,-408(fp)
   40b24:	1885c83a 	sub	r2,r3,r2
   40b28:	1009883a 	mov	r4,r2
   40b2c:	014003f4 	movhi	r5,15
   40b30:	29509004 	addi	r5,r5,16960
   40b34:	0040e000 	call	40e00 <__mulsi3>
   40b38:	1021883a 	mov	r16,r2
   40b3c:	004bcfc0 	call	4bcfc <alt_timestamp_freq>
   40b40:	8009883a 	mov	r4,r16
   40b44:	100b883a 	mov	r5,r2
   40b48:	0040df00 	call	40df0 <__udivsi3>
   40b4c:	01000074 	movhi	r4,1
   40b50:	100b883a 	mov	r5,r2
   40b54:	0040df00 	call	40df0 <__udivsi3>
   40b58:	01000174 	movhi	r4,5
   40b5c:	2134a904 	addi	r4,r4,-11612
   40b60:	100b883a 	mov	r5,r2
   40b64:	0040e8c0 	call	40e8c <printf>
  printf("Optimized software CRC = %.2lu Mbps\n", (8 * NUMBER_OF_BUFFERS * BUFFER_SIZE)/(1000000*(unsigned long)(sw_fast_timeB-sw_fast_timeA)/((unsigned long)alt_timestamp_freq())));
   40b68:	e0ff9d17 	ldw	r3,-396(fp)
   40b6c:	e0bf9c17 	ldw	r2,-400(fp)
   40b70:	1885c83a 	sub	r2,r3,r2
   40b74:	1009883a 	mov	r4,r2
   40b78:	014003f4 	movhi	r5,15
   40b7c:	29509004 	addi	r5,r5,16960
   40b80:	0040e000 	call	40e00 <__mulsi3>
   40b84:	1021883a 	mov	r16,r2
   40b88:	004bcfc0 	call	4bcfc <alt_timestamp_freq>
   40b8c:	8009883a 	mov	r4,r16
   40b90:	100b883a 	mov	r5,r2
   40b94:	0040df00 	call	40df0 <__udivsi3>
   40b98:	01000074 	movhi	r4,1
   40b9c:	100b883a 	mov	r5,r2
   40ba0:	0040df00 	call	40df0 <__udivsi3>
   40ba4:	01000174 	movhi	r4,5
   40ba8:	2134b004 	addi	r4,r4,-11584
   40bac:	100b883a 	mov	r5,r2
   40bb0:	0040e8c0 	call	40e8c <printf>
  printf("Custom instruction CRC = %.2lu Mbps\n\n\n", (8 * NUMBER_OF_BUFFERS * BUFFER_SIZE)/(1000000*(unsigned long)(ci_timeB-ci_timeA)/((unsigned long)alt_timestamp_freq())));
   40bb4:	e0ff9f17 	ldw	r3,-388(fp)
   40bb8:	e0bf9e17 	ldw	r2,-392(fp)
   40bbc:	1885c83a 	sub	r2,r3,r2
   40bc0:	1009883a 	mov	r4,r2
   40bc4:	014003f4 	movhi	r5,15
   40bc8:	29509004 	addi	r5,r5,16960
   40bcc:	0040e000 	call	40e00 <__mulsi3>
   40bd0:	1021883a 	mov	r16,r2
   40bd4:	004bcfc0 	call	4bcfc <alt_timestamp_freq>
   40bd8:	8009883a 	mov	r4,r16
   40bdc:	100b883a 	mov	r5,r2
   40be0:	0040df00 	call	40df0 <__udivsi3>
   40be4:	01000074 	movhi	r4,1
   40be8:	100b883a 	mov	r5,r2
   40bec:	0040df00 	call	40df0 <__udivsi3>
   40bf0:	01000174 	movhi	r4,5
   40bf4:	2134ba04 	addi	r4,r4,-11544
   40bf8:	100b883a 	mov	r5,r2
   40bfc:	0040e8c0 	call	40e8c <printf>

  printf("Speedup ratio\n");
   40c00:	01000174 	movhi	r4,5
   40c04:	2134c404 	addi	r4,r4,-11504
   40c08:	0040f4c0 	call	40f4c <puts>
  printf("-------------\n");
   40c0c:	01000174 	movhi	r4,5
   40c10:	2134c804 	addi	r4,r4,-11488
   40c14:	0040f4c0 	call	40f4c <puts>
  printf("Custom instruction CRC vs software CRC = %lu\n", ((unsigned long)(sw_slow_timeB-sw_slow_timeA))/((unsigned long)(ci_timeB-ci_timeA)));
   40c18:	e0ff9b17 	ldw	r3,-404(fp)
   40c1c:	e0bf9a17 	ldw	r2,-408(fp)
   40c20:	1887c83a 	sub	r3,r3,r2
   40c24:	e13f9f17 	ldw	r4,-388(fp)
   40c28:	e0bf9e17 	ldw	r2,-392(fp)
   40c2c:	2085c83a 	sub	r2,r4,r2
   40c30:	1809883a 	mov	r4,r3
   40c34:	100b883a 	mov	r5,r2
   40c38:	0040df00 	call	40df0 <__udivsi3>
   40c3c:	01000174 	movhi	r4,5
   40c40:	2134cc04 	addi	r4,r4,-11472
   40c44:	100b883a 	mov	r5,r2
   40c48:	0040e8c0 	call	40e8c <printf>
  printf("Custom instruction CRC vs optimized software CRC = %lu\n", ((unsigned long)(sw_fast_timeB-sw_fast_timeA))/((unsigned long)(ci_timeB-ci_timeA)));
   40c4c:	e0ff9d17 	ldw	r3,-396(fp)
   40c50:	e0bf9c17 	ldw	r2,-400(fp)
   40c54:	1887c83a 	sub	r3,r3,r2
   40c58:	e13f9f17 	ldw	r4,-388(fp)
   40c5c:	e0bf9e17 	ldw	r2,-392(fp)
   40c60:	2085c83a 	sub	r2,r4,r2
   40c64:	1809883a 	mov	r4,r3
   40c68:	100b883a 	mov	r5,r2
   40c6c:	0040df00 	call	40df0 <__udivsi3>
   40c70:	01000174 	movhi	r4,5
   40c74:	2134d804 	addi	r4,r4,-11424
   40c78:	100b883a 	mov	r5,r2
   40c7c:	0040e8c0 	call	40e8c <printf>
  printf("Optimized software CRC vs software CRC= %lu\n", ((unsigned long)(sw_slow_timeB-sw_slow_timeA))/((unsigned long)(sw_fast_timeB-sw_fast_timeA)));
   40c80:	e0ff9b17 	ldw	r3,-404(fp)
   40c84:	e0bf9a17 	ldw	r2,-408(fp)
   40c88:	1887c83a 	sub	r3,r3,r2
   40c8c:	e13f9d17 	ldw	r4,-396(fp)
   40c90:	e0bf9c17 	ldw	r2,-400(fp)
   40c94:	2085c83a 	sub	r2,r4,r2
   40c98:	1809883a 	mov	r4,r3
   40c9c:	100b883a 	mov	r5,r2
   40ca0:	0040df00 	call	40df0 <__udivsi3>
   40ca4:	01000174 	movhi	r4,5
   40ca8:	2134e604 	addi	r4,r4,-11368
   40cac:	100b883a 	mov	r5,r2
   40cb0:	0040e8c0 	call	40e8c <printf>
  return 0;
   40cb4:	0005883a 	mov	r2,zero
}
   40cb8:	e037883a 	mov	sp,fp
   40cbc:	dfc00217 	ldw	ra,8(sp)
   40cc0:	df000117 	ldw	fp,4(sp)
   40cc4:	dc000017 	ldw	r16,0(sp)
   40cc8:	dec00304 	addi	sp,sp,12
   40ccc:	f800283a 	ret

00040cd0 <udivmodsi4>:
   40cd0:	2005883a 	mov	r2,r4
   40cd4:	2900182e 	bgeu	r5,r4,40d38 <udivmodsi4+0x68>
   40cd8:	28001716 	blt	r5,zero,40d38 <udivmodsi4+0x68>
   40cdc:	01000804 	movi	r4,32
   40ce0:	00c00044 	movi	r3,1
   40ce4:	00000206 	br	40cf0 <udivmodsi4+0x20>
   40ce8:	20001126 	beq	r4,zero,40d30 <udivmodsi4+0x60>
   40cec:	28000516 	blt	r5,zero,40d04 <udivmodsi4+0x34>
   40cf0:	294b883a 	add	r5,r5,r5
   40cf4:	213fffc4 	addi	r4,r4,-1
   40cf8:	18c7883a 	add	r3,r3,r3
   40cfc:	28bffa36 	bltu	r5,r2,40ce8 <udivmodsi4+0x18>
   40d00:	18000b26 	beq	r3,zero,40d30 <udivmodsi4+0x60>
   40d04:	0009883a 	mov	r4,zero
   40d08:	11400236 	bltu	r2,r5,40d14 <udivmodsi4+0x44>
   40d0c:	1145c83a 	sub	r2,r2,r5
   40d10:	20c8b03a 	or	r4,r4,r3
   40d14:	1806d07a 	srli	r3,r3,1
   40d18:	280ad07a 	srli	r5,r5,1
   40d1c:	183ffa1e 	bne	r3,zero,40d08 <udivmodsi4+0x38>
   40d20:	3000021e 	bne	r6,zero,40d2c <udivmodsi4+0x5c>
   40d24:	2005883a 	mov	r2,r4
   40d28:	f800283a 	ret
   40d2c:	f800283a 	ret
   40d30:	0009883a 	mov	r4,zero
   40d34:	003ffa06 	br	40d20 <udivmodsi4+0x50>
   40d38:	00c00044 	movi	r3,1
   40d3c:	0009883a 	mov	r4,zero
   40d40:	003ff106 	br	40d08 <udivmodsi4+0x38>

00040d44 <__divsi3>:
   40d44:	defffe04 	addi	sp,sp,-8
   40d48:	dfc00115 	stw	ra,4(sp)
   40d4c:	dc000015 	stw	r16,0(sp)
   40d50:	20000a16 	blt	r4,zero,40d7c <__divsi3+0x38>
   40d54:	0021883a 	mov	r16,zero
   40d58:	28000b16 	blt	r5,zero,40d88 <__divsi3+0x44>
   40d5c:	000d883a 	mov	r6,zero
   40d60:	0040cd00 	call	40cd0 <udivmodsi4>
   40d64:	80000126 	beq	r16,zero,40d6c <__divsi3+0x28>
   40d68:	0085c83a 	sub	r2,zero,r2
   40d6c:	dfc00117 	ldw	ra,4(sp)
   40d70:	dc000017 	ldw	r16,0(sp)
   40d74:	dec00204 	addi	sp,sp,8
   40d78:	f800283a 	ret
   40d7c:	0109c83a 	sub	r4,zero,r4
   40d80:	04000044 	movi	r16,1
   40d84:	283ff50e 	bge	r5,zero,40d5c <__divsi3+0x18>
   40d88:	014bc83a 	sub	r5,zero,r5
   40d8c:	8400005c 	xori	r16,r16,1
   40d90:	003ff206 	br	40d5c <__divsi3+0x18>

00040d94 <__modsi3>:
   40d94:	deffff04 	addi	sp,sp,-4
   40d98:	dfc00015 	stw	ra,0(sp)
   40d9c:	20000516 	blt	r4,zero,40db4 <__modsi3+0x20>
   40da0:	28000c16 	blt	r5,zero,40dd4 <__modsi3+0x40>
   40da4:	01800044 	movi	r6,1
   40da8:	dfc00017 	ldw	ra,0(sp)
   40dac:	dec00104 	addi	sp,sp,4
   40db0:	0040cd01 	jmpi	40cd0 <udivmodsi4>
   40db4:	0109c83a 	sub	r4,zero,r4
   40db8:	28000b16 	blt	r5,zero,40de8 <__modsi3+0x54>
   40dbc:	01800044 	movi	r6,1
   40dc0:	0040cd00 	call	40cd0 <udivmodsi4>
   40dc4:	0085c83a 	sub	r2,zero,r2
   40dc8:	dfc00017 	ldw	ra,0(sp)
   40dcc:	dec00104 	addi	sp,sp,4
   40dd0:	f800283a 	ret
   40dd4:	014bc83a 	sub	r5,zero,r5
   40dd8:	01800044 	movi	r6,1
   40ddc:	dfc00017 	ldw	ra,0(sp)
   40de0:	dec00104 	addi	sp,sp,4
   40de4:	0040cd01 	jmpi	40cd0 <udivmodsi4>
   40de8:	014bc83a 	sub	r5,zero,r5
   40dec:	003ff306 	br	40dbc <__modsi3+0x28>

00040df0 <__udivsi3>:
   40df0:	000d883a 	mov	r6,zero
   40df4:	0040cd01 	jmpi	40cd0 <udivmodsi4>

00040df8 <__umodsi3>:
   40df8:	01800044 	movi	r6,1
   40dfc:	0040cd01 	jmpi	40cd0 <udivmodsi4>

00040e00 <__mulsi3>:
   40e00:	0005883a 	mov	r2,zero
   40e04:	20000726 	beq	r4,zero,40e24 <__mulsi3+0x24>
   40e08:	20c0004c 	andi	r3,r4,1
   40e0c:	2008d07a 	srli	r4,r4,1
   40e10:	18000126 	beq	r3,zero,40e18 <__mulsi3+0x18>
   40e14:	1145883a 	add	r2,r2,r5
   40e18:	294b883a 	add	r5,r5,r5
   40e1c:	203ffa1e 	bne	r4,zero,40e08 <__mulsi3+0x8>
   40e20:	f800283a 	ret
   40e24:	f800283a 	ret

00040e28 <exit>:
   40e28:	defffe04 	addi	sp,sp,-8
   40e2c:	000b883a 	mov	r5,zero
   40e30:	dc000015 	stw	r16,0(sp)
   40e34:	dfc00115 	stw	ra,4(sp)
   40e38:	2021883a 	mov	r16,r4
   40e3c:	00430340 	call	43034 <__call_exitprocs>
   40e40:	00800174 	movhi	r2,5
   40e44:	10bc4104 	addi	r2,r2,-3836
   40e48:	11000017 	ldw	r4,0(r2)
   40e4c:	20800f17 	ldw	r2,60(r4)
   40e50:	10000126 	beq	r2,zero,40e58 <exit+0x30>
   40e54:	103ee83a 	callr	r2
   40e58:	8009883a 	mov	r4,r16
   40e5c:	004a6ec0 	call	4a6ec <_exit>

00040e60 <_printf_r>:
   40e60:	defffd04 	addi	sp,sp,-12
   40e64:	dfc00015 	stw	ra,0(sp)
   40e68:	d9800115 	stw	r6,4(sp)
   40e6c:	d9c00215 	stw	r7,8(sp)
   40e70:	280d883a 	mov	r6,r5
   40e74:	21400217 	ldw	r5,8(r4)
   40e78:	d9c00104 	addi	r7,sp,4
   40e7c:	00410200 	call	41020 <___vfprintf_internal_r>
   40e80:	dfc00017 	ldw	ra,0(sp)
   40e84:	dec00304 	addi	sp,sp,12
   40e88:	f800283a 	ret

00040e8c <printf>:
   40e8c:	defffc04 	addi	sp,sp,-16
   40e90:	dfc00015 	stw	ra,0(sp)
   40e94:	d9400115 	stw	r5,4(sp)
   40e98:	d9800215 	stw	r6,8(sp)
   40e9c:	d9c00315 	stw	r7,12(sp)
   40ea0:	00800174 	movhi	r2,5
   40ea4:	10bc4204 	addi	r2,r2,-3832
   40ea8:	10800017 	ldw	r2,0(r2)
   40eac:	200b883a 	mov	r5,r4
   40eb0:	d9800104 	addi	r6,sp,4
   40eb4:	11000217 	ldw	r4,8(r2)
   40eb8:	0042e9c0 	call	42e9c <__vfprintf_internal>
   40ebc:	dfc00017 	ldw	ra,0(sp)
   40ec0:	dec00404 	addi	sp,sp,16
   40ec4:	f800283a 	ret

00040ec8 <_puts_r>:
   40ec8:	defff604 	addi	sp,sp,-40
   40ecc:	dc400815 	stw	r17,32(sp)
   40ed0:	2023883a 	mov	r17,r4
   40ed4:	2809883a 	mov	r4,r5
   40ed8:	dc000715 	stw	r16,28(sp)
   40edc:	dfc00915 	stw	ra,36(sp)
   40ee0:	2821883a 	mov	r16,r5
   40ee4:	0040f600 	call	40f60 <strlen>
   40ee8:	10c00044 	addi	r3,r2,1
   40eec:	d8800115 	stw	r2,4(sp)
   40ef0:	89400217 	ldw	r5,8(r17)
   40ef4:	00800174 	movhi	r2,5
   40ef8:	10b4f304 	addi	r2,r2,-11316
   40efc:	d8800215 	stw	r2,8(sp)
   40f00:	00800044 	movi	r2,1
   40f04:	d8800315 	stw	r2,12(sp)
   40f08:	8809883a 	mov	r4,r17
   40f0c:	00800084 	movi	r2,2
   40f10:	d9800404 	addi	r6,sp,16
   40f14:	dc000015 	stw	r16,0(sp)
   40f18:	d8c00615 	stw	r3,24(sp)
   40f1c:	dec00415 	stw	sp,16(sp)
   40f20:	d8800515 	stw	r2,20(sp)
   40f24:	004533c0 	call	4533c <__sfvwrite_r>
   40f28:	1000061e 	bne	r2,zero,40f44 <_puts_r+0x7c>
   40f2c:	00800284 	movi	r2,10
   40f30:	dfc00917 	ldw	ra,36(sp)
   40f34:	dc400817 	ldw	r17,32(sp)
   40f38:	dc000717 	ldw	r16,28(sp)
   40f3c:	dec00a04 	addi	sp,sp,40
   40f40:	f800283a 	ret
   40f44:	00bfffc4 	movi	r2,-1
   40f48:	003ff906 	br	40f30 <_puts_r+0x68>

00040f4c <puts>:
   40f4c:	00800174 	movhi	r2,5
   40f50:	10bc4204 	addi	r2,r2,-3832
   40f54:	200b883a 	mov	r5,r4
   40f58:	11000017 	ldw	r4,0(r2)
   40f5c:	0040ec81 	jmpi	40ec8 <_puts_r>

00040f60 <strlen>:
   40f60:	208000cc 	andi	r2,r4,3
   40f64:	10001f1e 	bne	r2,zero,40fe4 <strlen+0x84>
   40f68:	20800017 	ldw	r2,0(r4)
   40f6c:	01ffbff4 	movhi	r7,65279
   40f70:	39ffbfc4 	addi	r7,r7,-257
   40f74:	01a02074 	movhi	r6,32897
   40f78:	31a02004 	addi	r6,r6,-32640
   40f7c:	11c7883a 	add	r3,r2,r7
   40f80:	0084303a 	nor	r2,zero,r2
   40f84:	1886703a 	and	r3,r3,r2
   40f88:	1986703a 	and	r3,r3,r6
   40f8c:	2005883a 	mov	r2,r4
   40f90:	1800101e 	bne	r3,zero,40fd4 <strlen+0x74>
   40f94:	10800104 	addi	r2,r2,4
   40f98:	10c00017 	ldw	r3,0(r2)
   40f9c:	19cb883a 	add	r5,r3,r7
   40fa0:	00c6303a 	nor	r3,zero,r3
   40fa4:	28c6703a 	and	r3,r5,r3
   40fa8:	1986703a 	and	r3,r3,r6
   40fac:	1800091e 	bne	r3,zero,40fd4 <strlen+0x74>
   40fb0:	10800104 	addi	r2,r2,4
   40fb4:	10c00017 	ldw	r3,0(r2)
   40fb8:	19cb883a 	add	r5,r3,r7
   40fbc:	00c6303a 	nor	r3,zero,r3
   40fc0:	28c6703a 	and	r3,r5,r3
   40fc4:	1986703a 	and	r3,r3,r6
   40fc8:	183ff226 	beq	r3,zero,40f94 <strlen+0x34>
   40fcc:	00000106 	br	40fd4 <strlen+0x74>
   40fd0:	10800044 	addi	r2,r2,1
   40fd4:	10c00007 	ldb	r3,0(r2)
   40fd8:	183ffd1e 	bne	r3,zero,40fd0 <strlen+0x70>
   40fdc:	1105c83a 	sub	r2,r2,r4
   40fe0:	f800283a 	ret
   40fe4:	2005883a 	mov	r2,r4
   40fe8:	003ffa06 	br	40fd4 <strlen+0x74>

00040fec <__sprint_r>:
   40fec:	30800217 	ldw	r2,8(r6)
   40ff0:	defffe04 	addi	sp,sp,-8
   40ff4:	dc000015 	stw	r16,0(sp)
   40ff8:	dfc00115 	stw	ra,4(sp)
   40ffc:	3021883a 	mov	r16,r6
   41000:	10000226 	beq	r2,zero,4100c <__sprint_r+0x20>
   41004:	004533c0 	call	4533c <__sfvwrite_r>
   41008:	80000215 	stw	zero,8(r16)
   4100c:	80000115 	stw	zero,4(r16)
   41010:	dfc00117 	ldw	ra,4(sp)
   41014:	dc000017 	ldw	r16,0(sp)
   41018:	dec00204 	addi	sp,sp,8
   4101c:	f800283a 	ret

00041020 <___vfprintf_internal_r>:
   41020:	defeb904 	addi	sp,sp,-1308
   41024:	dc013d15 	stw	r16,1268(sp)
   41028:	d9013015 	stw	r4,1216(sp)
   4102c:	dfc14615 	stw	ra,1304(sp)
   41030:	df014515 	stw	fp,1300(sp)
   41034:	ddc14415 	stw	r23,1296(sp)
   41038:	dd814315 	stw	r22,1292(sp)
   4103c:	dd414215 	stw	r21,1288(sp)
   41040:	dd014115 	stw	r20,1284(sp)
   41044:	dcc14015 	stw	r19,1280(sp)
   41048:	dc813f15 	stw	r18,1276(sp)
   4104c:	dc413e15 	stw	r17,1272(sp)
   41050:	d9412915 	stw	r5,1188(sp)
   41054:	3021883a 	mov	r16,r6
   41058:	d9c12d15 	stw	r7,1204(sp)
   4105c:	0045a280 	call	45a28 <_localeconv_r>
   41060:	10800017 	ldw	r2,0(r2)
   41064:	d9013017 	ldw	r4,1216(sp)
   41068:	d8013315 	stw	zero,1228(sp)
   4106c:	d8813715 	stw	r2,1244(sp)
   41070:	d8013415 	stw	zero,1232(sp)
   41074:	20000226 	beq	r4,zero,41080 <___vfprintf_internal_r+0x60>
   41078:	20800e17 	ldw	r2,56(r4)
   4107c:	10014b26 	beq	r2,zero,415ac <___vfprintf_internal_r+0x58c>
   41080:	d8c12917 	ldw	r3,1188(sp)
   41084:	1880030b 	ldhu	r2,12(r3)
   41088:	10c0020c 	andi	r3,r2,8
   4108c:	18ffffcc 	andi	r3,r3,65535
   41090:	18e0001c 	xori	r3,r3,32768
   41094:	18e00004 	addi	r3,r3,-32768
   41098:	1800ed26 	beq	r3,zero,41450 <___vfprintf_internal_r+0x430>
   4109c:	d9012917 	ldw	r4,1188(sp)
   410a0:	20c00417 	ldw	r3,16(r4)
   410a4:	1800ea26 	beq	r3,zero,41450 <___vfprintf_internal_r+0x430>
   410a8:	1100068c 	andi	r4,r2,26
   410ac:	00c00284 	movi	r3,10
   410b0:	20c0f026 	beq	r4,r3,41474 <___vfprintf_internal_r+0x454>
   410b4:	d9010dc4 	addi	r4,sp,1079
   410b8:	d8810e04 	addi	r2,sp,1080
   410bc:	dc413017 	ldw	r17,1216(sp)
   410c0:	d8c00404 	addi	r3,sp,16
   410c4:	d9012615 	stw	r4,1176(sp)
   410c8:	1109c83a 	sub	r4,r2,r4
   410cc:	d8812715 	stw	r2,1180(sp)
   410d0:	d8c11b15 	stw	r3,1132(sp)
   410d4:	d8011d15 	stw	zero,1140(sp)
   410d8:	d8011c15 	stw	zero,1136(sp)
   410dc:	802b883a 	mov	r21,r16
   410e0:	d8013215 	stw	zero,1224(sp)
   410e4:	d8013615 	stw	zero,1240(sp)
   410e8:	d8013515 	stw	zero,1236(sp)
   410ec:	d8012c15 	stw	zero,1200(sp)
   410f0:	1813883a 	mov	r9,r3
   410f4:	d9013915 	stw	r4,1252(sp)
   410f8:	a8800007 	ldb	r2,0(r21)
   410fc:	1002f326 	beq	r2,zero,41ccc <___vfprintf_internal_r+0xcac>
   41100:	00c00944 	movi	r3,37
   41104:	a825883a 	mov	r18,r21
   41108:	10c0021e 	bne	r2,r3,41114 <___vfprintf_internal_r+0xf4>
   4110c:	00001406 	br	41160 <___vfprintf_internal_r+0x140>
   41110:	10c00326 	beq	r2,r3,41120 <___vfprintf_internal_r+0x100>
   41114:	94800044 	addi	r18,r18,1
   41118:	90800007 	ldb	r2,0(r18)
   4111c:	103ffc1e 	bne	r2,zero,41110 <___vfprintf_internal_r+0xf0>
   41120:	9561c83a 	sub	r16,r18,r21
   41124:	80000e26 	beq	r16,zero,41160 <___vfprintf_internal_r+0x140>
   41128:	da011d17 	ldw	r8,1140(sp)
   4112c:	d8c11c17 	ldw	r3,1136(sp)
   41130:	4d400015 	stw	r21,0(r9)
   41134:	4c000115 	stw	r16,4(r9)
   41138:	4411883a 	add	r8,r8,r16
   4113c:	18c00044 	addi	r3,r3,1
   41140:	da011d15 	stw	r8,1140(sp)
   41144:	d8c11c15 	stw	r3,1136(sp)
   41148:	008001c4 	movi	r2,7
   4114c:	10c11016 	blt	r2,r3,41590 <___vfprintf_internal_r+0x570>
   41150:	4a400204 	addi	r9,r9,8
   41154:	d8812c17 	ldw	r2,1200(sp)
   41158:	1405883a 	add	r2,r2,r16
   4115c:	d8812c15 	stw	r2,1200(sp)
   41160:	90800007 	ldb	r2,0(r18)
   41164:	1000ee26 	beq	r2,zero,41520 <___vfprintf_internal_r+0x500>
   41168:	95400044 	addi	r21,r18,1
   4116c:	94800047 	ldb	r18,1(r18)
   41170:	073fffc4 	movi	fp,-1
   41174:	e007883a 	mov	r3,fp
   41178:	d8012585 	stb	zero,1174(sp)
   4117c:	d8012e15 	stw	zero,1208(sp)
   41180:	0021883a 	mov	r16,zero
   41184:	05001604 	movi	r20,88
   41188:	04c00244 	movi	r19,9
   4118c:	4839883a 	mov	fp,r9
   41190:	ad400044 	addi	r21,r21,1
   41194:	90bff804 	addi	r2,r18,-32
   41198:	a080462e 	bgeu	r20,r2,412b4 <___vfprintf_internal_r+0x294>
   4119c:	e013883a 	mov	r9,fp
   411a0:	9000df26 	beq	r18,zero,41520 <___vfprintf_internal_r+0x500>
   411a4:	00c00044 	movi	r3,1
   411a8:	d8c12815 	stw	r3,1184(sp)
   411ac:	dc810405 	stb	r18,1040(sp)
   411b0:	d8012585 	stb	zero,1174(sp)
   411b4:	d8c12b15 	stw	r3,1196(sp)
   411b8:	dcc10404 	addi	r19,sp,1040
   411bc:	d8013115 	stw	zero,1220(sp)
   411c0:	80c0008c 	andi	r3,r16,2
   411c4:	d8c12a15 	stw	r3,1192(sp)
   411c8:	18000326 	beq	r3,zero,411d8 <___vfprintf_internal_r+0x1b8>
   411cc:	d8c12817 	ldw	r3,1184(sp)
   411d0:	18c00084 	addi	r3,r3,2
   411d4:	d8c12815 	stw	r3,1184(sp)
   411d8:	80c0210c 	andi	r3,r16,132
   411dc:	d8c12f15 	stw	r3,1212(sp)
   411e0:	1802251e 	bne	r3,zero,41a78 <___vfprintf_internal_r+0xa58>
   411e4:	d9012e17 	ldw	r4,1208(sp)
   411e8:	d8c12817 	ldw	r3,1184(sp)
   411ec:	20edc83a 	sub	r22,r4,r3
   411f0:	0582210e 	bge	zero,r22,41a78 <___vfprintf_internal_r+0xa58>
   411f4:	02800404 	movi	r10,16
   411f8:	da011d17 	ldw	r8,1140(sp)
   411fc:	d8c11c17 	ldw	r3,1136(sp)
   41200:	05c00174 	movhi	r23,5
   41204:	bdf50484 	addi	r23,r23,-11246
   41208:	5580200e 	bge	r10,r22,4128c <___vfprintf_internal_r+0x26c>
   4120c:	dc813815 	stw	r18,1248(sp)
   41210:	5039883a 	mov	fp,r10
   41214:	b825883a 	mov	r18,r23
   41218:	050001c4 	movi	r20,7
   4121c:	b02f883a 	mov	r23,r22
   41220:	802d883a 	mov	r22,r16
   41224:	dc012917 	ldw	r16,1188(sp)
   41228:	00000306 	br	41238 <___vfprintf_internal_r+0x218>
   4122c:	bdfffc04 	addi	r23,r23,-16
   41230:	4a400204 	addi	r9,r9,8
   41234:	e5c0110e 	bge	fp,r23,4127c <___vfprintf_internal_r+0x25c>
   41238:	4c800015 	stw	r18,0(r9)
   4123c:	4f000115 	stw	fp,4(r9)
   41240:	42000404 	addi	r8,r8,16
   41244:	18c00044 	addi	r3,r3,1
   41248:	da011d15 	stw	r8,1140(sp)
   4124c:	d8c11c15 	stw	r3,1136(sp)
   41250:	a0fff60e 	bge	r20,r3,4122c <___vfprintf_internal_r+0x20c>
   41254:	8809883a 	mov	r4,r17
   41258:	800b883a 	mov	r5,r16
   4125c:	d9811b04 	addi	r6,sp,1132
   41260:	0040fec0 	call	40fec <__sprint_r>
   41264:	1000b41e 	bne	r2,zero,41538 <___vfprintf_internal_r+0x518>
   41268:	bdfffc04 	addi	r23,r23,-16
   4126c:	da011d17 	ldw	r8,1140(sp)
   41270:	d8c11c17 	ldw	r3,1136(sp)
   41274:	da400404 	addi	r9,sp,16
   41278:	e5ffef16 	blt	fp,r23,41238 <___vfprintf_internal_r+0x218>
   4127c:	b021883a 	mov	r16,r22
   41280:	b82d883a 	mov	r22,r23
   41284:	902f883a 	mov	r23,r18
   41288:	dc813817 	ldw	r18,1248(sp)
   4128c:	4dc00015 	stw	r23,0(r9)
   41290:	4d800115 	stw	r22,4(r9)
   41294:	4591883a 	add	r8,r8,r22
   41298:	18c00044 	addi	r3,r3,1
   4129c:	da011d15 	stw	r8,1140(sp)
   412a0:	d8c11c15 	stw	r3,1136(sp)
   412a4:	008001c4 	movi	r2,7
   412a8:	10c3fe16 	blt	r2,r3,422a4 <___vfprintf_internal_r+0x1284>
   412ac:	4a400204 	addi	r9,r9,8
   412b0:	0001f306 	br	41a80 <___vfprintf_internal_r+0xa60>
   412b4:	1085883a 	add	r2,r2,r2
   412b8:	1085883a 	add	r2,r2,r2
   412bc:	01000134 	movhi	r4,4
   412c0:	2104b404 	addi	r4,r4,4816
   412c4:	1105883a 	add	r2,r2,r4
   412c8:	10800017 	ldw	r2,0(r2)
   412cc:	1000683a 	jmp	r2
   412d0:	000419ac 	andhi	zero,zero,4198
   412d4:	0004119c 	xori	zero,zero,4166
   412d8:	0004119c 	xori	zero,zero,4166
   412dc:	000419c4 	movi	zero,4199
   412e0:	0004119c 	xori	zero,zero,4166
   412e4:	0004119c 	xori	zero,zero,4166
   412e8:	0004119c 	xori	zero,zero,4166
   412ec:	0004119c 	xori	zero,zero,4166
   412f0:	0004119c 	xori	zero,zero,4166
   412f4:	0004119c 	xori	zero,zero,4166
   412f8:	0004187c 	xorhi	zero,zero,4193
   412fc:	00041a10 	cmplti	zero,zero,4200
   41300:	0004119c 	xori	zero,zero,4166
   41304:	00041444 	movi	zero,4177
   41308:	000417e4 	muli	zero,zero,4191
   4130c:	0004119c 	xori	zero,zero,4166
   41310:	000419d0 	cmplti	zero,zero,4199
   41314:	000419dc 	xori	zero,zero,4199
   41318:	000419dc 	xori	zero,zero,4199
   4131c:	000419dc 	xori	zero,zero,4199
   41320:	000419dc 	xori	zero,zero,4199
   41324:	000419dc 	xori	zero,zero,4199
   41328:	000419dc 	xori	zero,zero,4199
   4132c:	000419dc 	xori	zero,zero,4199
   41330:	000419dc 	xori	zero,zero,4199
   41334:	000419dc 	xori	zero,zero,4199
   41338:	0004119c 	xori	zero,zero,4166
   4133c:	0004119c 	xori	zero,zero,4166
   41340:	0004119c 	xori	zero,zero,4166
   41344:	0004119c 	xori	zero,zero,4166
   41348:	0004119c 	xori	zero,zero,4166
   4134c:	0004119c 	xori	zero,zero,4166
   41350:	0004119c 	xori	zero,zero,4166
   41354:	0004119c 	xori	zero,zero,4166
   41358:	0004119c 	xori	zero,zero,4166
   4135c:	0004119c 	xori	zero,zero,4166
   41360:	000415b4 	movhi	zero,4182
   41364:	00041674 	movhi	zero,4185
   41368:	0004119c 	xori	zero,zero,4166
   4136c:	00041674 	movhi	zero,4185
   41370:	0004119c 	xori	zero,zero,4166
   41374:	0004119c 	xori	zero,zero,4166
   41378:	0004119c 	xori	zero,zero,4166
   4137c:	0004119c 	xori	zero,zero,4166
   41380:	00041708 	cmpgei	zero,zero,4188
   41384:	0004119c 	xori	zero,zero,4166
   41388:	0004119c 	xori	zero,zero,4166
   4138c:	00041714 	movui	zero,4188
   41390:	0004119c 	xori	zero,zero,4166
   41394:	0004119c 	xori	zero,zero,4166
   41398:	0004119c 	xori	zero,zero,4166
   4139c:	0004119c 	xori	zero,zero,4166
   413a0:	0004119c 	xori	zero,zero,4166
   413a4:	0004174c 	andi	zero,zero,4189
   413a8:	0004119c 	xori	zero,zero,4166
   413ac:	0004119c 	xori	zero,zero,4166
   413b0:	00041788 	cmpgei	zero,zero,4190
   413b4:	0004119c 	xori	zero,zero,4166
   413b8:	0004119c 	xori	zero,zero,4166
   413bc:	0004119c 	xori	zero,zero,4166
   413c0:	0004119c 	xori	zero,zero,4166
   413c4:	0004119c 	xori	zero,zero,4166
   413c8:	0004119c 	xori	zero,zero,4166
   413cc:	0004119c 	xori	zero,zero,4166
   413d0:	0004119c 	xori	zero,zero,4166
   413d4:	0004119c 	xori	zero,zero,4166
   413d8:	0004119c 	xori	zero,zero,4166
   413dc:	00041a20 	cmpeqi	zero,zero,4200
   413e0:	00041a54 	movui	zero,4201
   413e4:	00041674 	movhi	zero,4185
   413e8:	00041674 	movhi	zero,4185
   413ec:	00041674 	movhi	zero,4185
   413f0:	000419a0 	cmpeqi	zero,zero,4198
   413f4:	00041a54 	movui	zero,4201
   413f8:	0004119c 	xori	zero,zero,4166
   413fc:	0004119c 	xori	zero,zero,4166
   41400:	0004182c 	andhi	zero,zero,4192
   41404:	0004119c 	xori	zero,zero,4166
   41408:	00041844 	movi	zero,4193
   4140c:	00041a60 	cmpeqi	zero,zero,4201
   41410:	000418a4 	muli	zero,zero,4194
   41414:	000418f4 	movhi	zero,4195
   41418:	0004119c 	xori	zero,zero,4166
   4141c:	00041900 	call	4190 <__alt_mem_onchip_mem-0x3be70>
   41420:	0004119c 	xori	zero,zero,4166
   41424:	00041a6c 	andhi	zero,zero,4201
   41428:	0004119c 	xori	zero,zero,4166
   4142c:	0004119c 	xori	zero,zero,4166
   41430:	00041964 	muli	zero,zero,4197
   41434:	d9012e17 	ldw	r4,1208(sp)
   41438:	d8812d15 	stw	r2,1204(sp)
   4143c:	0109c83a 	sub	r4,zero,r4
   41440:	d9012e15 	stw	r4,1208(sp)
   41444:	84000114 	ori	r16,r16,4
   41448:	ac800007 	ldb	r18,0(r21)
   4144c:	003f5006 	br	41190 <___vfprintf_internal_r+0x170>
   41450:	d9013017 	ldw	r4,1216(sp)
   41454:	d9412917 	ldw	r5,1188(sp)
   41458:	0042ec00 	call	42ec0 <__swsetup_r>
   4145c:	10003d1e 	bne	r2,zero,41554 <___vfprintf_internal_r+0x534>
   41460:	d8c12917 	ldw	r3,1188(sp)
   41464:	1880030b 	ldhu	r2,12(r3)
   41468:	00c00284 	movi	r3,10
   4146c:	1100068c 	andi	r4,r2,26
   41470:	20ff101e 	bne	r4,r3,410b4 <___vfprintf_internal_r+0x94>
   41474:	d9012917 	ldw	r4,1188(sp)
   41478:	20c0038b 	ldhu	r3,14(r4)
   4147c:	193fffcc 	andi	r4,r3,65535
   41480:	2120001c 	xori	r4,r4,32768
   41484:	21200004 	addi	r4,r4,-32768
   41488:	203f0a16 	blt	r4,zero,410b4 <___vfprintf_internal_r+0x94>
   4148c:	d9012917 	ldw	r4,1188(sp)
   41490:	d9c12d17 	ldw	r7,1204(sp)
   41494:	10bfff4c 	andi	r2,r2,65533
   41498:	22800717 	ldw	r10,28(r4)
   4149c:	22400917 	ldw	r9,36(r4)
   414a0:	d9013017 	ldw	r4,1216(sp)
   414a4:	02010004 	movi	r8,1024
   414a8:	d881070d 	sth	r2,1052(sp)
   414ac:	d9410404 	addi	r5,sp,1040
   414b0:	d8800404 	addi	r2,sp,16
   414b4:	800d883a 	mov	r6,r16
   414b8:	d8c1078d 	sth	r3,1054(sp)
   414bc:	da810b15 	stw	r10,1068(sp)
   414c0:	da410d15 	stw	r9,1076(sp)
   414c4:	d8810415 	stw	r2,1040(sp)
   414c8:	d8810815 	stw	r2,1056(sp)
   414cc:	da010615 	stw	r8,1048(sp)
   414d0:	da010915 	stw	r8,1060(sp)
   414d4:	d8010a15 	stw	zero,1064(sp)
   414d8:	00410200 	call	41020 <___vfprintf_internal_r>
   414dc:	d8812c15 	stw	r2,1200(sp)
   414e0:	10000416 	blt	r2,zero,414f4 <___vfprintf_internal_r+0x4d4>
   414e4:	d9013017 	ldw	r4,1216(sp)
   414e8:	d9410404 	addi	r5,sp,1040
   414ec:	0044a2c0 	call	44a2c <_fflush_r>
   414f0:	1006501e 	bne	r2,zero,42e34 <___vfprintf_internal_r+0x1e14>
   414f4:	d881070b 	ldhu	r2,1052(sp)
   414f8:	1080100c 	andi	r2,r2,64
   414fc:	10bfffcc 	andi	r2,r2,65535
   41500:	10a0001c 	xori	r2,r2,32768
   41504:	10a00004 	addi	r2,r2,-32768
   41508:	10001426 	beq	r2,zero,4155c <___vfprintf_internal_r+0x53c>
   4150c:	d8c12917 	ldw	r3,1188(sp)
   41510:	1880030b 	ldhu	r2,12(r3)
   41514:	10801014 	ori	r2,r2,64
   41518:	1880030d 	sth	r2,12(r3)
   4151c:	00000f06 	br	4155c <___vfprintf_internal_r+0x53c>
   41520:	d8811d17 	ldw	r2,1140(sp)
   41524:	10000426 	beq	r2,zero,41538 <___vfprintf_internal_r+0x518>
   41528:	d9013017 	ldw	r4,1216(sp)
   4152c:	d9412917 	ldw	r5,1188(sp)
   41530:	d9811b04 	addi	r6,sp,1132
   41534:	0040fec0 	call	40fec <__sprint_r>
   41538:	d8c12917 	ldw	r3,1188(sp)
   4153c:	1880030b 	ldhu	r2,12(r3)
   41540:	1080100c 	andi	r2,r2,64
   41544:	10bfffcc 	andi	r2,r2,65535
   41548:	10a0001c 	xori	r2,r2,32768
   4154c:	10a00004 	addi	r2,r2,-32768
   41550:	10000226 	beq	r2,zero,4155c <___vfprintf_internal_r+0x53c>
   41554:	00bfffc4 	movi	r2,-1
   41558:	d8812c15 	stw	r2,1200(sp)
   4155c:	d8812c17 	ldw	r2,1200(sp)
   41560:	dfc14617 	ldw	ra,1304(sp)
   41564:	df014517 	ldw	fp,1300(sp)
   41568:	ddc14417 	ldw	r23,1296(sp)
   4156c:	dd814317 	ldw	r22,1292(sp)
   41570:	dd414217 	ldw	r21,1288(sp)
   41574:	dd014117 	ldw	r20,1284(sp)
   41578:	dcc14017 	ldw	r19,1280(sp)
   4157c:	dc813f17 	ldw	r18,1276(sp)
   41580:	dc413e17 	ldw	r17,1272(sp)
   41584:	dc013d17 	ldw	r16,1268(sp)
   41588:	dec14704 	addi	sp,sp,1308
   4158c:	f800283a 	ret
   41590:	d9412917 	ldw	r5,1188(sp)
   41594:	8809883a 	mov	r4,r17
   41598:	d9811b04 	addi	r6,sp,1132
   4159c:	0040fec0 	call	40fec <__sprint_r>
   415a0:	103fe51e 	bne	r2,zero,41538 <___vfprintf_internal_r+0x518>
   415a4:	da400404 	addi	r9,sp,16
   415a8:	003eea06 	br	41154 <___vfprintf_internal_r+0x134>
   415ac:	0044ce80 	call	44ce8 <__sinit>
   415b0:	003eb306 	br	41080 <___vfprintf_internal_r+0x60>
   415b4:	e013883a 	mov	r9,fp
   415b8:	84000414 	ori	r16,r16,16
   415bc:	1839883a 	mov	fp,r3
   415c0:	8080080c 	andi	r2,r16,32
   415c4:	10034426 	beq	r2,zero,422d8 <___vfprintf_internal_r+0x12b8>
   415c8:	d8c12d17 	ldw	r3,1204(sp)
   415cc:	18800117 	ldw	r2,4(r3)
   415d0:	1dc00017 	ldw	r23,0(r3)
   415d4:	18c00204 	addi	r3,r3,8
   415d8:	d8c12d15 	stw	r3,1204(sp)
   415dc:	102d883a 	mov	r22,r2
   415e0:	1003020e 	bge	r2,zero,421ec <___vfprintf_internal_r+0x11cc>
   415e4:	05efc83a 	sub	r23,zero,r23
   415e8:	b804c03a 	cmpne	r2,r23,zero
   415ec:	05adc83a 	sub	r22,zero,r22
   415f0:	b0adc83a 	sub	r22,r22,r2
   415f4:	00800b44 	movi	r2,45
   415f8:	d8812585 	stb	r2,1174(sp)
   415fc:	00c00044 	movi	r3,1
   41600:	bd84b03a 	or	r2,r23,r22
   41604:	e0000216 	blt	fp,zero,41610 <___vfprintf_internal_r+0x5f0>
   41608:	013fdfc4 	movi	r4,-129
   4160c:	8120703a 	and	r16,r16,r4
   41610:	1001cc1e 	bne	r2,zero,41d44 <___vfprintf_internal_r+0xd24>
   41614:	e001cb1e 	bne	fp,zero,41d44 <___vfprintf_internal_r+0xd24>
   41618:	18c03fcc 	andi	r3,r3,255
   4161c:	1802ca1e 	bne	r3,zero,42148 <___vfprintf_internal_r+0x1128>
   41620:	8080004c 	andi	r2,r16,1
   41624:	1002c826 	beq	r2,zero,42148 <___vfprintf_internal_r+0x1128>
   41628:	d8c13917 	ldw	r3,1252(sp)
   4162c:	00800c04 	movi	r2,48
   41630:	d8810dc5 	stb	r2,1079(sp)
   41634:	d8c12b15 	stw	r3,1196(sp)
   41638:	dcc10dc4 	addi	r19,sp,1079
   4163c:	d8812b17 	ldw	r2,1196(sp)
   41640:	d8812815 	stw	r2,1184(sp)
   41644:	1700010e 	bge	r2,fp,4164c <___vfprintf_internal_r+0x62c>
   41648:	df012815 	stw	fp,1184(sp)
   4164c:	d8812583 	ldbu	r2,1174(sp)
   41650:	df013115 	stw	fp,1220(sp)
   41654:	10803fcc 	andi	r2,r2,255
   41658:	1080201c 	xori	r2,r2,128
   4165c:	10bfe004 	addi	r2,r2,-128
   41660:	103ed726 	beq	r2,zero,411c0 <___vfprintf_internal_r+0x1a0>
   41664:	d8c12817 	ldw	r3,1184(sp)
   41668:	18c00044 	addi	r3,r3,1
   4166c:	d8c12815 	stw	r3,1184(sp)
   41670:	003ed306 	br	411c0 <___vfprintf_internal_r+0x1a0>
   41674:	8080020c 	andi	r2,r16,8
   41678:	e013883a 	mov	r9,fp
   4167c:	1839883a 	mov	fp,r3
   41680:	1003a626 	beq	r2,zero,4251c <___vfprintf_internal_r+0x14fc>
   41684:	d9012d17 	ldw	r4,1204(sp)
   41688:	25800017 	ldw	r22,0(r4)
   4168c:	25000117 	ldw	r20,4(r4)
   41690:	21000204 	addi	r4,r4,8
   41694:	d9012d15 	stw	r4,1204(sp)
   41698:	dd813315 	stw	r22,1228(sp)
   4169c:	dd013415 	stw	r20,1232(sp)
   416a0:	b009883a 	mov	r4,r22
   416a4:	a00b883a 	mov	r5,r20
   416a8:	da413c15 	stw	r9,1264(sp)
   416ac:	0047e740 	call	47e74 <__isinfd>
   416b0:	da413c17 	ldw	r9,1264(sp)
   416b4:	b009883a 	mov	r4,r22
   416b8:	a00b883a 	mov	r5,r20
   416bc:	10041d26 	beq	r2,zero,42734 <___vfprintf_internal_r+0x1714>
   416c0:	000d883a 	mov	r6,zero
   416c4:	000f883a 	mov	r7,zero
   416c8:	0049c480 	call	49c48 <__ltdf2>
   416cc:	da413c17 	ldw	r9,1264(sp)
   416d0:	1004da16 	blt	r2,zero,42a3c <___vfprintf_internal_r+0x1a1c>
   416d4:	d8812583 	ldbu	r2,1174(sp)
   416d8:	00c011c4 	movi	r3,71
   416dc:	1c83d116 	blt	r3,r18,42624 <___vfprintf_internal_r+0x1604>
   416e0:	04c00174 	movhi	r19,5
   416e4:	9cf4f404 	addi	r19,r19,-11312
   416e8:	00c000c4 	movi	r3,3
   416ec:	d8c12815 	stw	r3,1184(sp)
   416f0:	00ffdfc4 	movi	r3,-129
   416f4:	80e0703a 	and	r16,r16,r3
   416f8:	d8c12817 	ldw	r3,1184(sp)
   416fc:	d8013115 	stw	zero,1220(sp)
   41700:	d8c12b15 	stw	r3,1196(sp)
   41704:	003fd306 	br	41654 <___vfprintf_internal_r+0x634>
   41708:	84000214 	ori	r16,r16,8
   4170c:	ac800007 	ldb	r18,0(r21)
   41710:	003e9f06 	br	41190 <___vfprintf_internal_r+0x170>
   41714:	e013883a 	mov	r9,fp
   41718:	84000414 	ori	r16,r16,16
   4171c:	1839883a 	mov	fp,r3
   41720:	8080080c 	andi	r2,r16,32
   41724:	10031d26 	beq	r2,zero,4239c <___vfprintf_internal_r+0x137c>
   41728:	d8812d17 	ldw	r2,1204(sp)
   4172c:	0007883a 	mov	r3,zero
   41730:	15c00017 	ldw	r23,0(r2)
   41734:	15800117 	ldw	r22,4(r2)
   41738:	10800204 	addi	r2,r2,8
   4173c:	d8812d15 	stw	r2,1204(sp)
   41740:	d8012585 	stb	zero,1174(sp)
   41744:	bd84b03a 	or	r2,r23,r22
   41748:	003fae06 	br	41604 <___vfprintf_internal_r+0x5e4>
   4174c:	e013883a 	mov	r9,fp
   41750:	84000414 	ori	r16,r16,16
   41754:	1839883a 	mov	fp,r3
   41758:	8080080c 	andi	r2,r16,32
   4175c:	1002e726 	beq	r2,zero,422fc <___vfprintf_internal_r+0x12dc>
   41760:	d8c12d17 	ldw	r3,1204(sp)
   41764:	d9012d17 	ldw	r4,1204(sp)
   41768:	1dc00017 	ldw	r23,0(r3)
   4176c:	1d800117 	ldw	r22,4(r3)
   41770:	21000204 	addi	r4,r4,8
   41774:	00c00044 	movi	r3,1
   41778:	d9012d15 	stw	r4,1204(sp)
   4177c:	bd84b03a 	or	r2,r23,r22
   41780:	d8012585 	stb	zero,1174(sp)
   41784:	003f9f06 	br	41604 <___vfprintf_internal_r+0x5e4>
   41788:	e013883a 	mov	r9,fp
   4178c:	1839883a 	mov	fp,r3
   41790:	00c00174 	movhi	r3,5
   41794:	18f4f804 	addi	r3,r3,-11296
   41798:	d8c13615 	stw	r3,1240(sp)
   4179c:	8080080c 	andi	r2,r16,32
   417a0:	10007726 	beq	r2,zero,41980 <___vfprintf_internal_r+0x960>
   417a4:	d9012d17 	ldw	r4,1204(sp)
   417a8:	25c00017 	ldw	r23,0(r4)
   417ac:	25800117 	ldw	r22,4(r4)
   417b0:	21000204 	addi	r4,r4,8
   417b4:	d9012d15 	stw	r4,1204(sp)
   417b8:	8080004c 	andi	r2,r16,1
   417bc:	1002c226 	beq	r2,zero,422c8 <___vfprintf_internal_r+0x12a8>
   417c0:	bd84b03a 	or	r2,r23,r22
   417c4:	10035d26 	beq	r2,zero,4253c <___vfprintf_internal_r+0x151c>
   417c8:	00c00c04 	movi	r3,48
   417cc:	d8c12505 	stb	r3,1172(sp)
   417d0:	dc812545 	stb	r18,1173(sp)
   417d4:	84000094 	ori	r16,r16,2
   417d8:	00c00084 	movi	r3,2
   417dc:	d8012585 	stb	zero,1174(sp)
   417e0:	003f8806 	br	41604 <___vfprintf_internal_r+0x5e4>
   417e4:	ac800007 	ldb	r18,0(r21)
   417e8:	00c00a84 	movi	r3,42
   417ec:	adc00044 	addi	r23,r21,1
   417f0:	90c57526 	beq	r18,r3,42dc8 <___vfprintf_internal_r+0x1da8>
   417f4:	95bff404 	addi	r22,r18,-48
   417f8:	0009883a 	mov	r4,zero
   417fc:	9d84ff36 	bltu	r19,r22,42bfc <___vfprintf_internal_r+0x1bdc>
   41800:	01400284 	movi	r5,10
   41804:	0040e000 	call	40e00 <__mulsi3>
   41808:	bc800007 	ldb	r18,0(r23)
   4180c:	b089883a 	add	r4,r22,r2
   41810:	bdc00044 	addi	r23,r23,1
   41814:	95bff404 	addi	r22,r18,-48
   41818:	9dbff92e 	bgeu	r19,r22,41800 <___vfprintf_internal_r+0x7e0>
   4181c:	2007883a 	mov	r3,r4
   41820:	20044316 	blt	r4,zero,42930 <___vfprintf_internal_r+0x1910>
   41824:	b82b883a 	mov	r21,r23
   41828:	003e5a06 	br	41194 <___vfprintf_internal_r+0x174>
   4182c:	ac800007 	ldb	r18,0(r21)
   41830:	01001b04 	movi	r4,108
   41834:	a805883a 	mov	r2,r21
   41838:	91045526 	beq	r18,r4,42990 <___vfprintf_internal_r+0x1970>
   4183c:	84000414 	ori	r16,r16,16
   41840:	003e5306 	br	41190 <___vfprintf_internal_r+0x170>
   41844:	8080080c 	andi	r2,r16,32
   41848:	e013883a 	mov	r9,fp
   4184c:	10034026 	beq	r2,zero,42550 <___vfprintf_internal_r+0x1530>
   41850:	d9012d17 	ldw	r4,1204(sp)
   41854:	20800017 	ldw	r2,0(r4)
   41858:	d9012c17 	ldw	r4,1200(sp)
   4185c:	2007d7fa 	srai	r3,r4,31
   41860:	d9012d17 	ldw	r4,1204(sp)
   41864:	10c00115 	stw	r3,4(r2)
   41868:	21000104 	addi	r4,r4,4
   4186c:	d9012d15 	stw	r4,1204(sp)
   41870:	d9012c17 	ldw	r4,1200(sp)
   41874:	11000015 	stw	r4,0(r2)
   41878:	003e1f06 	br	410f8 <___vfprintf_internal_r+0xd8>
   4187c:	d9012d17 	ldw	r4,1204(sp)
   41880:	21000017 	ldw	r4,0(r4)
   41884:	d9012e15 	stw	r4,1208(sp)
   41888:	d9012d17 	ldw	r4,1204(sp)
   4188c:	20800104 	addi	r2,r4,4
   41890:	d9012e17 	ldw	r4,1208(sp)
   41894:	203ee716 	blt	r4,zero,41434 <___vfprintf_internal_r+0x414>
   41898:	d8812d15 	stw	r2,1204(sp)
   4189c:	ac800007 	ldb	r18,0(r21)
   418a0:	003e3b06 	br	41190 <___vfprintf_internal_r+0x170>
   418a4:	e013883a 	mov	r9,fp
   418a8:	1839883a 	mov	fp,r3
   418ac:	d8c12d17 	ldw	r3,1204(sp)
   418b0:	00800c04 	movi	r2,48
   418b4:	01000174 	movhi	r4,5
   418b8:	2134fd04 	addi	r4,r4,-11276
   418bc:	1dc00017 	ldw	r23,0(r3)
   418c0:	18c00104 	addi	r3,r3,4
   418c4:	d8812505 	stb	r2,1172(sp)
   418c8:	00801e04 	movi	r2,120
   418cc:	d8812545 	stb	r2,1173(sp)
   418d0:	d8c12d15 	stw	r3,1204(sp)
   418d4:	002d883a 	mov	r22,zero
   418d8:	84000094 	ori	r16,r16,2
   418dc:	d9013615 	stw	r4,1240(sp)
   418e0:	00c00084 	movi	r3,2
   418e4:	04801e04 	movi	r18,120
   418e8:	b805883a 	mov	r2,r23
   418ec:	d8012585 	stb	zero,1174(sp)
   418f0:	003f4406 	br	41604 <___vfprintf_internal_r+0x5e4>
   418f4:	84000814 	ori	r16,r16,32
   418f8:	ac800007 	ldb	r18,0(r21)
   418fc:	003e2406 	br	41190 <___vfprintf_internal_r+0x170>
   41900:	d8812d17 	ldw	r2,1204(sp)
   41904:	d8012585 	stb	zero,1174(sp)
   41908:	e013883a 	mov	r9,fp
   4190c:	14c00017 	ldw	r19,0(r2)
   41910:	1839883a 	mov	fp,r3
   41914:	15c00104 	addi	r23,r2,4
   41918:	98045526 	beq	r19,zero,42a70 <___vfprintf_internal_r+0x1a50>
   4191c:	9809883a 	mov	r4,r19
   41920:	18043116 	blt	r3,zero,429e8 <___vfprintf_internal_r+0x19c8>
   41924:	000b883a 	mov	r5,zero
   41928:	180d883a 	mov	r6,r3
   4192c:	da413c15 	stw	r9,1264(sp)
   41930:	00463880 	call	46388 <memchr>
   41934:	da413c17 	ldw	r9,1264(sp)
   41938:	10047a26 	beq	r2,zero,42b24 <___vfprintf_internal_r+0x1b04>
   4193c:	14c5c83a 	sub	r2,r2,r19
   41940:	d8812b15 	stw	r2,1196(sp)
   41944:	e083d40e 	bge	fp,r2,42898 <___vfprintf_internal_r+0x1878>
   41948:	df012815 	stw	fp,1184(sp)
   4194c:	e004e416 	blt	fp,zero,42ce0 <___vfprintf_internal_r+0x1cc0>
   41950:	d8812583 	ldbu	r2,1174(sp)
   41954:	df012b15 	stw	fp,1196(sp)
   41958:	ddc12d15 	stw	r23,1204(sp)
   4195c:	d8013115 	stw	zero,1220(sp)
   41960:	003f3c06 	br	41654 <___vfprintf_internal_r+0x634>
   41964:	00800174 	movhi	r2,5
   41968:	10b4fd04 	addi	r2,r2,-11276
   4196c:	d8813615 	stw	r2,1240(sp)
   41970:	8080080c 	andi	r2,r16,32
   41974:	e013883a 	mov	r9,fp
   41978:	1839883a 	mov	fp,r3
   4197c:	103f891e 	bne	r2,zero,417a4 <___vfprintf_internal_r+0x784>
   41980:	8080040c 	andi	r2,r16,16
   41984:	1002c326 	beq	r2,zero,42494 <___vfprintf_internal_r+0x1474>
   41988:	d8812d17 	ldw	r2,1204(sp)
   4198c:	002d883a 	mov	r22,zero
   41990:	15c00017 	ldw	r23,0(r2)
   41994:	10800104 	addi	r2,r2,4
   41998:	d8812d15 	stw	r2,1204(sp)
   4199c:	003f8606 	br	417b8 <___vfprintf_internal_r+0x798>
   419a0:	84001014 	ori	r16,r16,64
   419a4:	ac800007 	ldb	r18,0(r21)
   419a8:	003df906 	br	41190 <___vfprintf_internal_r+0x170>
   419ac:	d8812587 	ldb	r2,1174(sp)
   419b0:	1002e51e 	bne	r2,zero,42548 <___vfprintf_internal_r+0x1528>
   419b4:	00800804 	movi	r2,32
   419b8:	d8812585 	stb	r2,1174(sp)
   419bc:	ac800007 	ldb	r18,0(r21)
   419c0:	003df306 	br	41190 <___vfprintf_internal_r+0x170>
   419c4:	84000054 	ori	r16,r16,1
   419c8:	ac800007 	ldb	r18,0(r21)
   419cc:	003df006 	br	41190 <___vfprintf_internal_r+0x170>
   419d0:	84002014 	ori	r16,r16,128
   419d4:	ac800007 	ldb	r18,0(r21)
   419d8:	003ded06 	br	41190 <___vfprintf_internal_r+0x170>
   419dc:	0009883a 	mov	r4,zero
   419e0:	95bff404 	addi	r22,r18,-48
   419e4:	182f883a 	mov	r23,r3
   419e8:	01400284 	movi	r5,10
   419ec:	0040e000 	call	40e00 <__mulsi3>
   419f0:	ac800007 	ldb	r18,0(r21)
   419f4:	1589883a 	add	r4,r2,r22
   419f8:	ad400044 	addi	r21,r21,1
   419fc:	95bff404 	addi	r22,r18,-48
   41a00:	9dbff92e 	bgeu	r19,r22,419e8 <___vfprintf_internal_r+0x9c8>
   41a04:	b807883a 	mov	r3,r23
   41a08:	d9012e15 	stw	r4,1208(sp)
   41a0c:	003de106 	br	41194 <___vfprintf_internal_r+0x174>
   41a10:	00800ac4 	movi	r2,43
   41a14:	d8812585 	stb	r2,1174(sp)
   41a18:	ac800007 	ldb	r18,0(r21)
   41a1c:	003ddc06 	br	41190 <___vfprintf_internal_r+0x170>
   41a20:	d8c12d17 	ldw	r3,1204(sp)
   41a24:	d9012d17 	ldw	r4,1204(sp)
   41a28:	e013883a 	mov	r9,fp
   41a2c:	18800017 	ldw	r2,0(r3)
   41a30:	21000104 	addi	r4,r4,4
   41a34:	00c00044 	movi	r3,1
   41a38:	d8c12815 	stw	r3,1184(sp)
   41a3c:	d8012585 	stb	zero,1174(sp)
   41a40:	d8810405 	stb	r2,1040(sp)
   41a44:	d9012d15 	stw	r4,1204(sp)
   41a48:	d8c12b15 	stw	r3,1196(sp)
   41a4c:	dcc10404 	addi	r19,sp,1040
   41a50:	003dda06 	br	411bc <___vfprintf_internal_r+0x19c>
   41a54:	e013883a 	mov	r9,fp
   41a58:	1839883a 	mov	fp,r3
   41a5c:	003ed806 	br	415c0 <___vfprintf_internal_r+0x5a0>
   41a60:	e013883a 	mov	r9,fp
   41a64:	1839883a 	mov	fp,r3
   41a68:	003f2d06 	br	41720 <___vfprintf_internal_r+0x700>
   41a6c:	e013883a 	mov	r9,fp
   41a70:	1839883a 	mov	fp,r3
   41a74:	003f3806 	br	41758 <___vfprintf_internal_r+0x738>
   41a78:	da011d17 	ldw	r8,1140(sp)
   41a7c:	d8c11c17 	ldw	r3,1136(sp)
   41a80:	d8812587 	ldb	r2,1174(sp)
   41a84:	10000b26 	beq	r2,zero,41ab4 <___vfprintf_internal_r+0xa94>
   41a88:	d8812584 	addi	r2,sp,1174
   41a8c:	48800015 	stw	r2,0(r9)
   41a90:	00800044 	movi	r2,1
   41a94:	48800115 	stw	r2,4(r9)
   41a98:	4091883a 	add	r8,r8,r2
   41a9c:	1887883a 	add	r3,r3,r2
   41aa0:	da011d15 	stw	r8,1140(sp)
   41aa4:	d8c11c15 	stw	r3,1136(sp)
   41aa8:	008001c4 	movi	r2,7
   41aac:	10c18e16 	blt	r2,r3,420e8 <___vfprintf_internal_r+0x10c8>
   41ab0:	4a400204 	addi	r9,r9,8
   41ab4:	d9012a17 	ldw	r4,1192(sp)
   41ab8:	20000b26 	beq	r4,zero,41ae8 <___vfprintf_internal_r+0xac8>
   41abc:	d8812504 	addi	r2,sp,1172
   41ac0:	48800015 	stw	r2,0(r9)
   41ac4:	00800084 	movi	r2,2
   41ac8:	48800115 	stw	r2,4(r9)
   41acc:	4091883a 	add	r8,r8,r2
   41ad0:	18c00044 	addi	r3,r3,1
   41ad4:	da011d15 	stw	r8,1140(sp)
   41ad8:	d8c11c15 	stw	r3,1136(sp)
   41adc:	008001c4 	movi	r2,7
   41ae0:	10c17816 	blt	r2,r3,420c4 <___vfprintf_internal_r+0x10a4>
   41ae4:	4a400204 	addi	r9,r9,8
   41ae8:	d9012f17 	ldw	r4,1212(sp)
   41aec:	00802004 	movi	r2,128
   41af0:	2080fc26 	beq	r4,r2,41ee4 <___vfprintf_internal_r+0xec4>
   41af4:	d8813117 	ldw	r2,1220(sp)
   41af8:	d9012b17 	ldw	r4,1196(sp)
   41afc:	112fc83a 	sub	r23,r2,r4
   41b00:	05c02a0e 	bge	zero,r23,41bac <___vfprintf_internal_r+0xb8c>
   41b04:	07000404 	movi	fp,16
   41b08:	05000174 	movhi	r20,5
   41b0c:	a5350884 	addi	r20,r20,-11230
   41b10:	e5c01d0e 	bge	fp,r23,41b88 <___vfprintf_internal_r+0xb68>
   41b14:	dc812a15 	stw	r18,1192(sp)
   41b18:	058001c4 	movi	r22,7
   41b1c:	a025883a 	mov	r18,r20
   41b20:	8029883a 	mov	r20,r16
   41b24:	dc012917 	ldw	r16,1188(sp)
   41b28:	00000306 	br	41b38 <___vfprintf_internal_r+0xb18>
   41b2c:	bdfffc04 	addi	r23,r23,-16
   41b30:	4a400204 	addi	r9,r9,8
   41b34:	e5c0110e 	bge	fp,r23,41b7c <___vfprintf_internal_r+0xb5c>
   41b38:	4c800015 	stw	r18,0(r9)
   41b3c:	4f000115 	stw	fp,4(r9)
   41b40:	42000404 	addi	r8,r8,16
   41b44:	18c00044 	addi	r3,r3,1
   41b48:	da011d15 	stw	r8,1140(sp)
   41b4c:	d8c11c15 	stw	r3,1136(sp)
   41b50:	b0fff60e 	bge	r22,r3,41b2c <___vfprintf_internal_r+0xb0c>
   41b54:	8809883a 	mov	r4,r17
   41b58:	800b883a 	mov	r5,r16
   41b5c:	d9811b04 	addi	r6,sp,1132
   41b60:	0040fec0 	call	40fec <__sprint_r>
   41b64:	103e741e 	bne	r2,zero,41538 <___vfprintf_internal_r+0x518>
   41b68:	bdfffc04 	addi	r23,r23,-16
   41b6c:	da011d17 	ldw	r8,1140(sp)
   41b70:	d8c11c17 	ldw	r3,1136(sp)
   41b74:	da400404 	addi	r9,sp,16
   41b78:	e5ffef16 	blt	fp,r23,41b38 <___vfprintf_internal_r+0xb18>
   41b7c:	a021883a 	mov	r16,r20
   41b80:	9029883a 	mov	r20,r18
   41b84:	dc812a17 	ldw	r18,1192(sp)
   41b88:	4d000015 	stw	r20,0(r9)
   41b8c:	4dc00115 	stw	r23,4(r9)
   41b90:	45d1883a 	add	r8,r8,r23
   41b94:	18c00044 	addi	r3,r3,1
   41b98:	da011d15 	stw	r8,1140(sp)
   41b9c:	d8c11c15 	stw	r3,1136(sp)
   41ba0:	008001c4 	movi	r2,7
   41ba4:	10c13e16 	blt	r2,r3,420a0 <___vfprintf_internal_r+0x1080>
   41ba8:	4a400204 	addi	r9,r9,8
   41bac:	8080400c 	andi	r2,r16,256
   41bb0:	1000831e 	bne	r2,zero,41dc0 <___vfprintf_internal_r+0xda0>
   41bb4:	d8812b17 	ldw	r2,1196(sp)
   41bb8:	4cc00015 	stw	r19,0(r9)
   41bbc:	48800115 	stw	r2,4(r9)
   41bc0:	4091883a 	add	r8,r8,r2
   41bc4:	18c00044 	addi	r3,r3,1
   41bc8:	da011d15 	stw	r8,1140(sp)
   41bcc:	d8c11c15 	stw	r3,1136(sp)
   41bd0:	008001c4 	movi	r2,7
   41bd4:	10c05316 	blt	r2,r3,41d24 <___vfprintf_internal_r+0xd04>
   41bd8:	4a400204 	addi	r9,r9,8
   41bdc:	8400010c 	andi	r16,r16,4
   41be0:	80002e26 	beq	r16,zero,41c9c <___vfprintf_internal_r+0xc7c>
   41be4:	d8812e17 	ldw	r2,1208(sp)
   41be8:	d8c12817 	ldw	r3,1184(sp)
   41bec:	10e1c83a 	sub	r16,r2,r3
   41bf0:	04002a0e 	bge	zero,r16,41c9c <___vfprintf_internal_r+0xc7c>
   41bf4:	04800404 	movi	r18,16
   41bf8:	d8c11c17 	ldw	r3,1136(sp)
   41bfc:	05c00174 	movhi	r23,5
   41c00:	bdf50484 	addi	r23,r23,-11246
   41c04:	9400170e 	bge	r18,r16,41c64 <___vfprintf_internal_r+0xc44>
   41c08:	04c001c4 	movi	r19,7
   41c0c:	dd012917 	ldw	r20,1188(sp)
   41c10:	00000306 	br	41c20 <___vfprintf_internal_r+0xc00>
   41c14:	843ffc04 	addi	r16,r16,-16
   41c18:	4a400204 	addi	r9,r9,8
   41c1c:	9400110e 	bge	r18,r16,41c64 <___vfprintf_internal_r+0xc44>
   41c20:	4dc00015 	stw	r23,0(r9)
   41c24:	4c800115 	stw	r18,4(r9)
   41c28:	42000404 	addi	r8,r8,16
   41c2c:	18c00044 	addi	r3,r3,1
   41c30:	da011d15 	stw	r8,1140(sp)
   41c34:	d8c11c15 	stw	r3,1136(sp)
   41c38:	98fff60e 	bge	r19,r3,41c14 <___vfprintf_internal_r+0xbf4>
   41c3c:	8809883a 	mov	r4,r17
   41c40:	a00b883a 	mov	r5,r20
   41c44:	d9811b04 	addi	r6,sp,1132
   41c48:	0040fec0 	call	40fec <__sprint_r>
   41c4c:	103e3a1e 	bne	r2,zero,41538 <___vfprintf_internal_r+0x518>
   41c50:	843ffc04 	addi	r16,r16,-16
   41c54:	da011d17 	ldw	r8,1140(sp)
   41c58:	d8c11c17 	ldw	r3,1136(sp)
   41c5c:	da400404 	addi	r9,sp,16
   41c60:	943fef16 	blt	r18,r16,41c20 <___vfprintf_internal_r+0xc00>
   41c64:	4dc00015 	stw	r23,0(r9)
   41c68:	4c000115 	stw	r16,4(r9)
   41c6c:	8211883a 	add	r8,r16,r8
   41c70:	18c00044 	addi	r3,r3,1
   41c74:	da011d15 	stw	r8,1140(sp)
   41c78:	d8c11c15 	stw	r3,1136(sp)
   41c7c:	008001c4 	movi	r2,7
   41c80:	10c0060e 	bge	r2,r3,41c9c <___vfprintf_internal_r+0xc7c>
   41c84:	d9412917 	ldw	r5,1188(sp)
   41c88:	8809883a 	mov	r4,r17
   41c8c:	d9811b04 	addi	r6,sp,1132
   41c90:	0040fec0 	call	40fec <__sprint_r>
   41c94:	103e281e 	bne	r2,zero,41538 <___vfprintf_internal_r+0x518>
   41c98:	da011d17 	ldw	r8,1140(sp)
   41c9c:	dd012817 	ldw	r20,1184(sp)
   41ca0:	d9012e17 	ldw	r4,1208(sp)
   41ca4:	a100010e 	bge	r20,r4,41cac <___vfprintf_internal_r+0xc8c>
   41ca8:	2029883a 	mov	r20,r4
   41cac:	d8812c17 	ldw	r2,1200(sp)
   41cb0:	1505883a 	add	r2,r2,r20
   41cb4:	d8812c15 	stw	r2,1200(sp)
   41cb8:	4000b91e 	bne	r8,zero,41fa0 <___vfprintf_internal_r+0xf80>
   41cbc:	d8011c15 	stw	zero,1136(sp)
   41cc0:	a8800007 	ldb	r2,0(r21)
   41cc4:	da400404 	addi	r9,sp,16
   41cc8:	103d0d1e 	bne	r2,zero,41100 <___vfprintf_internal_r+0xe0>
   41ccc:	a825883a 	mov	r18,r21
   41cd0:	003d2306 	br	41160 <___vfprintf_internal_r+0x140>
   41cd4:	d9412917 	ldw	r5,1188(sp)
   41cd8:	8809883a 	mov	r4,r17
   41cdc:	d9811b04 	addi	r6,sp,1132
   41ce0:	0040fec0 	call	40fec <__sprint_r>
   41ce4:	103e141e 	bne	r2,zero,41538 <___vfprintf_internal_r+0x518>
   41ce8:	da011d17 	ldw	r8,1140(sp)
   41cec:	da400404 	addi	r9,sp,16
   41cf0:	8080004c 	andi	r2,r16,1
   41cf4:	103fb926 	beq	r2,zero,41bdc <___vfprintf_internal_r+0xbbc>
   41cf8:	d8c11c17 	ldw	r3,1136(sp)
   41cfc:	d9013717 	ldw	r4,1244(sp)
   41d00:	00800044 	movi	r2,1
   41d04:	48800115 	stw	r2,4(r9)
   41d08:	49000015 	stw	r4,0(r9)
   41d0c:	4091883a 	add	r8,r8,r2
   41d10:	1887883a 	add	r3,r3,r2
   41d14:	da011d15 	stw	r8,1140(sp)
   41d18:	d8c11c15 	stw	r3,1136(sp)
   41d1c:	008001c4 	movi	r2,7
   41d20:	10ffad0e 	bge	r2,r3,41bd8 <___vfprintf_internal_r+0xbb8>
   41d24:	d9412917 	ldw	r5,1188(sp)
   41d28:	8809883a 	mov	r4,r17
   41d2c:	d9811b04 	addi	r6,sp,1132
   41d30:	0040fec0 	call	40fec <__sprint_r>
   41d34:	103e001e 	bne	r2,zero,41538 <___vfprintf_internal_r+0x518>
   41d38:	da400404 	addi	r9,sp,16
   41d3c:	da011d17 	ldw	r8,1140(sp)
   41d40:	003fa606 	br	41bdc <___vfprintf_internal_r+0xbbc>
   41d44:	18803fcc 	andi	r2,r3,255
   41d48:	00c00044 	movi	r3,1
   41d4c:	10c10126 	beq	r2,r3,42154 <___vfprintf_internal_r+0x1134>
   41d50:	00c00084 	movi	r3,2
   41d54:	10c0ed26 	beq	r2,r3,4210c <___vfprintf_internal_r+0x10ec>
   41d58:	d8c10dc4 	addi	r3,sp,1079
   41d5c:	b808d0fa 	srli	r4,r23,3
   41d60:	b00a977a 	slli	r5,r22,29
   41d64:	b02cd0fa 	srli	r22,r22,3
   41d68:	bdc001cc 	andi	r23,r23,7
   41d6c:	b8800c04 	addi	r2,r23,48
   41d70:	292eb03a 	or	r23,r5,r4
   41d74:	18800005 	stb	r2,0(r3)
   41d78:	bd88b03a 	or	r4,r23,r22
   41d7c:	1827883a 	mov	r19,r3
   41d80:	18ffffc4 	addi	r3,r3,-1
   41d84:	203ff51e 	bne	r4,zero,41d5c <___vfprintf_internal_r+0xd3c>
   41d88:	8100004c 	andi	r4,r16,1
   41d8c:	980b883a 	mov	r5,r19
   41d90:	20000726 	beq	r4,zero,41db0 <___vfprintf_internal_r+0xd90>
   41d94:	10803fcc 	andi	r2,r2,255
   41d98:	1080201c 	xori	r2,r2,128
   41d9c:	10bfe004 	addi	r2,r2,-128
   41da0:	01000c04 	movi	r4,48
   41da4:	11000226 	beq	r2,r4,41db0 <___vfprintf_internal_r+0xd90>
   41da8:	1827883a 	mov	r19,r3
   41dac:	293fffc5 	stb	r4,-1(r5)
   41db0:	d8812717 	ldw	r2,1180(sp)
   41db4:	14c5c83a 	sub	r2,r2,r19
   41db8:	d8812b15 	stw	r2,1196(sp)
   41dbc:	003e1f06 	br	4163c <___vfprintf_internal_r+0x61c>
   41dc0:	00801944 	movi	r2,101
   41dc4:	14807c0e 	bge	r2,r18,41fb8 <___vfprintf_internal_r+0xf98>
   41dc8:	d9013317 	ldw	r4,1228(sp)
   41dcc:	d9413417 	ldw	r5,1232(sp)
   41dd0:	000d883a 	mov	r6,zero
   41dd4:	000f883a 	mov	r7,zero
   41dd8:	d8c13b15 	stw	r3,1260(sp)
   41ddc:	da013a15 	stw	r8,1256(sp)
   41de0:	da413c15 	stw	r9,1264(sp)
   41de4:	0049ac80 	call	49ac8 <__eqdf2>
   41de8:	d8c13b17 	ldw	r3,1260(sp)
   41dec:	da013a17 	ldw	r8,1256(sp)
   41df0:	da413c17 	ldw	r9,1264(sp)
   41df4:	1001001e 	bne	r2,zero,421f8 <___vfprintf_internal_r+0x11d8>
   41df8:	00800174 	movhi	r2,5
   41dfc:	10b50404 	addi	r2,r2,-11248
   41e00:	48800015 	stw	r2,0(r9)
   41e04:	00800044 	movi	r2,1
   41e08:	48800115 	stw	r2,4(r9)
   41e0c:	4091883a 	add	r8,r8,r2
   41e10:	1887883a 	add	r3,r3,r2
   41e14:	da011d15 	stw	r8,1140(sp)
   41e18:	d8c11c15 	stw	r3,1136(sp)
   41e1c:	008001c4 	movi	r2,7
   41e20:	10c20316 	blt	r2,r3,42630 <___vfprintf_internal_r+0x1610>
   41e24:	4a400204 	addi	r9,r9,8
   41e28:	d8812417 	ldw	r2,1168(sp)
   41e2c:	d8c13217 	ldw	r3,1224(sp)
   41e30:	10c00216 	blt	r2,r3,41e3c <___vfprintf_internal_r+0xe1c>
   41e34:	8080004c 	andi	r2,r16,1
   41e38:	103f6826 	beq	r2,zero,41bdc <___vfprintf_internal_r+0xbbc>
   41e3c:	d8c11c17 	ldw	r3,1136(sp)
   41e40:	d9013717 	ldw	r4,1244(sp)
   41e44:	00800044 	movi	r2,1
   41e48:	48800115 	stw	r2,4(r9)
   41e4c:	49000015 	stw	r4,0(r9)
   41e50:	4091883a 	add	r8,r8,r2
   41e54:	1887883a 	add	r3,r3,r2
   41e58:	da011d15 	stw	r8,1140(sp)
   41e5c:	d8c11c15 	stw	r3,1136(sp)
   41e60:	008001c4 	movi	r2,7
   41e64:	10c2ce16 	blt	r2,r3,429a0 <___vfprintf_internal_r+0x1980>
   41e68:	4a400204 	addi	r9,r9,8
   41e6c:	d8813217 	ldw	r2,1224(sp)
   41e70:	14bfffc4 	addi	r18,r2,-1
   41e74:	04bf590e 	bge	zero,r18,41bdc <___vfprintf_internal_r+0xbbc>
   41e78:	04c00404 	movi	r19,16
   41e7c:	d8c11c17 	ldw	r3,1136(sp)
   41e80:	05000174 	movhi	r20,5
   41e84:	a5350884 	addi	r20,r20,-11230
   41e88:	9c818a0e 	bge	r19,r18,424b4 <___vfprintf_internal_r+0x1494>
   41e8c:	058001c4 	movi	r22,7
   41e90:	ddc12917 	ldw	r23,1188(sp)
   41e94:	00000306 	br	41ea4 <___vfprintf_internal_r+0xe84>
   41e98:	4a400204 	addi	r9,r9,8
   41e9c:	94bffc04 	addi	r18,r18,-16
   41ea0:	9c81840e 	bge	r19,r18,424b4 <___vfprintf_internal_r+0x1494>
   41ea4:	4d000015 	stw	r20,0(r9)
   41ea8:	4cc00115 	stw	r19,4(r9)
   41eac:	42000404 	addi	r8,r8,16
   41eb0:	18c00044 	addi	r3,r3,1
   41eb4:	da011d15 	stw	r8,1140(sp)
   41eb8:	d8c11c15 	stw	r3,1136(sp)
   41ebc:	b0fff60e 	bge	r22,r3,41e98 <___vfprintf_internal_r+0xe78>
   41ec0:	8809883a 	mov	r4,r17
   41ec4:	b80b883a 	mov	r5,r23
   41ec8:	d9811b04 	addi	r6,sp,1132
   41ecc:	0040fec0 	call	40fec <__sprint_r>
   41ed0:	103d991e 	bne	r2,zero,41538 <___vfprintf_internal_r+0x518>
   41ed4:	da011d17 	ldw	r8,1140(sp)
   41ed8:	d8c11c17 	ldw	r3,1136(sp)
   41edc:	da400404 	addi	r9,sp,16
   41ee0:	003fee06 	br	41e9c <___vfprintf_internal_r+0xe7c>
   41ee4:	d8812e17 	ldw	r2,1208(sp)
   41ee8:	d9012817 	ldw	r4,1184(sp)
   41eec:	112fc83a 	sub	r23,r2,r4
   41ef0:	05ff000e 	bge	zero,r23,41af4 <___vfprintf_internal_r+0xad4>
   41ef4:	07000404 	movi	fp,16
   41ef8:	05000174 	movhi	r20,5
   41efc:	a5350884 	addi	r20,r20,-11230
   41f00:	e5c01d0e 	bge	fp,r23,41f78 <___vfprintf_internal_r+0xf58>
   41f04:	dc812a15 	stw	r18,1192(sp)
   41f08:	058001c4 	movi	r22,7
   41f0c:	a025883a 	mov	r18,r20
   41f10:	8029883a 	mov	r20,r16
   41f14:	dc012917 	ldw	r16,1188(sp)
   41f18:	00000306 	br	41f28 <___vfprintf_internal_r+0xf08>
   41f1c:	bdfffc04 	addi	r23,r23,-16
   41f20:	4a400204 	addi	r9,r9,8
   41f24:	e5c0110e 	bge	fp,r23,41f6c <___vfprintf_internal_r+0xf4c>
   41f28:	4c800015 	stw	r18,0(r9)
   41f2c:	4f000115 	stw	fp,4(r9)
   41f30:	42000404 	addi	r8,r8,16
   41f34:	18c00044 	addi	r3,r3,1
   41f38:	da011d15 	stw	r8,1140(sp)
   41f3c:	d8c11c15 	stw	r3,1136(sp)
   41f40:	b0fff60e 	bge	r22,r3,41f1c <___vfprintf_internal_r+0xefc>
   41f44:	8809883a 	mov	r4,r17
   41f48:	800b883a 	mov	r5,r16
   41f4c:	d9811b04 	addi	r6,sp,1132
   41f50:	0040fec0 	call	40fec <__sprint_r>
   41f54:	103d781e 	bne	r2,zero,41538 <___vfprintf_internal_r+0x518>
   41f58:	bdfffc04 	addi	r23,r23,-16
   41f5c:	da011d17 	ldw	r8,1140(sp)
   41f60:	d8c11c17 	ldw	r3,1136(sp)
   41f64:	da400404 	addi	r9,sp,16
   41f68:	e5ffef16 	blt	fp,r23,41f28 <___vfprintf_internal_r+0xf08>
   41f6c:	a021883a 	mov	r16,r20
   41f70:	9029883a 	mov	r20,r18
   41f74:	dc812a17 	ldw	r18,1192(sp)
   41f78:	4d000015 	stw	r20,0(r9)
   41f7c:	4dc00115 	stw	r23,4(r9)
   41f80:	45d1883a 	add	r8,r8,r23
   41f84:	18c00044 	addi	r3,r3,1
   41f88:	da011d15 	stw	r8,1140(sp)
   41f8c:	d8c11c15 	stw	r3,1136(sp)
   41f90:	008001c4 	movi	r2,7
   41f94:	10c13616 	blt	r2,r3,42470 <___vfprintf_internal_r+0x1450>
   41f98:	4a400204 	addi	r9,r9,8
   41f9c:	003ed506 	br	41af4 <___vfprintf_internal_r+0xad4>
   41fa0:	d9412917 	ldw	r5,1188(sp)
   41fa4:	8809883a 	mov	r4,r17
   41fa8:	d9811b04 	addi	r6,sp,1132
   41fac:	0040fec0 	call	40fec <__sprint_r>
   41fb0:	103f4226 	beq	r2,zero,41cbc <___vfprintf_internal_r+0xc9c>
   41fb4:	003d6006 	br	41538 <___vfprintf_internal_r+0x518>
   41fb8:	d9013217 	ldw	r4,1224(sp)
   41fbc:	00800044 	movi	r2,1
   41fc0:	4cc00015 	stw	r19,0(r9)
   41fc4:	1101000e 	bge	r2,r4,423c8 <___vfprintf_internal_r+0x13a8>
   41fc8:	00800044 	movi	r2,1
   41fcc:	48800115 	stw	r2,4(r9)
   41fd0:	4091883a 	add	r8,r8,r2
   41fd4:	1887883a 	add	r3,r3,r2
   41fd8:	da011d15 	stw	r8,1140(sp)
   41fdc:	d8c11c15 	stw	r3,1136(sp)
   41fe0:	008001c4 	movi	r2,7
   41fe4:	10c10c16 	blt	r2,r3,42418 <___vfprintf_internal_r+0x13f8>
   41fe8:	4a400204 	addi	r9,r9,8
   41fec:	d8813717 	ldw	r2,1244(sp)
   41ff0:	48800015 	stw	r2,0(r9)
   41ff4:	00800044 	movi	r2,1
   41ff8:	48800115 	stw	r2,4(r9)
   41ffc:	4091883a 	add	r8,r8,r2
   42000:	1887883a 	add	r3,r3,r2
   42004:	da011d15 	stw	r8,1140(sp)
   42008:	d8c11c15 	stw	r3,1136(sp)
   4200c:	008001c4 	movi	r2,7
   42010:	10c10a16 	blt	r2,r3,4243c <___vfprintf_internal_r+0x141c>
   42014:	4c800204 	addi	r18,r9,8
   42018:	d9013317 	ldw	r4,1228(sp)
   4201c:	d9413417 	ldw	r5,1232(sp)
   42020:	000d883a 	mov	r6,zero
   42024:	000f883a 	mov	r7,zero
   42028:	d8c13b15 	stw	r3,1260(sp)
   4202c:	da013a15 	stw	r8,1256(sp)
   42030:	0049b240 	call	49b24 <__nedf2>
   42034:	d8c13b17 	ldw	r3,1260(sp)
   42038:	da013a17 	ldw	r8,1256(sp)
   4203c:	1000ba26 	beq	r2,zero,42328 <___vfprintf_internal_r+0x1308>
   42040:	d9013217 	ldw	r4,1224(sp)
   42044:	9cc00044 	addi	r19,r19,1
   42048:	94c00015 	stw	r19,0(r18)
   4204c:	20bfffc4 	addi	r2,r4,-1
   42050:	90800115 	stw	r2,4(r18)
   42054:	4091883a 	add	r8,r8,r2
   42058:	18c00044 	addi	r3,r3,1
   4205c:	da011d15 	stw	r8,1140(sp)
   42060:	d8c11c15 	stw	r3,1136(sp)
   42064:	008001c4 	movi	r2,7
   42068:	10c0e216 	blt	r2,r3,423f4 <___vfprintf_internal_r+0x13d4>
   4206c:	94800204 	addi	r18,r18,8
   42070:	d9013517 	ldw	r4,1236(sp)
   42074:	d8811fc4 	addi	r2,sp,1151
   42078:	90800015 	stw	r2,0(r18)
   4207c:	91000115 	stw	r4,4(r18)
   42080:	4111883a 	add	r8,r8,r4
   42084:	18c00044 	addi	r3,r3,1
   42088:	da011d15 	stw	r8,1140(sp)
   4208c:	d8c11c15 	stw	r3,1136(sp)
   42090:	008001c4 	movi	r2,7
   42094:	10ff2316 	blt	r2,r3,41d24 <___vfprintf_internal_r+0xd04>
   42098:	92400204 	addi	r9,r18,8
   4209c:	003ecf06 	br	41bdc <___vfprintf_internal_r+0xbbc>
   420a0:	d9412917 	ldw	r5,1188(sp)
   420a4:	8809883a 	mov	r4,r17
   420a8:	d9811b04 	addi	r6,sp,1132
   420ac:	0040fec0 	call	40fec <__sprint_r>
   420b0:	103d211e 	bne	r2,zero,41538 <___vfprintf_internal_r+0x518>
   420b4:	da011d17 	ldw	r8,1140(sp)
   420b8:	d8c11c17 	ldw	r3,1136(sp)
   420bc:	da400404 	addi	r9,sp,16
   420c0:	003eba06 	br	41bac <___vfprintf_internal_r+0xb8c>
   420c4:	d9412917 	ldw	r5,1188(sp)
   420c8:	8809883a 	mov	r4,r17
   420cc:	d9811b04 	addi	r6,sp,1132
   420d0:	0040fec0 	call	40fec <__sprint_r>
   420d4:	103d181e 	bne	r2,zero,41538 <___vfprintf_internal_r+0x518>
   420d8:	da011d17 	ldw	r8,1140(sp)
   420dc:	d8c11c17 	ldw	r3,1136(sp)
   420e0:	da400404 	addi	r9,sp,16
   420e4:	003e8006 	br	41ae8 <___vfprintf_internal_r+0xac8>
   420e8:	d9412917 	ldw	r5,1188(sp)
   420ec:	8809883a 	mov	r4,r17
   420f0:	d9811b04 	addi	r6,sp,1132
   420f4:	0040fec0 	call	40fec <__sprint_r>
   420f8:	103d0f1e 	bne	r2,zero,41538 <___vfprintf_internal_r+0x518>
   420fc:	da011d17 	ldw	r8,1140(sp)
   42100:	d8c11c17 	ldw	r3,1136(sp)
   42104:	da400404 	addi	r9,sp,16
   42108:	003e6a06 	br	41ab4 <___vfprintf_internal_r+0xa94>
   4210c:	d9413617 	ldw	r5,1240(sp)
   42110:	d8810dc4 	addi	r2,sp,1079
   42114:	b8c003cc 	andi	r3,r23,15
   42118:	b008973a 	slli	r4,r22,28
   4211c:	28c7883a 	add	r3,r5,r3
   42120:	b82ed13a 	srli	r23,r23,4
   42124:	18c00003 	ldbu	r3,0(r3)
   42128:	b02cd13a 	srli	r22,r22,4
   4212c:	25eeb03a 	or	r23,r4,r23
   42130:	10c00005 	stb	r3,0(r2)
   42134:	bd86b03a 	or	r3,r23,r22
   42138:	1027883a 	mov	r19,r2
   4213c:	10bfffc4 	addi	r2,r2,-1
   42140:	183ff41e 	bne	r3,zero,42114 <___vfprintf_internal_r+0x10f4>
   42144:	003f1a06 	br	41db0 <___vfprintf_internal_r+0xd90>
   42148:	d8012b15 	stw	zero,1196(sp)
   4214c:	dcc10e04 	addi	r19,sp,1080
   42150:	003d3a06 	br	4163c <___vfprintf_internal_r+0x61c>
   42154:	b0025426 	beq	r22,zero,42aa8 <___vfprintf_internal_r+0x1a88>
   42158:	b807883a 	mov	r3,r23
   4215c:	d8810dc4 	addi	r2,sp,1079
   42160:	882f883a 	mov	r23,r17
   42164:	04c00244 	movi	r19,9
   42168:	8023883a 	mov	r17,r16
   4216c:	da412815 	stw	r9,1184(sp)
   42170:	1821883a 	mov	r16,r3
   42174:	8009883a 	mov	r4,r16
   42178:	b00b883a 	mov	r5,r22
   4217c:	01800284 	movi	r6,10
   42180:	000f883a 	mov	r7,zero
   42184:	1029883a 	mov	r20,r2
   42188:	0048c000 	call	48c00 <__umoddi3>
   4218c:	10800c04 	addi	r2,r2,48
   42190:	8009883a 	mov	r4,r16
   42194:	b00b883a 	mov	r5,r22
   42198:	a0800005 	stb	r2,0(r20)
   4219c:	01800284 	movi	r6,10
   421a0:	000f883a 	mov	r7,zero
   421a4:	00485b00 	call	485b0 <__udivdi3>
   421a8:	1021883a 	mov	r16,r2
   421ac:	182d883a 	mov	r22,r3
   421b0:	a0bfffc4 	addi	r2,r20,-1
   421b4:	183fef1e 	bne	r3,zero,42174 <___vfprintf_internal_r+0x1154>
   421b8:	9c3fee36 	bltu	r19,r16,42174 <___vfprintf_internal_r+0x1154>
   421bc:	da412817 	ldw	r9,1184(sp)
   421c0:	8005883a 	mov	r2,r16
   421c4:	8821883a 	mov	r16,r17
   421c8:	b823883a 	mov	r17,r23
   421cc:	102f883a 	mov	r23,r2
   421d0:	d8812717 	ldw	r2,1180(sp)
   421d4:	a4ffffc4 	addi	r19,r20,-1
   421d8:	bdc00c04 	addi	r23,r23,48
   421dc:	14c5c83a 	sub	r2,r2,r19
   421e0:	a5ffffc5 	stb	r23,-1(r20)
   421e4:	d8812b15 	stw	r2,1196(sp)
   421e8:	003d1406 	br	4163c <___vfprintf_internal_r+0x61c>
   421ec:	00c00044 	movi	r3,1
   421f0:	bd84b03a 	or	r2,r23,r22
   421f4:	003d0306 	br	41604 <___vfprintf_internal_r+0x5e4>
   421f8:	dc812417 	ldw	r18,1168(sp)
   421fc:	0481140e 	bge	zero,r18,42650 <___vfprintf_internal_r+0x1630>
   42200:	d9013217 	ldw	r4,1224(sp)
   42204:	4cc00015 	stw	r19,0(r9)
   42208:	9100ec16 	blt	r18,r4,425bc <___vfprintf_internal_r+0x159c>
   4220c:	49000115 	stw	r4,4(r9)
   42210:	4111883a 	add	r8,r8,r4
   42214:	18c00044 	addi	r3,r3,1
   42218:	da011d15 	stw	r8,1140(sp)
   4221c:	d8c11c15 	stw	r3,1136(sp)
   42220:	008001c4 	movi	r2,7
   42224:	10c23616 	blt	r2,r3,42b00 <___vfprintf_internal_r+0x1ae0>
   42228:	4a400204 	addi	r9,r9,8
   4222c:	d8813217 	ldw	r2,1224(sp)
   42230:	90a5c83a 	sub	r18,r18,r2
   42234:	04beae0e 	bge	zero,r18,41cf0 <___vfprintf_internal_r+0xcd0>
   42238:	04c00404 	movi	r19,16
   4223c:	d8c11c17 	ldw	r3,1136(sp)
   42240:	05000174 	movhi	r20,5
   42244:	a5350884 	addi	r20,r20,-11230
   42248:	9c81dd0e 	bge	r19,r18,429c0 <___vfprintf_internal_r+0x19a0>
   4224c:	058001c4 	movi	r22,7
   42250:	ddc12917 	ldw	r23,1188(sp)
   42254:	00000306 	br	42264 <___vfprintf_internal_r+0x1244>
   42258:	4a400204 	addi	r9,r9,8
   4225c:	94bffc04 	addi	r18,r18,-16
   42260:	9c81d70e 	bge	r19,r18,429c0 <___vfprintf_internal_r+0x19a0>
   42264:	4d000015 	stw	r20,0(r9)
   42268:	4cc00115 	stw	r19,4(r9)
   4226c:	42000404 	addi	r8,r8,16
   42270:	18c00044 	addi	r3,r3,1
   42274:	da011d15 	stw	r8,1140(sp)
   42278:	d8c11c15 	stw	r3,1136(sp)
   4227c:	b0fff60e 	bge	r22,r3,42258 <___vfprintf_internal_r+0x1238>
   42280:	8809883a 	mov	r4,r17
   42284:	b80b883a 	mov	r5,r23
   42288:	d9811b04 	addi	r6,sp,1132
   4228c:	0040fec0 	call	40fec <__sprint_r>
   42290:	103ca91e 	bne	r2,zero,41538 <___vfprintf_internal_r+0x518>
   42294:	da011d17 	ldw	r8,1140(sp)
   42298:	d8c11c17 	ldw	r3,1136(sp)
   4229c:	da400404 	addi	r9,sp,16
   422a0:	003fee06 	br	4225c <___vfprintf_internal_r+0x123c>
   422a4:	d9412917 	ldw	r5,1188(sp)
   422a8:	8809883a 	mov	r4,r17
   422ac:	d9811b04 	addi	r6,sp,1132
   422b0:	0040fec0 	call	40fec <__sprint_r>
   422b4:	103ca01e 	bne	r2,zero,41538 <___vfprintf_internal_r+0x518>
   422b8:	da011d17 	ldw	r8,1140(sp)
   422bc:	d8c11c17 	ldw	r3,1136(sp)
   422c0:	da400404 	addi	r9,sp,16
   422c4:	003dee06 	br	41a80 <___vfprintf_internal_r+0xa60>
   422c8:	00c00084 	movi	r3,2
   422cc:	bd84b03a 	or	r2,r23,r22
   422d0:	d8012585 	stb	zero,1174(sp)
   422d4:	003ccb06 	br	41604 <___vfprintf_internal_r+0x5e4>
   422d8:	8080040c 	andi	r2,r16,16
   422dc:	1000ae26 	beq	r2,zero,42598 <___vfprintf_internal_r+0x1578>
   422e0:	d9012d17 	ldw	r4,1204(sp)
   422e4:	25c00017 	ldw	r23,0(r4)
   422e8:	21000104 	addi	r4,r4,4
   422ec:	d9012d15 	stw	r4,1204(sp)
   422f0:	b82dd7fa 	srai	r22,r23,31
   422f4:	b005883a 	mov	r2,r22
   422f8:	003cb906 	br	415e0 <___vfprintf_internal_r+0x5c0>
   422fc:	8080040c 	andi	r2,r16,16
   42300:	10007026 	beq	r2,zero,424c4 <___vfprintf_internal_r+0x14a4>
   42304:	d8812d17 	ldw	r2,1204(sp)
   42308:	002d883a 	mov	r22,zero
   4230c:	00c00044 	movi	r3,1
   42310:	15c00017 	ldw	r23,0(r2)
   42314:	10800104 	addi	r2,r2,4
   42318:	d8812d15 	stw	r2,1204(sp)
   4231c:	d8012585 	stb	zero,1174(sp)
   42320:	b805883a 	mov	r2,r23
   42324:	003cb706 	br	41604 <___vfprintf_internal_r+0x5e4>
   42328:	d8813217 	ldw	r2,1224(sp)
   4232c:	14ffffc4 	addi	r19,r2,-1
   42330:	04ff4f0e 	bge	zero,r19,42070 <___vfprintf_internal_r+0x1050>
   42334:	05800404 	movi	r22,16
   42338:	05000174 	movhi	r20,5
   4233c:	a5350884 	addi	r20,r20,-11230
   42340:	b4c0470e 	bge	r22,r19,42460 <___vfprintf_internal_r+0x1440>
   42344:	05c001c4 	movi	r23,7
   42348:	df012917 	ldw	fp,1188(sp)
   4234c:	00000306 	br	4235c <___vfprintf_internal_r+0x133c>
   42350:	94800204 	addi	r18,r18,8
   42354:	9cfffc04 	addi	r19,r19,-16
   42358:	b4c0410e 	bge	r22,r19,42460 <___vfprintf_internal_r+0x1440>
   4235c:	95000015 	stw	r20,0(r18)
   42360:	95800115 	stw	r22,4(r18)
   42364:	42000404 	addi	r8,r8,16
   42368:	18c00044 	addi	r3,r3,1
   4236c:	da011d15 	stw	r8,1140(sp)
   42370:	d8c11c15 	stw	r3,1136(sp)
   42374:	b8fff60e 	bge	r23,r3,42350 <___vfprintf_internal_r+0x1330>
   42378:	8809883a 	mov	r4,r17
   4237c:	e00b883a 	mov	r5,fp
   42380:	d9811b04 	addi	r6,sp,1132
   42384:	0040fec0 	call	40fec <__sprint_r>
   42388:	103c6b1e 	bne	r2,zero,41538 <___vfprintf_internal_r+0x518>
   4238c:	da011d17 	ldw	r8,1140(sp)
   42390:	d8c11c17 	ldw	r3,1136(sp)
   42394:	dc800404 	addi	r18,sp,16
   42398:	003fee06 	br	42354 <___vfprintf_internal_r+0x1334>
   4239c:	8080040c 	andi	r2,r16,16
   423a0:	10005326 	beq	r2,zero,424f0 <___vfprintf_internal_r+0x14d0>
   423a4:	d8c12d17 	ldw	r3,1204(sp)
   423a8:	002d883a 	mov	r22,zero
   423ac:	1dc00017 	ldw	r23,0(r3)
   423b0:	18c00104 	addi	r3,r3,4
   423b4:	d8c12d15 	stw	r3,1204(sp)
   423b8:	b805883a 	mov	r2,r23
   423bc:	0007883a 	mov	r3,zero
   423c0:	d8012585 	stb	zero,1174(sp)
   423c4:	003c8f06 	br	41604 <___vfprintf_internal_r+0x5e4>
   423c8:	8088703a 	and	r4,r16,r2
   423cc:	203efe1e 	bne	r4,zero,41fc8 <___vfprintf_internal_r+0xfa8>
   423d0:	48800115 	stw	r2,4(r9)
   423d4:	42000044 	addi	r8,r8,1
   423d8:	18c00044 	addi	r3,r3,1
   423dc:	da011d15 	stw	r8,1140(sp)
   423e0:	d8c11c15 	stw	r3,1136(sp)
   423e4:	008001c4 	movi	r2,7
   423e8:	10c00216 	blt	r2,r3,423f4 <___vfprintf_internal_r+0x13d4>
   423ec:	4c800204 	addi	r18,r9,8
   423f0:	003f1f06 	br	42070 <___vfprintf_internal_r+0x1050>
   423f4:	d9412917 	ldw	r5,1188(sp)
   423f8:	8809883a 	mov	r4,r17
   423fc:	d9811b04 	addi	r6,sp,1132
   42400:	0040fec0 	call	40fec <__sprint_r>
   42404:	103c4c1e 	bne	r2,zero,41538 <___vfprintf_internal_r+0x518>
   42408:	dc800404 	addi	r18,sp,16
   4240c:	da011d17 	ldw	r8,1140(sp)
   42410:	d8c11c17 	ldw	r3,1136(sp)
   42414:	003f1606 	br	42070 <___vfprintf_internal_r+0x1050>
   42418:	d9412917 	ldw	r5,1188(sp)
   4241c:	8809883a 	mov	r4,r17
   42420:	d9811b04 	addi	r6,sp,1132
   42424:	0040fec0 	call	40fec <__sprint_r>
   42428:	103c431e 	bne	r2,zero,41538 <___vfprintf_internal_r+0x518>
   4242c:	da011d17 	ldw	r8,1140(sp)
   42430:	d8c11c17 	ldw	r3,1136(sp)
   42434:	da400404 	addi	r9,sp,16
   42438:	003eec06 	br	41fec <___vfprintf_internal_r+0xfcc>
   4243c:	d9412917 	ldw	r5,1188(sp)
   42440:	8809883a 	mov	r4,r17
   42444:	d9811b04 	addi	r6,sp,1132
   42448:	0040fec0 	call	40fec <__sprint_r>
   4244c:	103c3a1e 	bne	r2,zero,41538 <___vfprintf_internal_r+0x518>
   42450:	da011d17 	ldw	r8,1140(sp)
   42454:	d8c11c17 	ldw	r3,1136(sp)
   42458:	dc800404 	addi	r18,sp,16
   4245c:	003eee06 	br	42018 <___vfprintf_internal_r+0xff8>
   42460:	95000015 	stw	r20,0(r18)
   42464:	94c00115 	stw	r19,4(r18)
   42468:	44d1883a 	add	r8,r8,r19
   4246c:	003efa06 	br	42058 <___vfprintf_internal_r+0x1038>
   42470:	d9412917 	ldw	r5,1188(sp)
   42474:	8809883a 	mov	r4,r17
   42478:	d9811b04 	addi	r6,sp,1132
   4247c:	0040fec0 	call	40fec <__sprint_r>
   42480:	103c2d1e 	bne	r2,zero,41538 <___vfprintf_internal_r+0x518>
   42484:	da011d17 	ldw	r8,1140(sp)
   42488:	d8c11c17 	ldw	r3,1136(sp)
   4248c:	da400404 	addi	r9,sp,16
   42490:	003d9806 	br	41af4 <___vfprintf_internal_r+0xad4>
   42494:	8080100c 	andi	r2,r16,64
   42498:	10011626 	beq	r2,zero,428f4 <___vfprintf_internal_r+0x18d4>
   4249c:	d8c12d17 	ldw	r3,1204(sp)
   424a0:	002d883a 	mov	r22,zero
   424a4:	1dc0000b 	ldhu	r23,0(r3)
   424a8:	18c00104 	addi	r3,r3,4
   424ac:	d8c12d15 	stw	r3,1204(sp)
   424b0:	003cc106 	br	417b8 <___vfprintf_internal_r+0x798>
   424b4:	4d000015 	stw	r20,0(r9)
   424b8:	4c800115 	stw	r18,4(r9)
   424bc:	4491883a 	add	r8,r8,r18
   424c0:	003dc006 	br	41bc4 <___vfprintf_internal_r+0xba4>
   424c4:	8080100c 	andi	r2,r16,64
   424c8:	10010126 	beq	r2,zero,428d0 <___vfprintf_internal_r+0x18b0>
   424cc:	d8c12d17 	ldw	r3,1204(sp)
   424d0:	002d883a 	mov	r22,zero
   424d4:	1dc0000b 	ldhu	r23,0(r3)
   424d8:	18c00104 	addi	r3,r3,4
   424dc:	d8c12d15 	stw	r3,1204(sp)
   424e0:	b805883a 	mov	r2,r23
   424e4:	00c00044 	movi	r3,1
   424e8:	d8012585 	stb	zero,1174(sp)
   424ec:	003c4506 	br	41604 <___vfprintf_internal_r+0x5e4>
   424f0:	8080100c 	andi	r2,r16,64
   424f4:	10010526 	beq	r2,zero,4290c <___vfprintf_internal_r+0x18ec>
   424f8:	d9012d17 	ldw	r4,1204(sp)
   424fc:	002d883a 	mov	r22,zero
   42500:	0007883a 	mov	r3,zero
   42504:	25c0000b 	ldhu	r23,0(r4)
   42508:	21000104 	addi	r4,r4,4
   4250c:	d9012d15 	stw	r4,1204(sp)
   42510:	b805883a 	mov	r2,r23
   42514:	d8012585 	stb	zero,1174(sp)
   42518:	003c3a06 	br	41604 <___vfprintf_internal_r+0x5e4>
   4251c:	d8812d17 	ldw	r2,1204(sp)
   42520:	15800017 	ldw	r22,0(r2)
   42524:	15000117 	ldw	r20,4(r2)
   42528:	10800204 	addi	r2,r2,8
   4252c:	d8812d15 	stw	r2,1204(sp)
   42530:	dd813315 	stw	r22,1228(sp)
   42534:	dd013415 	stw	r20,1232(sp)
   42538:	003c5906 	br	416a0 <___vfprintf_internal_r+0x680>
   4253c:	00c00084 	movi	r3,2
   42540:	d8012585 	stb	zero,1174(sp)
   42544:	003c2f06 	br	41604 <___vfprintf_internal_r+0x5e4>
   42548:	ac800007 	ldb	r18,0(r21)
   4254c:	003b1006 	br	41190 <___vfprintf_internal_r+0x170>
   42550:	8080040c 	andi	r2,r16,16
   42554:	1000091e 	bne	r2,zero,4257c <___vfprintf_internal_r+0x155c>
   42558:	8400100c 	andi	r16,r16,64
   4255c:	80000726 	beq	r16,zero,4257c <___vfprintf_internal_r+0x155c>
   42560:	d8c12d17 	ldw	r3,1204(sp)
   42564:	d9012c17 	ldw	r4,1200(sp)
   42568:	18800017 	ldw	r2,0(r3)
   4256c:	18c00104 	addi	r3,r3,4
   42570:	d8c12d15 	stw	r3,1204(sp)
   42574:	1100000d 	sth	r4,0(r2)
   42578:	003adf06 	br	410f8 <___vfprintf_internal_r+0xd8>
   4257c:	d8c12d17 	ldw	r3,1204(sp)
   42580:	d9012c17 	ldw	r4,1200(sp)
   42584:	18800017 	ldw	r2,0(r3)
   42588:	18c00104 	addi	r3,r3,4
   4258c:	d8c12d15 	stw	r3,1204(sp)
   42590:	11000015 	stw	r4,0(r2)
   42594:	003ad806 	br	410f8 <___vfprintf_internal_r+0xd8>
   42598:	8080100c 	andi	r2,r16,64
   4259c:	1000c526 	beq	r2,zero,428b4 <___vfprintf_internal_r+0x1894>
   425a0:	d8812d17 	ldw	r2,1204(sp)
   425a4:	15c0000f 	ldh	r23,0(r2)
   425a8:	10800104 	addi	r2,r2,4
   425ac:	d8812d15 	stw	r2,1204(sp)
   425b0:	b82dd7fa 	srai	r22,r23,31
   425b4:	b005883a 	mov	r2,r22
   425b8:	003c0906 	br	415e0 <___vfprintf_internal_r+0x5c0>
   425bc:	4c800115 	stw	r18,4(r9)
   425c0:	9211883a 	add	r8,r18,r8
   425c4:	18c00044 	addi	r3,r3,1
   425c8:	da011d15 	stw	r8,1140(sp)
   425cc:	d8c11c15 	stw	r3,1136(sp)
   425d0:	008001c4 	movi	r2,7
   425d4:	10c14016 	blt	r2,r3,42ad8 <___vfprintf_internal_r+0x1ab8>
   425d8:	4a400204 	addi	r9,r9,8
   425dc:	d8813717 	ldw	r2,1244(sp)
   425e0:	9ca7883a 	add	r19,r19,r18
   425e4:	48800015 	stw	r2,0(r9)
   425e8:	00800044 	movi	r2,1
   425ec:	48800115 	stw	r2,4(r9)
   425f0:	4091883a 	add	r8,r8,r2
   425f4:	1887883a 	add	r3,r3,r2
   425f8:	da011d15 	stw	r8,1140(sp)
   425fc:	d8c11c15 	stw	r3,1136(sp)
   42600:	008001c4 	movi	r2,7
   42604:	10c12c16 	blt	r2,r3,42ab8 <___vfprintf_internal_r+0x1a98>
   42608:	4a400204 	addi	r9,r9,8
   4260c:	d9013217 	ldw	r4,1224(sp)
   42610:	da011d17 	ldw	r8,1140(sp)
   42614:	d8c11c17 	ldw	r3,1136(sp)
   42618:	24a5c83a 	sub	r18,r4,r18
   4261c:	4cc00015 	stw	r19,0(r9)
   42620:	003fa506 	br	424b8 <___vfprintf_internal_r+0x1498>
   42624:	04c00174 	movhi	r19,5
   42628:	9cf4f504 	addi	r19,r19,-11308
   4262c:	003c2e06 	br	416e8 <___vfprintf_internal_r+0x6c8>
   42630:	d9412917 	ldw	r5,1188(sp)
   42634:	8809883a 	mov	r4,r17
   42638:	d9811b04 	addi	r6,sp,1132
   4263c:	0040fec0 	call	40fec <__sprint_r>
   42640:	103bbd1e 	bne	r2,zero,41538 <___vfprintf_internal_r+0x518>
   42644:	da011d17 	ldw	r8,1140(sp)
   42648:	da400404 	addi	r9,sp,16
   4264c:	003df606 	br	41e28 <___vfprintf_internal_r+0xe08>
   42650:	00800174 	movhi	r2,5
   42654:	10b50404 	addi	r2,r2,-11248
   42658:	48800015 	stw	r2,0(r9)
   4265c:	00800044 	movi	r2,1
   42660:	48800115 	stw	r2,4(r9)
   42664:	4091883a 	add	r8,r8,r2
   42668:	1887883a 	add	r3,r3,r2
   4266c:	da011d15 	stw	r8,1140(sp)
   42670:	d8c11c15 	stw	r3,1136(sp)
   42674:	008001c4 	movi	r2,7
   42678:	10c0bc16 	blt	r2,r3,4296c <___vfprintf_internal_r+0x194c>
   4267c:	4a400204 	addi	r9,r9,8
   42680:	9000041e 	bne	r18,zero,42694 <___vfprintf_internal_r+0x1674>
   42684:	d8c13217 	ldw	r3,1224(sp)
   42688:	1800021e 	bne	r3,zero,42694 <___vfprintf_internal_r+0x1674>
   4268c:	8080004c 	andi	r2,r16,1
   42690:	103d5226 	beq	r2,zero,41bdc <___vfprintf_internal_r+0xbbc>
   42694:	d8c11c17 	ldw	r3,1136(sp)
   42698:	d9013717 	ldw	r4,1244(sp)
   4269c:	00800044 	movi	r2,1
   426a0:	48800115 	stw	r2,4(r9)
   426a4:	49000015 	stw	r4,0(r9)
   426a8:	4091883a 	add	r8,r8,r2
   426ac:	1887883a 	add	r3,r3,r2
   426b0:	da011d15 	stw	r8,1140(sp)
   426b4:	d8c11c15 	stw	r3,1136(sp)
   426b8:	008001c4 	movi	r2,7
   426bc:	10c14516 	blt	r2,r3,42bd4 <___vfprintf_internal_r+0x1bb4>
   426c0:	4a400204 	addi	r9,r9,8
   426c4:	04a5c83a 	sub	r18,zero,r18
   426c8:	0480d70e 	bge	zero,r18,42a28 <___vfprintf_internal_r+0x1a08>
   426cc:	05800404 	movi	r22,16
   426d0:	05000174 	movhi	r20,5
   426d4:	a5350884 	addi	r20,r20,-11230
   426d8:	b480db0e 	bge	r22,r18,42a48 <___vfprintf_internal_r+0x1a28>
   426dc:	05c001c4 	movi	r23,7
   426e0:	df012917 	ldw	fp,1188(sp)
   426e4:	00000306 	br	426f4 <___vfprintf_internal_r+0x16d4>
   426e8:	4a400204 	addi	r9,r9,8
   426ec:	94bffc04 	addi	r18,r18,-16
   426f0:	b480d50e 	bge	r22,r18,42a48 <___vfprintf_internal_r+0x1a28>
   426f4:	4d000015 	stw	r20,0(r9)
   426f8:	4d800115 	stw	r22,4(r9)
   426fc:	42000404 	addi	r8,r8,16
   42700:	18c00044 	addi	r3,r3,1
   42704:	da011d15 	stw	r8,1140(sp)
   42708:	d8c11c15 	stw	r3,1136(sp)
   4270c:	b8fff60e 	bge	r23,r3,426e8 <___vfprintf_internal_r+0x16c8>
   42710:	8809883a 	mov	r4,r17
   42714:	e00b883a 	mov	r5,fp
   42718:	d9811b04 	addi	r6,sp,1132
   4271c:	0040fec0 	call	40fec <__sprint_r>
   42720:	103b851e 	bne	r2,zero,41538 <___vfprintf_internal_r+0x518>
   42724:	da011d17 	ldw	r8,1140(sp)
   42728:	d8c11c17 	ldw	r3,1136(sp)
   4272c:	da400404 	addi	r9,sp,16
   42730:	003fee06 	br	426ec <___vfprintf_internal_r+0x16cc>
   42734:	da413c15 	stw	r9,1264(sp)
   42738:	0047eac0 	call	47eac <__isnand>
   4273c:	da413c17 	ldw	r9,1264(sp)
   42740:	10007e1e 	bne	r2,zero,4293c <___vfprintf_internal_r+0x191c>
   42744:	00bfffc4 	movi	r2,-1
   42748:	e0816a26 	beq	fp,r2,42cf4 <___vfprintf_internal_r+0x1cd4>
   4274c:	008019c4 	movi	r2,103
   42750:	90816526 	beq	r18,r2,42ce8 <___vfprintf_internal_r+0x1cc8>
   42754:	008011c4 	movi	r2,71
   42758:	90816326 	beq	r18,r2,42ce8 <___vfprintf_internal_r+0x1cc8>
   4275c:	80c04014 	ori	r3,r16,256
   42760:	d8c12a15 	stw	r3,1192(sp)
   42764:	a0016516 	blt	r20,zero,42cfc <___vfprintf_internal_r+0x1cdc>
   42768:	d8012f05 	stb	zero,1212(sp)
   4276c:	00801984 	movi	r2,102
   42770:	9080f226 	beq	r18,r2,42b3c <___vfprintf_internal_r+0x1b1c>
   42774:	00801184 	movi	r2,70
   42778:	9080f026 	beq	r18,r2,42b3c <___vfprintf_internal_r+0x1b1c>
   4277c:	00801944 	movi	r2,101
   42780:	90818d26 	beq	r18,r2,42db8 <___vfprintf_internal_r+0x1d98>
   42784:	00801144 	movi	r2,69
   42788:	90818b26 	beq	r18,r2,42db8 <___vfprintf_internal_r+0x1d98>
   4278c:	e02f883a 	mov	r23,fp
   42790:	d8812404 	addi	r2,sp,1168
   42794:	d8800115 	stw	r2,4(sp)
   42798:	d8812304 	addi	r2,sp,1164
   4279c:	d8800215 	stw	r2,8(sp)
   427a0:	d8812204 	addi	r2,sp,1160
   427a4:	ddc00015 	stw	r23,0(sp)
   427a8:	d8800315 	stw	r2,12(sp)
   427ac:	8809883a 	mov	r4,r17
   427b0:	b00b883a 	mov	r5,r22
   427b4:	a00d883a 	mov	r6,r20
   427b8:	01c00084 	movi	r7,2
   427bc:	da413c15 	stw	r9,1264(sp)
   427c0:	00434100 	call	43410 <_dtoa_r>
   427c4:	1027883a 	mov	r19,r2
   427c8:	008019c4 	movi	r2,103
   427cc:	da413c17 	ldw	r9,1264(sp)
   427d0:	9081951e 	bne	r18,r2,42e28 <___vfprintf_internal_r+0x1e08>
   427d4:	8080004c 	andi	r2,r16,1
   427d8:	10017926 	beq	r2,zero,42dc0 <___vfprintf_internal_r+0x1da0>
   427dc:	00801184 	movi	r2,70
   427e0:	9dc7883a 	add	r3,r19,r23
   427e4:	9080e626 	beq	r18,r2,42b80 <___vfprintf_internal_r+0x1b60>
   427e8:	b009883a 	mov	r4,r22
   427ec:	a00b883a 	mov	r5,r20
   427f0:	000d883a 	mov	r6,zero
   427f4:	000f883a 	mov	r7,zero
   427f8:	d8c13b15 	stw	r3,1260(sp)
   427fc:	da413c15 	stw	r9,1264(sp)
   42800:	0049ac80 	call	49ac8 <__eqdf2>
   42804:	d8c13b17 	ldw	r3,1260(sp)
   42808:	da413c17 	ldw	r9,1264(sp)
   4280c:	10000726 	beq	r2,zero,4282c <___vfprintf_internal_r+0x180c>
   42810:	d8812217 	ldw	r2,1160(sp)
   42814:	10c18a2e 	bgeu	r2,r3,42e40 <___vfprintf_internal_r+0x1e20>
   42818:	01000c04 	movi	r4,48
   4281c:	11000005 	stb	r4,0(r2)
   42820:	10800044 	addi	r2,r2,1
   42824:	d8812215 	stw	r2,1160(sp)
   42828:	10fffc1e 	bne	r2,r3,4281c <___vfprintf_internal_r+0x17fc>
   4282c:	1cc7c83a 	sub	r3,r3,r19
   42830:	d8c13215 	stw	r3,1224(sp)
   42834:	008019c4 	movi	r2,103
   42838:	9080fa26 	beq	r18,r2,42c24 <___vfprintf_internal_r+0x1c04>
   4283c:	008011c4 	movi	r2,71
   42840:	9080f826 	beq	r18,r2,42c24 <___vfprintf_internal_r+0x1c04>
   42844:	00801984 	movi	r2,102
   42848:	90818e1e 	bne	r18,r2,42e84 <___vfprintf_internal_r+0x1e64>
   4284c:	d8812417 	ldw	r2,1168(sp)
   42850:	d8812b15 	stw	r2,1196(sp)
   42854:	00817c0e 	bge	zero,r2,42e48 <___vfprintf_internal_r+0x1e28>
   42858:	e000021e 	bne	fp,zero,42864 <___vfprintf_internal_r+0x1844>
   4285c:	8400004c 	andi	r16,r16,1
   42860:	80000426 	beq	r16,zero,42874 <___vfprintf_internal_r+0x1854>
   42864:	d8812b17 	ldw	r2,1196(sp)
   42868:	e2000044 	addi	r8,fp,1
   4286c:	1205883a 	add	r2,r2,r8
   42870:	d8812b15 	stw	r2,1196(sp)
   42874:	d8812815 	stw	r2,1184(sp)
   42878:	10010b16 	blt	r2,zero,42ca8 <___vfprintf_internal_r+0x1c88>
   4287c:	ddc12f07 	ldb	r23,1212(sp)
   42880:	b800e426 	beq	r23,zero,42c14 <___vfprintf_internal_r+0x1bf4>
   42884:	00800b44 	movi	r2,45
   42888:	d8812585 	stb	r2,1174(sp)
   4288c:	dc012a17 	ldw	r16,1192(sp)
   42890:	d8013115 	stw	zero,1220(sp)
   42894:	003b7306 	br	41664 <___vfprintf_internal_r+0x644>
   42898:	d8812b17 	ldw	r2,1196(sp)
   4289c:	d8812815 	stw	r2,1184(sp)
   428a0:	10005716 	blt	r2,zero,42a00 <___vfprintf_internal_r+0x19e0>
   428a4:	d8812583 	ldbu	r2,1174(sp)
   428a8:	ddc12d15 	stw	r23,1204(sp)
   428ac:	d8013115 	stw	zero,1220(sp)
   428b0:	003b6806 	br	41654 <___vfprintf_internal_r+0x634>
   428b4:	d8c12d17 	ldw	r3,1204(sp)
   428b8:	1dc00017 	ldw	r23,0(r3)
   428bc:	18c00104 	addi	r3,r3,4
   428c0:	d8c12d15 	stw	r3,1204(sp)
   428c4:	b82dd7fa 	srai	r22,r23,31
   428c8:	b005883a 	mov	r2,r22
   428cc:	003b4406 	br	415e0 <___vfprintf_internal_r+0x5c0>
   428d0:	d9012d17 	ldw	r4,1204(sp)
   428d4:	002d883a 	mov	r22,zero
   428d8:	00c00044 	movi	r3,1
   428dc:	25c00017 	ldw	r23,0(r4)
   428e0:	21000104 	addi	r4,r4,4
   428e4:	d9012d15 	stw	r4,1204(sp)
   428e8:	b805883a 	mov	r2,r23
   428ec:	d8012585 	stb	zero,1174(sp)
   428f0:	003b4406 	br	41604 <___vfprintf_internal_r+0x5e4>
   428f4:	d9012d17 	ldw	r4,1204(sp)
   428f8:	002d883a 	mov	r22,zero
   428fc:	25c00017 	ldw	r23,0(r4)
   42900:	21000104 	addi	r4,r4,4
   42904:	d9012d15 	stw	r4,1204(sp)
   42908:	003bab06 	br	417b8 <___vfprintf_internal_r+0x798>
   4290c:	d8812d17 	ldw	r2,1204(sp)
   42910:	002d883a 	mov	r22,zero
   42914:	0007883a 	mov	r3,zero
   42918:	15c00017 	ldw	r23,0(r2)
   4291c:	10800104 	addi	r2,r2,4
   42920:	d8812d15 	stw	r2,1204(sp)
   42924:	d8012585 	stb	zero,1174(sp)
   42928:	b805883a 	mov	r2,r23
   4292c:	003b3506 	br	41604 <___vfprintf_internal_r+0x5e4>
   42930:	00ffffc4 	movi	r3,-1
   42934:	b82b883a 	mov	r21,r23
   42938:	003a1606 	br	41194 <___vfprintf_internal_r+0x174>
   4293c:	008011c4 	movi	r2,71
   42940:	1480b116 	blt	r2,r18,42c08 <___vfprintf_internal_r+0x1be8>
   42944:	04c00174 	movhi	r19,5
   42948:	9cf4f604 	addi	r19,r19,-11304
   4294c:	00c000c4 	movi	r3,3
   42950:	00bfdfc4 	movi	r2,-129
   42954:	80a0703a 	and	r16,r16,r2
   42958:	d8c12815 	stw	r3,1184(sp)
   4295c:	d8812583 	ldbu	r2,1174(sp)
   42960:	d8c12b15 	stw	r3,1196(sp)
   42964:	d8013115 	stw	zero,1220(sp)
   42968:	003b3a06 	br	41654 <___vfprintf_internal_r+0x634>
   4296c:	d9412917 	ldw	r5,1188(sp)
   42970:	8809883a 	mov	r4,r17
   42974:	d9811b04 	addi	r6,sp,1132
   42978:	0040fec0 	call	40fec <__sprint_r>
   4297c:	103aee1e 	bne	r2,zero,41538 <___vfprintf_internal_r+0x518>
   42980:	dc812417 	ldw	r18,1168(sp)
   42984:	da011d17 	ldw	r8,1140(sp)
   42988:	da400404 	addi	r9,sp,16
   4298c:	003f3c06 	br	42680 <___vfprintf_internal_r+0x1660>
   42990:	ad400044 	addi	r21,r21,1
   42994:	84000814 	ori	r16,r16,32
   42998:	14800047 	ldb	r18,1(r2)
   4299c:	0039fc06 	br	41190 <___vfprintf_internal_r+0x170>
   429a0:	d9412917 	ldw	r5,1188(sp)
   429a4:	8809883a 	mov	r4,r17
   429a8:	d9811b04 	addi	r6,sp,1132
   429ac:	0040fec0 	call	40fec <__sprint_r>
   429b0:	103ae11e 	bne	r2,zero,41538 <___vfprintf_internal_r+0x518>
   429b4:	da011d17 	ldw	r8,1140(sp)
   429b8:	da400404 	addi	r9,sp,16
   429bc:	003d2b06 	br	41e6c <___vfprintf_internal_r+0xe4c>
   429c0:	4d000015 	stw	r20,0(r9)
   429c4:	4c800115 	stw	r18,4(r9)
   429c8:	4491883a 	add	r8,r8,r18
   429cc:	18c00044 	addi	r3,r3,1
   429d0:	da011d15 	stw	r8,1140(sp)
   429d4:	d8c11c15 	stw	r3,1136(sp)
   429d8:	008001c4 	movi	r2,7
   429dc:	10fcbd16 	blt	r2,r3,41cd4 <___vfprintf_internal_r+0xcb4>
   429e0:	4a400204 	addi	r9,r9,8
   429e4:	003cc206 	br	41cf0 <___vfprintf_internal_r+0xcd0>
   429e8:	da413c15 	stw	r9,1264(sp)
   429ec:	0040f600 	call	40f60 <strlen>
   429f0:	d8812b15 	stw	r2,1196(sp)
   429f4:	d8812815 	stw	r2,1184(sp)
   429f8:	da413c17 	ldw	r9,1264(sp)
   429fc:	103fa90e 	bge	r2,zero,428a4 <___vfprintf_internal_r+0x1884>
   42a00:	d8012815 	stw	zero,1184(sp)
   42a04:	003fa706 	br	428a4 <___vfprintf_internal_r+0x1884>
   42a08:	d9412917 	ldw	r5,1188(sp)
   42a0c:	8809883a 	mov	r4,r17
   42a10:	d9811b04 	addi	r6,sp,1132
   42a14:	0040fec0 	call	40fec <__sprint_r>
   42a18:	103ac71e 	bne	r2,zero,41538 <___vfprintf_internal_r+0x518>
   42a1c:	da011d17 	ldw	r8,1140(sp)
   42a20:	d8c11c17 	ldw	r3,1136(sp)
   42a24:	da400404 	addi	r9,sp,16
   42a28:	d8813217 	ldw	r2,1224(sp)
   42a2c:	4cc00015 	stw	r19,0(r9)
   42a30:	48800115 	stw	r2,4(r9)
   42a34:	4091883a 	add	r8,r8,r2
   42a38:	003c6206 	br	41bc4 <___vfprintf_internal_r+0xba4>
   42a3c:	00800b44 	movi	r2,45
   42a40:	d8812585 	stb	r2,1174(sp)
   42a44:	003b2406 	br	416d8 <___vfprintf_internal_r+0x6b8>
   42a48:	4d000015 	stw	r20,0(r9)
   42a4c:	4c800115 	stw	r18,4(r9)
   42a50:	4491883a 	add	r8,r8,r18
   42a54:	18c00044 	addi	r3,r3,1
   42a58:	da011d15 	stw	r8,1140(sp)
   42a5c:	d8c11c15 	stw	r3,1136(sp)
   42a60:	008001c4 	movi	r2,7
   42a64:	10ffe816 	blt	r2,r3,42a08 <___vfprintf_internal_r+0x19e8>
   42a68:	4a400204 	addi	r9,r9,8
   42a6c:	003fee06 	br	42a28 <___vfprintf_internal_r+0x1a08>
   42a70:	d8c12b15 	stw	r3,1196(sp)
   42a74:	00800184 	movi	r2,6
   42a78:	10c0062e 	bgeu	r2,r3,42a94 <___vfprintf_internal_r+0x1a74>
   42a7c:	d8812b15 	stw	r2,1196(sp)
   42a80:	d8812815 	stw	r2,1184(sp)
   42a84:	ddc12d15 	stw	r23,1204(sp)
   42a88:	04c00174 	movhi	r19,5
   42a8c:	9cf50204 	addi	r19,r19,-11256
   42a90:	0039ca06 	br	411bc <___vfprintf_internal_r+0x19c>
   42a94:	d8812b17 	ldw	r2,1196(sp)
   42a98:	d8812815 	stw	r2,1184(sp)
   42a9c:	103ff90e 	bge	r2,zero,42a84 <___vfprintf_internal_r+0x1a64>
   42aa0:	d8012815 	stw	zero,1184(sp)
   42aa4:	003ff706 	br	42a84 <___vfprintf_internal_r+0x1a64>
   42aa8:	00800244 	movi	r2,9
   42aac:	15fdaa36 	bltu	r2,r23,42158 <___vfprintf_internal_r+0x1138>
   42ab0:	dd010e04 	addi	r20,sp,1080
   42ab4:	003dc606 	br	421d0 <___vfprintf_internal_r+0x11b0>
   42ab8:	d9412917 	ldw	r5,1188(sp)
   42abc:	8809883a 	mov	r4,r17
   42ac0:	d9811b04 	addi	r6,sp,1132
   42ac4:	0040fec0 	call	40fec <__sprint_r>
   42ac8:	103a9b1e 	bne	r2,zero,41538 <___vfprintf_internal_r+0x518>
   42acc:	dc812417 	ldw	r18,1168(sp)
   42ad0:	da400404 	addi	r9,sp,16
   42ad4:	003ecd06 	br	4260c <___vfprintf_internal_r+0x15ec>
   42ad8:	d9412917 	ldw	r5,1188(sp)
   42adc:	8809883a 	mov	r4,r17
   42ae0:	d9811b04 	addi	r6,sp,1132
   42ae4:	0040fec0 	call	40fec <__sprint_r>
   42ae8:	103a931e 	bne	r2,zero,41538 <___vfprintf_internal_r+0x518>
   42aec:	dc812417 	ldw	r18,1168(sp)
   42af0:	da011d17 	ldw	r8,1140(sp)
   42af4:	d8c11c17 	ldw	r3,1136(sp)
   42af8:	da400404 	addi	r9,sp,16
   42afc:	003eb706 	br	425dc <___vfprintf_internal_r+0x15bc>
   42b00:	d9412917 	ldw	r5,1188(sp)
   42b04:	8809883a 	mov	r4,r17
   42b08:	d9811b04 	addi	r6,sp,1132
   42b0c:	0040fec0 	call	40fec <__sprint_r>
   42b10:	103a891e 	bne	r2,zero,41538 <___vfprintf_internal_r+0x518>
   42b14:	dc812417 	ldw	r18,1168(sp)
   42b18:	da011d17 	ldw	r8,1140(sp)
   42b1c:	da400404 	addi	r9,sp,16
   42b20:	003dc206 	br	4222c <___vfprintf_internal_r+0x120c>
   42b24:	df012815 	stw	fp,1184(sp)
   42b28:	d8812583 	ldbu	r2,1174(sp)
   42b2c:	df012b15 	stw	fp,1196(sp)
   42b30:	ddc12d15 	stw	r23,1204(sp)
   42b34:	d8013115 	stw	zero,1220(sp)
   42b38:	003ac606 	br	41654 <___vfprintf_internal_r+0x634>
   42b3c:	d8812404 	addi	r2,sp,1168
   42b40:	d8800115 	stw	r2,4(sp)
   42b44:	d8812304 	addi	r2,sp,1164
   42b48:	d8800215 	stw	r2,8(sp)
   42b4c:	d8812204 	addi	r2,sp,1160
   42b50:	df000015 	stw	fp,0(sp)
   42b54:	d8800315 	stw	r2,12(sp)
   42b58:	8809883a 	mov	r4,r17
   42b5c:	b00b883a 	mov	r5,r22
   42b60:	a00d883a 	mov	r6,r20
   42b64:	01c000c4 	movi	r7,3
   42b68:	da413c15 	stw	r9,1264(sp)
   42b6c:	00434100 	call	43410 <_dtoa_r>
   42b70:	da413c17 	ldw	r9,1264(sp)
   42b74:	1027883a 	mov	r19,r2
   42b78:	1707883a 	add	r3,r2,fp
   42b7c:	e02f883a 	mov	r23,fp
   42b80:	99000007 	ldb	r4,0(r19)
   42b84:	00800c04 	movi	r2,48
   42b88:	20800326 	beq	r4,r2,42b98 <___vfprintf_internal_r+0x1b78>
   42b8c:	da812417 	ldw	r10,1168(sp)
   42b90:	1a87883a 	add	r3,r3,r10
   42b94:	003f1406 	br	427e8 <___vfprintf_internal_r+0x17c8>
   42b98:	b009883a 	mov	r4,r22
   42b9c:	a00b883a 	mov	r5,r20
   42ba0:	000d883a 	mov	r6,zero
   42ba4:	000f883a 	mov	r7,zero
   42ba8:	d8c13b15 	stw	r3,1260(sp)
   42bac:	da413c15 	stw	r9,1264(sp)
   42bb0:	0049b240 	call	49b24 <__nedf2>
   42bb4:	d8c13b17 	ldw	r3,1260(sp)
   42bb8:	da413c17 	ldw	r9,1264(sp)
   42bbc:	103ff326 	beq	r2,zero,42b8c <___vfprintf_internal_r+0x1b6c>
   42bc0:	00800044 	movi	r2,1
   42bc4:	15d5c83a 	sub	r10,r2,r23
   42bc8:	da812415 	stw	r10,1168(sp)
   42bcc:	1a87883a 	add	r3,r3,r10
   42bd0:	003f0506 	br	427e8 <___vfprintf_internal_r+0x17c8>
   42bd4:	d9412917 	ldw	r5,1188(sp)
   42bd8:	8809883a 	mov	r4,r17
   42bdc:	d9811b04 	addi	r6,sp,1132
   42be0:	0040fec0 	call	40fec <__sprint_r>
   42be4:	103a541e 	bne	r2,zero,41538 <___vfprintf_internal_r+0x518>
   42be8:	dc812417 	ldw	r18,1168(sp)
   42bec:	da011d17 	ldw	r8,1140(sp)
   42bf0:	d8c11c17 	ldw	r3,1136(sp)
   42bf4:	da400404 	addi	r9,sp,16
   42bf8:	003eb206 	br	426c4 <___vfprintf_internal_r+0x16a4>
   42bfc:	b82b883a 	mov	r21,r23
   42c00:	0007883a 	mov	r3,zero
   42c04:	00396306 	br	41194 <___vfprintf_internal_r+0x174>
   42c08:	04c00174 	movhi	r19,5
   42c0c:	9cf4f704 	addi	r19,r19,-11300
   42c10:	003f4e06 	br	4294c <___vfprintf_internal_r+0x192c>
   42c14:	d8812583 	ldbu	r2,1174(sp)
   42c18:	dc012a17 	ldw	r16,1192(sp)
   42c1c:	d8013115 	stw	zero,1220(sp)
   42c20:	003a8c06 	br	41654 <___vfprintf_internal_r+0x634>
   42c24:	d8812417 	ldw	r2,1168(sp)
   42c28:	d8812b15 	stw	r2,1196(sp)
   42c2c:	1029883a 	mov	r20,r2
   42c30:	00bfff44 	movi	r2,-3
   42c34:	a0800116 	blt	r20,r2,42c3c <___vfprintf_internal_r+0x1c1c>
   42c38:	e5001d0e 	bge	fp,r20,42cb0 <___vfprintf_internal_r+0x1c90>
   42c3c:	94bfff84 	addi	r18,r18,-2
   42c40:	a53fffc4 	addi	r20,r20,-1
   42c44:	dd012415 	stw	r20,1168(sp)
   42c48:	dc811fc5 	stb	r18,1151(sp)
   42c4c:	a0007216 	blt	r20,zero,42e18 <___vfprintf_internal_r+0x1df8>
   42c50:	00800ac4 	movi	r2,43
   42c54:	d8812005 	stb	r2,1152(sp)
   42c58:	00800244 	movi	r2,9
   42c5c:	15003516 	blt	r2,r20,42d34 <___vfprintf_internal_r+0x1d14>
   42c60:	00800c04 	movi	r2,48
   42c64:	a5000c04 	addi	r20,r20,48
   42c68:	d8812045 	stb	r2,1153(sp)
   42c6c:	dd012085 	stb	r20,1154(sp)
   42c70:	d8c120c4 	addi	r3,sp,1155
   42c74:	d8811fc4 	addi	r2,sp,1151
   42c78:	1885c83a 	sub	r2,r3,r2
   42c7c:	d8c13217 	ldw	r3,1224(sp)
   42c80:	d8813515 	stw	r2,1236(sp)
   42c84:	1885883a 	add	r2,r3,r2
   42c88:	d8812b15 	stw	r2,1196(sp)
   42c8c:	00800044 	movi	r2,1
   42c90:	10c0580e 	bge	r2,r3,42df4 <___vfprintf_internal_r+0x1dd4>
   42c94:	d8812b17 	ldw	r2,1196(sp)
   42c98:	10800044 	addi	r2,r2,1
   42c9c:	d8812b15 	stw	r2,1196(sp)
   42ca0:	d8812815 	stw	r2,1184(sp)
   42ca4:	103ef50e 	bge	r2,zero,4287c <___vfprintf_internal_r+0x185c>
   42ca8:	d8012815 	stw	zero,1184(sp)
   42cac:	003ef306 	br	4287c <___vfprintf_internal_r+0x185c>
   42cb0:	d8812b17 	ldw	r2,1196(sp)
   42cb4:	d8c13217 	ldw	r3,1224(sp)
   42cb8:	10c01416 	blt	r2,r3,42d0c <___vfprintf_internal_r+0x1cec>
   42cbc:	8400004c 	andi	r16,r16,1
   42cc0:	80000326 	beq	r16,zero,42cd0 <___vfprintf_internal_r+0x1cb0>
   42cc4:	d8812b17 	ldw	r2,1196(sp)
   42cc8:	10800044 	addi	r2,r2,1
   42ccc:	d8812b15 	stw	r2,1196(sp)
   42cd0:	d8812815 	stw	r2,1184(sp)
   42cd4:	10001416 	blt	r2,zero,42d28 <___vfprintf_internal_r+0x1d08>
   42cd8:	048019c4 	movi	r18,103
   42cdc:	003ee706 	br	4287c <___vfprintf_internal_r+0x185c>
   42ce0:	d8012815 	stw	zero,1184(sp)
   42ce4:	003b1a06 	br	41950 <___vfprintf_internal_r+0x930>
   42ce8:	e03e9c1e 	bne	fp,zero,4275c <___vfprintf_internal_r+0x173c>
   42cec:	07000044 	movi	fp,1
   42cf0:	003e9a06 	br	4275c <___vfprintf_internal_r+0x173c>
   42cf4:	07000184 	movi	fp,6
   42cf8:	003e9806 	br	4275c <___vfprintf_internal_r+0x173c>
   42cfc:	00c00b44 	movi	r3,45
   42d00:	a520003c 	xorhi	r20,r20,32768
   42d04:	d8c12f05 	stb	r3,1212(sp)
   42d08:	003e9806 	br	4276c <___vfprintf_internal_r+0x174c>
   42d0c:	05003f0e 	bge	zero,r20,42e0c <___vfprintf_internal_r+0x1dec>
   42d10:	05000044 	movi	r20,1
   42d14:	d8c13217 	ldw	r3,1224(sp)
   42d18:	a0e9883a 	add	r20,r20,r3
   42d1c:	dd012b15 	stw	r20,1196(sp)
   42d20:	dd012815 	stw	r20,1184(sp)
   42d24:	a03fec0e 	bge	r20,zero,42cd8 <___vfprintf_internal_r+0x1cb8>
   42d28:	d8012815 	stw	zero,1184(sp)
   42d2c:	048019c4 	movi	r18,103
   42d30:	003ed206 	br	4287c <___vfprintf_internal_r+0x185c>
   42d34:	d8c11f84 	addi	r3,sp,1150
   42d38:	102f883a 	mov	r23,r2
   42d3c:	4839883a 	mov	fp,r9
   42d40:	a009883a 	mov	r4,r20
   42d44:	01400284 	movi	r5,10
   42d48:	182d883a 	mov	r22,r3
   42d4c:	0040d940 	call	40d94 <__modsi3>
   42d50:	10800c04 	addi	r2,r2,48
   42d54:	a009883a 	mov	r4,r20
   42d58:	b0800005 	stb	r2,0(r22)
   42d5c:	01400284 	movi	r5,10
   42d60:	0040d440 	call	40d44 <__divsi3>
   42d64:	1029883a 	mov	r20,r2
   42d68:	b0ffffc4 	addi	r3,r22,-1
   42d6c:	b8bff416 	blt	r23,r2,42d40 <___vfprintf_internal_r+0x1d20>
   42d70:	11400c04 	addi	r5,r2,48
   42d74:	b17fffc5 	stb	r5,-1(r22)
   42d78:	d8811fc4 	addi	r2,sp,1151
   42d7c:	e013883a 	mov	r9,fp
   42d80:	18803e2e 	bgeu	r3,r2,42e7c <___vfprintf_internal_r+0x1e5c>
   42d84:	b007883a 	mov	r3,r22
   42d88:	d9012044 	addi	r4,sp,1153
   42d8c:	00000206 	br	42d98 <___vfprintf_internal_r+0x1d78>
   42d90:	19400003 	ldbu	r5,0(r3)
   42d94:	18c00044 	addi	r3,r3,1
   42d98:	21400005 	stb	r5,0(r4)
   42d9c:	21000044 	addi	r4,r4,1
   42da0:	10fffb1e 	bne	r2,r3,42d90 <___vfprintf_internal_r+0x1d70>
   42da4:	d8c12004 	addi	r3,sp,1152
   42da8:	1d87c83a 	sub	r3,r3,r22
   42dac:	d9012044 	addi	r4,sp,1153
   42db0:	20c7883a 	add	r3,r4,r3
   42db4:	003fb006 	br	42c78 <___vfprintf_internal_r+0x1c58>
   42db8:	e5c00044 	addi	r23,fp,1
   42dbc:	003e7406 	br	42790 <___vfprintf_internal_r+0x1770>
   42dc0:	d8c12217 	ldw	r3,1160(sp)
   42dc4:	003e9906 	br	4282c <___vfprintf_internal_r+0x180c>
   42dc8:	d9012d17 	ldw	r4,1204(sp)
   42dcc:	ac800043 	ldbu	r18,1(r21)
   42dd0:	b82b883a 	mov	r21,r23
   42dd4:	20c00017 	ldw	r3,0(r4)
   42dd8:	20800104 	addi	r2,r4,4
   42ddc:	d8812d15 	stw	r2,1204(sp)
   42de0:	18002116 	blt	r3,zero,42e68 <___vfprintf_internal_r+0x1e48>
   42de4:	94803fcc 	andi	r18,r18,255
   42de8:	9480201c 	xori	r18,r18,128
   42dec:	94bfe004 	addi	r18,r18,-128
   42df0:	0038e706 	br	41190 <___vfprintf_internal_r+0x170>
   42df4:	80a0703a 	and	r16,r16,r2
   42df8:	803fa61e 	bne	r16,zero,42c94 <___vfprintf_internal_r+0x1c74>
   42dfc:	d8812b17 	ldw	r2,1196(sp)
   42e00:	d8812815 	stw	r2,1184(sp)
   42e04:	103e9d0e 	bge	r2,zero,4287c <___vfprintf_internal_r+0x185c>
   42e08:	003fa706 	br	42ca8 <___vfprintf_internal_r+0x1c88>
   42e0c:	00800084 	movi	r2,2
   42e10:	1529c83a 	sub	r20,r2,r20
   42e14:	003fbf06 	br	42d14 <___vfprintf_internal_r+0x1cf4>
   42e18:	00800b44 	movi	r2,45
   42e1c:	0529c83a 	sub	r20,zero,r20
   42e20:	d8812005 	stb	r2,1152(sp)
   42e24:	003f8c06 	br	42c58 <___vfprintf_internal_r+0x1c38>
   42e28:	008011c4 	movi	r2,71
   42e2c:	90be6926 	beq	r18,r2,427d4 <___vfprintf_internal_r+0x17b4>
   42e30:	003e6a06 	br	427dc <___vfprintf_internal_r+0x17bc>
   42e34:	00bfffc4 	movi	r2,-1
   42e38:	d8812c15 	stw	r2,1200(sp)
   42e3c:	0039ad06 	br	414f4 <___vfprintf_internal_r+0x4d4>
   42e40:	1007883a 	mov	r3,r2
   42e44:	003e7906 	br	4282c <___vfprintf_internal_r+0x180c>
   42e48:	e000021e 	bne	fp,zero,42e54 <___vfprintf_internal_r+0x1e34>
   42e4c:	8400004c 	andi	r16,r16,1
   42e50:	80000e26 	beq	r16,zero,42e8c <___vfprintf_internal_r+0x1e6c>
   42e54:	e7000084 	addi	fp,fp,2
   42e58:	df012b15 	stw	fp,1196(sp)
   42e5c:	df012815 	stw	fp,1184(sp)
   42e60:	e03e860e 	bge	fp,zero,4287c <___vfprintf_internal_r+0x185c>
   42e64:	003f9006 	br	42ca8 <___vfprintf_internal_r+0x1c88>
   42e68:	94803fcc 	andi	r18,r18,255
   42e6c:	9480201c 	xori	r18,r18,128
   42e70:	00ffffc4 	movi	r3,-1
   42e74:	94bfe004 	addi	r18,r18,-128
   42e78:	0038c506 	br	41190 <___vfprintf_internal_r+0x170>
   42e7c:	d8c12044 	addi	r3,sp,1153
   42e80:	003f7d06 	br	42c78 <___vfprintf_internal_r+0x1c58>
   42e84:	dd012417 	ldw	r20,1168(sp)
   42e88:	003f6d06 	br	42c40 <___vfprintf_internal_r+0x1c20>
   42e8c:	00c00044 	movi	r3,1
   42e90:	d8c12815 	stw	r3,1184(sp)
   42e94:	d8c12b15 	stw	r3,1196(sp)
   42e98:	003e7806 	br	4287c <___vfprintf_internal_r+0x185c>

00042e9c <__vfprintf_internal>:
   42e9c:	00800174 	movhi	r2,5
   42ea0:	10bc4204 	addi	r2,r2,-3832
   42ea4:	2007883a 	mov	r3,r4
   42ea8:	11000017 	ldw	r4,0(r2)
   42eac:	2805883a 	mov	r2,r5
   42eb0:	300f883a 	mov	r7,r6
   42eb4:	180b883a 	mov	r5,r3
   42eb8:	100d883a 	mov	r6,r2
   42ebc:	00410201 	jmpi	41020 <___vfprintf_internal_r>

00042ec0 <__swsetup_r>:
   42ec0:	00800174 	movhi	r2,5
   42ec4:	10bc4204 	addi	r2,r2,-3832
   42ec8:	10800017 	ldw	r2,0(r2)
   42ecc:	defffd04 	addi	sp,sp,-12
   42ed0:	dc400115 	stw	r17,4(sp)
   42ed4:	dc000015 	stw	r16,0(sp)
   42ed8:	dfc00215 	stw	ra,8(sp)
   42edc:	2023883a 	mov	r17,r4
   42ee0:	2821883a 	mov	r16,r5
   42ee4:	10000226 	beq	r2,zero,42ef0 <__swsetup_r+0x30>
   42ee8:	10c00e17 	ldw	r3,56(r2)
   42eec:	18003d26 	beq	r3,zero,42fe4 <__swsetup_r+0x124>
   42ef0:	8080030b 	ldhu	r2,12(r16)
   42ef4:	10c0020c 	andi	r3,r2,8
   42ef8:	18ffffcc 	andi	r3,r3,65535
   42efc:	18e0001c 	xori	r3,r3,32768
   42f00:	18e00004 	addi	r3,r3,-32768
   42f04:	18001226 	beq	r3,zero,42f50 <__swsetup_r+0x90>
   42f08:	80c00417 	ldw	r3,16(r16)
   42f0c:	18001f26 	beq	r3,zero,42f8c <__swsetup_r+0xcc>
   42f10:	1100004c 	andi	r4,r2,1
   42f14:	2000261e 	bne	r4,zero,42fb0 <__swsetup_r+0xf0>
   42f18:	1080008c 	andi	r2,r2,2
   42f1c:	10bfffcc 	andi	r2,r2,65535
   42f20:	10a0001c 	xori	r2,r2,32768
   42f24:	10a00004 	addi	r2,r2,-32768
   42f28:	1000311e 	bne	r2,zero,42ff0 <__swsetup_r+0x130>
   42f2c:	80800517 	ldw	r2,20(r16)
   42f30:	80800215 	stw	r2,8(r16)
   42f34:	18002326 	beq	r3,zero,42fc4 <__swsetup_r+0x104>
   42f38:	0005883a 	mov	r2,zero
   42f3c:	dfc00217 	ldw	ra,8(sp)
   42f40:	dc400117 	ldw	r17,4(sp)
   42f44:	dc000017 	ldw	r16,0(sp)
   42f48:	dec00304 	addi	sp,sp,12
   42f4c:	f800283a 	ret
   42f50:	10c0040c 	andi	r3,r2,16
   42f54:	18ffffcc 	andi	r3,r3,65535
   42f58:	18e0001c 	xori	r3,r3,32768
   42f5c:	18e00004 	addi	r3,r3,-32768
   42f60:	18001e26 	beq	r3,zero,42fdc <__swsetup_r+0x11c>
   42f64:	10c0010c 	andi	r3,r2,4
   42f68:	18ffffcc 	andi	r3,r3,65535
   42f6c:	18e0001c 	xori	r3,r3,32768
   42f70:	18e00004 	addi	r3,r3,-32768
   42f74:	1800211e 	bne	r3,zero,42ffc <__swsetup_r+0x13c>
   42f78:	80c00417 	ldw	r3,16(r16)
   42f7c:	11400214 	ori	r5,r2,8
   42f80:	8140030d 	sth	r5,12(r16)
   42f84:	2805883a 	mov	r2,r5
   42f88:	183fe11e 	bne	r3,zero,42f10 <__swsetup_r+0x50>
   42f8c:	1140a00c 	andi	r5,r2,640
   42f90:	01008004 	movi	r4,512
   42f94:	293fde26 	beq	r5,r4,42f10 <__swsetup_r+0x50>
   42f98:	8809883a 	mov	r4,r17
   42f9c:	800b883a 	mov	r5,r16
   42fa0:	0045a5c0 	call	45a5c <__smakebuf_r>
   42fa4:	8080030b 	ldhu	r2,12(r16)
   42fa8:	80c00417 	ldw	r3,16(r16)
   42fac:	003fd806 	br	42f10 <__swsetup_r+0x50>
   42fb0:	80800517 	ldw	r2,20(r16)
   42fb4:	80000215 	stw	zero,8(r16)
   42fb8:	0085c83a 	sub	r2,zero,r2
   42fbc:	80800615 	stw	r2,24(r16)
   42fc0:	183fdd1e 	bne	r3,zero,42f38 <__swsetup_r+0x78>
   42fc4:	8080030b 	ldhu	r2,12(r16)
   42fc8:	1080200c 	andi	r2,r2,128
   42fcc:	10bfffcc 	andi	r2,r2,65535
   42fd0:	10a0001c 	xori	r2,r2,32768
   42fd4:	10a00004 	addi	r2,r2,-32768
   42fd8:	103fd826 	beq	r2,zero,42f3c <__swsetup_r+0x7c>
   42fdc:	00bfffc4 	movi	r2,-1
   42fe0:	003fd606 	br	42f3c <__swsetup_r+0x7c>
   42fe4:	1009883a 	mov	r4,r2
   42fe8:	0044ce80 	call	44ce8 <__sinit>
   42fec:	003fc006 	br	42ef0 <__swsetup_r+0x30>
   42ff0:	0005883a 	mov	r2,zero
   42ff4:	80800215 	stw	r2,8(r16)
   42ff8:	003fce06 	br	42f34 <__swsetup_r+0x74>
   42ffc:	81400c17 	ldw	r5,48(r16)
   43000:	28000626 	beq	r5,zero,4301c <__swsetup_r+0x15c>
   43004:	80c01004 	addi	r3,r16,64
   43008:	28c00326 	beq	r5,r3,43018 <__swsetup_r+0x158>
   4300c:	8809883a 	mov	r4,r17
   43010:	004506c0 	call	4506c <_free_r>
   43014:	8080030b 	ldhu	r2,12(r16)
   43018:	80000c15 	stw	zero,48(r16)
   4301c:	80c00417 	ldw	r3,16(r16)
   43020:	013ff6c4 	movi	r4,-37
   43024:	2084703a 	and	r2,r4,r2
   43028:	80000115 	stw	zero,4(r16)
   4302c:	80c00015 	stw	r3,0(r16)
   43030:	003fd206 	br	42f7c <__swsetup_r+0xbc>

00043034 <__call_exitprocs>:
   43034:	00800174 	movhi	r2,5
   43038:	10bc4104 	addi	r2,r2,-3836
   4303c:	10800017 	ldw	r2,0(r2)
   43040:	defff304 	addi	sp,sp,-52
   43044:	df000b15 	stw	fp,44(sp)
   43048:	d8800015 	stw	r2,0(sp)
   4304c:	10805204 	addi	r2,r2,328
   43050:	dd400815 	stw	r21,32(sp)
   43054:	dfc00c15 	stw	ra,48(sp)
   43058:	ddc00a15 	stw	r23,40(sp)
   4305c:	dd800915 	stw	r22,36(sp)
   43060:	dd000715 	stw	r20,28(sp)
   43064:	dcc00615 	stw	r19,24(sp)
   43068:	dc800515 	stw	r18,20(sp)
   4306c:	dc400415 	stw	r17,16(sp)
   43070:	dc000315 	stw	r16,12(sp)
   43074:	d9000115 	stw	r4,4(sp)
   43078:	2839883a 	mov	fp,r5
   4307c:	d8800215 	stw	r2,8(sp)
   43080:	057fffc4 	movi	r21,-1
   43084:	d8800017 	ldw	r2,0(sp)
   43088:	ddc00217 	ldw	r23,8(sp)
   4308c:	14805217 	ldw	r18,328(r2)
   43090:	90001726 	beq	r18,zero,430f0 <__call_exitprocs+0xbc>
   43094:	94400117 	ldw	r17,4(r18)
   43098:	8c3fffc4 	addi	r16,r17,-1
   4309c:	80001116 	blt	r16,zero,430e4 <__call_exitprocs+0xb0>
   430a0:	8c400044 	addi	r17,r17,1
   430a4:	8427883a 	add	r19,r16,r16
   430a8:	8c63883a 	add	r17,r17,r17
   430ac:	95802204 	addi	r22,r18,136
   430b0:	9ce7883a 	add	r19,r19,r19
   430b4:	8c63883a 	add	r17,r17,r17
   430b8:	b4e7883a 	add	r19,r22,r19
   430bc:	9463883a 	add	r17,r18,r17
   430c0:	e0001726 	beq	fp,zero,43120 <__call_exitprocs+0xec>
   430c4:	8c87c83a 	sub	r3,r17,r18
   430c8:	b0c7883a 	add	r3,r22,r3
   430cc:	18c01e17 	ldw	r3,120(r3)
   430d0:	1f001326 	beq	r3,fp,43120 <__call_exitprocs+0xec>
   430d4:	843fffc4 	addi	r16,r16,-1
   430d8:	9cffff04 	addi	r19,r19,-4
   430dc:	8c7fff04 	addi	r17,r17,-4
   430e0:	857ff71e 	bne	r16,r21,430c0 <__call_exitprocs+0x8c>
   430e4:	00800034 	movhi	r2,0
   430e8:	10800004 	addi	r2,r2,0
   430ec:	10002a1e 	bne	r2,zero,43198 <__call_exitprocs+0x164>
   430f0:	dfc00c17 	ldw	ra,48(sp)
   430f4:	df000b17 	ldw	fp,44(sp)
   430f8:	ddc00a17 	ldw	r23,40(sp)
   430fc:	dd800917 	ldw	r22,36(sp)
   43100:	dd400817 	ldw	r21,32(sp)
   43104:	dd000717 	ldw	r20,28(sp)
   43108:	dcc00617 	ldw	r19,24(sp)
   4310c:	dc800517 	ldw	r18,20(sp)
   43110:	dc400417 	ldw	r17,16(sp)
   43114:	dc000317 	ldw	r16,12(sp)
   43118:	dec00d04 	addi	sp,sp,52
   4311c:	f800283a 	ret
   43120:	91000117 	ldw	r4,4(r18)
   43124:	88c00017 	ldw	r3,0(r17)
   43128:	213fffc4 	addi	r4,r4,-1
   4312c:	24001526 	beq	r4,r16,43184 <__call_exitprocs+0x150>
   43130:	88000015 	stw	zero,0(r17)
   43134:	183fe726 	beq	r3,zero,430d4 <__call_exitprocs+0xa0>
   43138:	00800044 	movi	r2,1
   4313c:	1408983a 	sll	r4,r2,r16
   43140:	91406217 	ldw	r5,392(r18)
   43144:	95000117 	ldw	r20,4(r18)
   43148:	214a703a 	and	r5,r4,r5
   4314c:	28000b26 	beq	r5,zero,4317c <__call_exitprocs+0x148>
   43150:	91406317 	ldw	r5,396(r18)
   43154:	2148703a 	and	r4,r4,r5
   43158:	20000c1e 	bne	r4,zero,4318c <__call_exitprocs+0x158>
   4315c:	99400017 	ldw	r5,0(r19)
   43160:	d9000117 	ldw	r4,4(sp)
   43164:	183ee83a 	callr	r3
   43168:	90c00117 	ldw	r3,4(r18)
   4316c:	1d3fc51e 	bne	r3,r20,43084 <__call_exitprocs+0x50>
   43170:	b8c00017 	ldw	r3,0(r23)
   43174:	1cbfd726 	beq	r3,r18,430d4 <__call_exitprocs+0xa0>
   43178:	003fc206 	br	43084 <__call_exitprocs+0x50>
   4317c:	183ee83a 	callr	r3
   43180:	003ff906 	br	43168 <__call_exitprocs+0x134>
   43184:	94000115 	stw	r16,4(r18)
   43188:	003fea06 	br	43134 <__call_exitprocs+0x100>
   4318c:	99000017 	ldw	r4,0(r19)
   43190:	183ee83a 	callr	r3
   43194:	003ff406 	br	43168 <__call_exitprocs+0x134>
   43198:	90c00117 	ldw	r3,4(r18)
   4319c:	1800071e 	bne	r3,zero,431bc <__call_exitprocs+0x188>
   431a0:	90c00017 	ldw	r3,0(r18)
   431a4:	18000926 	beq	r3,zero,431cc <__call_exitprocs+0x198>
   431a8:	9009883a 	mov	r4,r18
   431ac:	b8c00015 	stw	r3,0(r23)
   431b0:	00000000 	call	0 <__alt_mem_onchip_mem-0x40000>
   431b4:	bc800017 	ldw	r18,0(r23)
   431b8:	003fb506 	br	43090 <__call_exitprocs+0x5c>
   431bc:	90c00017 	ldw	r3,0(r18)
   431c0:	902f883a 	mov	r23,r18
   431c4:	1825883a 	mov	r18,r3
   431c8:	003fb106 	br	43090 <__call_exitprocs+0x5c>
   431cc:	0007883a 	mov	r3,zero
   431d0:	003ffb06 	br	431c0 <__call_exitprocs+0x18c>

000431d4 <quorem>:
   431d4:	defff204 	addi	sp,sp,-56
   431d8:	dd000815 	stw	r20,32(sp)
   431dc:	20800417 	ldw	r2,16(r4)
   431e0:	2d000417 	ldw	r20,16(r5)
   431e4:	dcc00715 	stw	r19,28(sp)
   431e8:	dfc00d15 	stw	ra,52(sp)
   431ec:	df000c15 	stw	fp,48(sp)
   431f0:	ddc00b15 	stw	r23,44(sp)
   431f4:	dd800a15 	stw	r22,40(sp)
   431f8:	dd400915 	stw	r21,36(sp)
   431fc:	dc800615 	stw	r18,24(sp)
   43200:	dc400515 	stw	r17,20(sp)
   43204:	dc000415 	stw	r16,16(sp)
   43208:	d9400015 	stw	r5,0(sp)
   4320c:	2027883a 	mov	r19,r4
   43210:	15007d16 	blt	r2,r20,43408 <quorem+0x234>
   43214:	a0800104 	addi	r2,r20,4
   43218:	1085883a 	add	r2,r2,r2
   4321c:	1085883a 	add	r2,r2,r2
   43220:	28ad883a 	add	r22,r5,r2
   43224:	2085883a 	add	r2,r4,r2
   43228:	10800017 	ldw	r2,0(r2)
   4322c:	b1400017 	ldw	r5,0(r22)
   43230:	a53fffc4 	addi	r20,r20,-1
   43234:	1009883a 	mov	r4,r2
   43238:	29400044 	addi	r5,r5,1
   4323c:	d8800115 	stw	r2,4(sp)
   43240:	0040df00 	call	40df0 <__udivsi3>
   43244:	1025883a 	mov	r18,r2
   43248:	d8800017 	ldw	r2,0(sp)
   4324c:	9f000504 	addi	fp,r19,20
   43250:	14000504 	addi	r16,r2,20
   43254:	90003626 	beq	r18,zero,43330 <quorem+0x15c>
   43258:	802b883a 	mov	r21,r16
   4325c:	e023883a 	mov	r17,fp
   43260:	0007883a 	mov	r3,zero
   43264:	002f883a 	mov	r23,zero
   43268:	a9800017 	ldw	r6,0(r21)
   4326c:	900b883a 	mov	r5,r18
   43270:	d8c00315 	stw	r3,12(sp)
   43274:	313fffcc 	andi	r4,r6,65535
   43278:	d9800215 	stw	r6,8(sp)
   4327c:	0040e000 	call	40e00 <__mulsi3>
   43280:	d9800217 	ldw	r6,8(sp)
   43284:	d8c00317 	ldw	r3,12(sp)
   43288:	900b883a 	mov	r5,r18
   4328c:	3008d43a 	srli	r4,r6,16
   43290:	1887883a 	add	r3,r3,r2
   43294:	d8c00315 	stw	r3,12(sp)
   43298:	0040e000 	call	40e00 <__mulsi3>
   4329c:	89400017 	ldw	r5,0(r17)
   432a0:	d8c00317 	ldw	r3,12(sp)
   432a4:	ad400104 	addi	r21,r21,4
   432a8:	293fffcc 	andi	r4,r5,65535
   432ac:	1810d43a 	srli	r8,r3,16
   432b0:	25c9883a 	add	r4,r4,r23
   432b4:	18ffffcc 	andi	r3,r3,65535
   432b8:	20c9c83a 	sub	r4,r4,r3
   432bc:	280cd43a 	srli	r6,r5,16
   432c0:	4085883a 	add	r2,r8,r2
   432c4:	2007d43a 	srai	r3,r4,16
   432c8:	117fffcc 	andi	r5,r2,65535
   432cc:	314bc83a 	sub	r5,r6,r5
   432d0:	28cb883a 	add	r5,r5,r3
   432d4:	8940008d 	sth	r5,2(r17)
   432d8:	8900000d 	sth	r4,0(r17)
   432dc:	1006d43a 	srli	r3,r2,16
   432e0:	282fd43a 	srai	r23,r5,16
   432e4:	8c400104 	addi	r17,r17,4
   432e8:	b57fdf2e 	bgeu	r22,r21,43268 <quorem+0x94>
   432ec:	d8c00117 	ldw	r3,4(sp)
   432f0:	18000f1e 	bne	r3,zero,43330 <quorem+0x15c>
   432f4:	a0800144 	addi	r2,r20,5
   432f8:	1085883a 	add	r2,r2,r2
   432fc:	1085883a 	add	r2,r2,r2
   43300:	9887883a 	add	r3,r19,r2
   43304:	18bfff04 	addi	r2,r3,-4
   43308:	e080082e 	bgeu	fp,r2,4332c <quorem+0x158>
   4330c:	18ffff17 	ldw	r3,-4(r3)
   43310:	18000326 	beq	r3,zero,43320 <quorem+0x14c>
   43314:	00000506 	br	4332c <quorem+0x158>
   43318:	10c00017 	ldw	r3,0(r2)
   4331c:	1800031e 	bne	r3,zero,4332c <quorem+0x158>
   43320:	10bfff04 	addi	r2,r2,-4
   43324:	a53fffc4 	addi	r20,r20,-1
   43328:	e0bffb36 	bltu	fp,r2,43318 <quorem+0x144>
   4332c:	9d000415 	stw	r20,16(r19)
   43330:	d9400017 	ldw	r5,0(sp)
   43334:	9809883a 	mov	r4,r19
   43338:	00471740 	call	47174 <__mcmp>
   4333c:	10002516 	blt	r2,zero,433d4 <quorem+0x200>
   43340:	94800044 	addi	r18,r18,1
   43344:	e007883a 	mov	r3,fp
   43348:	000d883a 	mov	r6,zero
   4334c:	18800017 	ldw	r2,0(r3)
   43350:	82000017 	ldw	r8,0(r16)
   43354:	84000104 	addi	r16,r16,4
   43358:	11ffffcc 	andi	r7,r2,65535
   4335c:	413fffcc 	andi	r4,r8,65535
   43360:	398d883a 	add	r6,r7,r6
   43364:	310fc83a 	sub	r7,r6,r4
   43368:	4010d43a 	srli	r8,r8,16
   4336c:	100cd43a 	srli	r6,r2,16
   43370:	3809d43a 	srai	r4,r7,16
   43374:	19c0000d 	sth	r7,0(r3)
   43378:	320dc83a 	sub	r6,r6,r8
   4337c:	310d883a 	add	r6,r6,r4
   43380:	1980008d 	sth	r6,2(r3)
   43384:	300dd43a 	srai	r6,r6,16
   43388:	18c00104 	addi	r3,r3,4
   4338c:	b43fef2e 	bgeu	r22,r16,4334c <quorem+0x178>
   43390:	a0800144 	addi	r2,r20,5
   43394:	1085883a 	add	r2,r2,r2
   43398:	1085883a 	add	r2,r2,r2
   4339c:	9885883a 	add	r2,r19,r2
   433a0:	10c00017 	ldw	r3,0(r2)
   433a4:	18000b1e 	bne	r3,zero,433d4 <quorem+0x200>
   433a8:	10ffff04 	addi	r3,r2,-4
   433ac:	e0c0082e 	bgeu	fp,r3,433d0 <quorem+0x1fc>
   433b0:	10bfff17 	ldw	r2,-4(r2)
   433b4:	10000326 	beq	r2,zero,433c4 <quorem+0x1f0>
   433b8:	00000506 	br	433d0 <quorem+0x1fc>
   433bc:	18800017 	ldw	r2,0(r3)
   433c0:	1000031e 	bne	r2,zero,433d0 <quorem+0x1fc>
   433c4:	18ffff04 	addi	r3,r3,-4
   433c8:	a53fffc4 	addi	r20,r20,-1
   433cc:	e0fffb36 	bltu	fp,r3,433bc <quorem+0x1e8>
   433d0:	9d000415 	stw	r20,16(r19)
   433d4:	9005883a 	mov	r2,r18
   433d8:	dfc00d17 	ldw	ra,52(sp)
   433dc:	df000c17 	ldw	fp,48(sp)
   433e0:	ddc00b17 	ldw	r23,44(sp)
   433e4:	dd800a17 	ldw	r22,40(sp)
   433e8:	dd400917 	ldw	r21,36(sp)
   433ec:	dd000817 	ldw	r20,32(sp)
   433f0:	dcc00717 	ldw	r19,28(sp)
   433f4:	dc800617 	ldw	r18,24(sp)
   433f8:	dc400517 	ldw	r17,20(sp)
   433fc:	dc000417 	ldw	r16,16(sp)
   43400:	dec00e04 	addi	sp,sp,56
   43404:	f800283a 	ret
   43408:	0005883a 	mov	r2,zero
   4340c:	003ff206 	br	433d8 <quorem+0x204>

00043410 <_dtoa_r>:
   43410:	20801017 	ldw	r2,64(r4)
   43414:	deffdf04 	addi	sp,sp,-132
   43418:	dcc01a15 	stw	r19,104(sp)
   4341c:	dc801915 	stw	r18,100(sp)
   43420:	dc401815 	stw	r17,96(sp)
   43424:	dc001715 	stw	r16,92(sp)
   43428:	dfc02015 	stw	ra,128(sp)
   4342c:	df001f15 	stw	fp,124(sp)
   43430:	ddc01e15 	stw	r23,120(sp)
   43434:	dd801d15 	stw	r22,116(sp)
   43438:	dd401c15 	stw	r21,112(sp)
   4343c:	dd001b15 	stw	r20,108(sp)
   43440:	d9400315 	stw	r5,12(sp)
   43444:	d9c00415 	stw	r7,16(sp)
   43448:	2021883a 	mov	r16,r4
   4344c:	3025883a 	mov	r18,r6
   43450:	dcc02317 	ldw	r19,140(sp)
   43454:	3023883a 	mov	r17,r6
   43458:	10000826 	beq	r2,zero,4347c <_dtoa_r+0x6c>
   4345c:	20c01117 	ldw	r3,68(r4)
   43460:	01800044 	movi	r6,1
   43464:	100b883a 	mov	r5,r2
   43468:	30cc983a 	sll	r6,r6,r3
   4346c:	10c00115 	stw	r3,4(r2)
   43470:	11800215 	stw	r6,8(r2)
   43474:	00468d00 	call	468d0 <_Bfree>
   43478:	80001015 	stw	zero,64(r16)
   4347c:	90002f16 	blt	r18,zero,4353c <_dtoa_r+0x12c>
   43480:	98000015 	stw	zero,0(r19)
   43484:	90dffc2c 	andhi	r3,r18,32752
   43488:	009ffc34 	movhi	r2,32752
   4348c:	18801c26 	beq	r3,r2,43500 <_dtoa_r+0xf0>
   43490:	d9000317 	ldw	r4,12(sp)
   43494:	880b883a 	mov	r5,r17
   43498:	000d883a 	mov	r6,zero
   4349c:	000f883a 	mov	r7,zero
   434a0:	0049ac80 	call	49ac8 <__eqdf2>
   434a4:	10002c1e 	bne	r2,zero,43558 <_dtoa_r+0x148>
   434a8:	d9002217 	ldw	r4,136(sp)
   434ac:	d9c02417 	ldw	r7,144(sp)
   434b0:	00800044 	movi	r2,1
   434b4:	20800015 	stw	r2,0(r4)
   434b8:	38019426 	beq	r7,zero,43b0c <_dtoa_r+0x6fc>
   434bc:	00800174 	movhi	r2,5
   434c0:	10b50444 	addi	r2,r2,-11247
   434c4:	38800015 	stw	r2,0(r7)
   434c8:	15ffffc4 	addi	r23,r2,-1
   434cc:	b805883a 	mov	r2,r23
   434d0:	dfc02017 	ldw	ra,128(sp)
   434d4:	df001f17 	ldw	fp,124(sp)
   434d8:	ddc01e17 	ldw	r23,120(sp)
   434dc:	dd801d17 	ldw	r22,116(sp)
   434e0:	dd401c17 	ldw	r21,112(sp)
   434e4:	dd001b17 	ldw	r20,108(sp)
   434e8:	dcc01a17 	ldw	r19,104(sp)
   434ec:	dc801917 	ldw	r18,100(sp)
   434f0:	dc401817 	ldw	r17,96(sp)
   434f4:	dc001717 	ldw	r16,92(sp)
   434f8:	dec02104 	addi	sp,sp,132
   434fc:	f800283a 	ret
   43500:	d8c02217 	ldw	r3,136(sp)
   43504:	d9000317 	ldw	r4,12(sp)
   43508:	0089c3c4 	movi	r2,9999
   4350c:	18800015 	stw	r2,0(r3)
   43510:	20016c26 	beq	r4,zero,43ac4 <_dtoa_r+0x6b4>
   43514:	05c00174 	movhi	r23,5
   43518:	bdf51004 	addi	r23,r23,-11200
   4351c:	d9c02417 	ldw	r7,144(sp)
   43520:	383fea26 	beq	r7,zero,434cc <_dtoa_r+0xbc>
   43524:	b88000c7 	ldb	r2,3(r23)
   43528:	10016d1e 	bne	r2,zero,43ae0 <_dtoa_r+0x6d0>
   4352c:	b88000c4 	addi	r2,r23,3
   43530:	d8c02417 	ldw	r3,144(sp)
   43534:	18800015 	stw	r2,0(r3)
   43538:	003fe406 	br	434cc <_dtoa_r+0xbc>
   4353c:	04600034 	movhi	r17,32768
   43540:	8c7fffc4 	addi	r17,r17,-1
   43544:	9462703a 	and	r17,r18,r17
   43548:	00800044 	movi	r2,1
   4354c:	98800015 	stw	r2,0(r19)
   43550:	8825883a 	mov	r18,r17
   43554:	003fcb06 	br	43484 <_dtoa_r+0x74>
   43558:	d9400317 	ldw	r5,12(sp)
   4355c:	9028d53a 	srli	r20,r18,20
   43560:	d8800204 	addi	r2,sp,8
   43564:	d8800015 	stw	r2,0(sp)
   43568:	8009883a 	mov	r4,r16
   4356c:	880d883a 	mov	r6,r17
   43570:	d9c00104 	addi	r7,sp,4
   43574:	004751c0 	call	4751c <__d2b>
   43578:	a501ffcc 	andi	r20,r20,2047
   4357c:	1039883a 	mov	fp,r2
   43580:	a001591e 	bne	r20,zero,43ae8 <_dtoa_r+0x6d8>
   43584:	dd400217 	ldw	r21,8(sp)
   43588:	dd000117 	ldw	r20,4(sp)
   4358c:	00befbc4 	movi	r2,-1041
   43590:	ad29883a 	add	r20,r21,r20
   43594:	a082d216 	blt	r20,r2,440e0 <_dtoa_r+0xcd0>
   43598:	d8c00317 	ldw	r3,12(sp)
   4359c:	013f0384 	movi	r4,-1010
   435a0:	2509c83a 	sub	r4,r4,r20
   435a4:	a0810484 	addi	r2,r20,1042
   435a8:	9124983a 	sll	r18,r18,r4
   435ac:	1884d83a 	srl	r2,r3,r2
   435b0:	9088b03a 	or	r4,r18,r2
   435b4:	0049e4c0 	call	49e4c <__floatunsidf>
   435b8:	1009883a 	mov	r4,r2
   435bc:	017f8434 	movhi	r5,65040
   435c0:	00800044 	movi	r2,1
   435c4:	194b883a 	add	r5,r3,r5
   435c8:	a53fffc4 	addi	r20,r20,-1
   435cc:	d8800f15 	stw	r2,60(sp)
   435d0:	000d883a 	mov	r6,zero
   435d4:	01cffe34 	movhi	r7,16376
   435d8:	00495d00 	call	495d0 <__subdf3>
   435dc:	1009883a 	mov	r4,r2
   435e0:	180b883a 	mov	r5,r3
   435e4:	0198dbf4 	movhi	r6,25455
   435e8:	3190d844 	addi	r6,r6,17249
   435ec:	01cff4f4 	movhi	r7,16339
   435f0:	39e1e9c4 	addi	r7,r7,-30809
   435f4:	00496300 	call	49630 <__muldf3>
   435f8:	180b883a 	mov	r5,r3
   435fc:	01a2d874 	movhi	r6,35681
   43600:	31b22cc4 	addi	r6,r6,-14157
   43604:	01cff1f4 	movhi	r7,16327
   43608:	39e28a04 	addi	r7,r7,-30168
   4360c:	1009883a 	mov	r4,r2
   43610:	004957c0 	call	4957c <__adddf3>
   43614:	a009883a 	mov	r4,r20
   43618:	1027883a 	mov	r19,r2
   4361c:	1825883a 	mov	r18,r3
   43620:	0049ca40 	call	49ca4 <__floatsidf>
   43624:	1009883a 	mov	r4,r2
   43628:	180b883a 	mov	r5,r3
   4362c:	019427f4 	movhi	r6,20639
   43630:	319e7ec4 	addi	r6,r6,31227
   43634:	01cff4f4 	movhi	r7,16339
   43638:	39d104c4 	addi	r7,r7,17427
   4363c:	00496300 	call	49630 <__muldf3>
   43640:	9809883a 	mov	r4,r19
   43644:	900b883a 	mov	r5,r18
   43648:	100d883a 	mov	r6,r2
   4364c:	180f883a 	mov	r7,r3
   43650:	004957c0 	call	4957c <__adddf3>
   43654:	1009883a 	mov	r4,r2
   43658:	180b883a 	mov	r5,r3
   4365c:	1027883a 	mov	r19,r2
   43660:	1825883a 	mov	r18,r3
   43664:	0049d780 	call	49d78 <__fixdfsi>
   43668:	9809883a 	mov	r4,r19
   4366c:	900b883a 	mov	r5,r18
   43670:	000d883a 	mov	r6,zero
   43674:	000f883a 	mov	r7,zero
   43678:	d8800615 	stw	r2,24(sp)
   4367c:	0049c480 	call	49c48 <__ltdf2>
   43680:	10027e16 	blt	r2,zero,4407c <_dtoa_r+0xc6c>
   43684:	d8c00617 	ldw	r3,24(sp)
   43688:	00800584 	movi	r2,22
   4368c:	10c26c36 	bltu	r2,r3,44040 <_dtoa_r+0xc30>
   43690:	180490fa 	slli	r2,r3,3
   43694:	00c00174 	movhi	r3,5
   43698:	18f53504 	addi	r3,r3,-11052
   4369c:	d9800317 	ldw	r6,12(sp)
   436a0:	1885883a 	add	r2,r3,r2
   436a4:	11000017 	ldw	r4,0(r2)
   436a8:	11400117 	ldw	r5,4(r2)
   436ac:	880f883a 	mov	r7,r17
   436b0:	0049b800 	call	49b80 <__gtdf2>
   436b4:	00828f0e 	bge	zero,r2,440f4 <_dtoa_r+0xce4>
   436b8:	d8800617 	ldw	r2,24(sp)
   436bc:	d8000d15 	stw	zero,52(sp)
   436c0:	10bfffc4 	addi	r2,r2,-1
   436c4:	d8800615 	stw	r2,24(sp)
   436c8:	ad29c83a 	sub	r20,r21,r20
   436cc:	a53fffc4 	addi	r20,r20,-1
   436d0:	a0026616 	blt	r20,zero,4406c <_dtoa_r+0xc5c>
   436d4:	dd000715 	stw	r20,28(sp)
   436d8:	d8000815 	stw	zero,32(sp)
   436dc:	d8800617 	ldw	r2,24(sp)
   436e0:	10025a16 	blt	r2,zero,4404c <_dtoa_r+0xc3c>
   436e4:	d8c00717 	ldw	r3,28(sp)
   436e8:	d8800b15 	stw	r2,44(sp)
   436ec:	d8000a15 	stw	zero,40(sp)
   436f0:	1887883a 	add	r3,r3,r2
   436f4:	d8c00715 	stw	r3,28(sp)
   436f8:	d9c00417 	ldw	r7,16(sp)
   436fc:	00800244 	movi	r2,9
   43700:	11c10536 	bltu	r2,r7,43b18 <_dtoa_r+0x708>
   43704:	00800144 	movi	r2,5
   43708:	11c4c60e 	bge	r2,r7,44a24 <_dtoa_r+0x1614>
   4370c:	39ffff04 	addi	r7,r7,-4
   43710:	d9c00415 	stw	r7,16(sp)
   43714:	0027883a 	mov	r19,zero
   43718:	d9c00417 	ldw	r7,16(sp)
   4371c:	008000c4 	movi	r2,3
   43720:	3883a226 	beq	r7,r2,445ac <_dtoa_r+0x119c>
   43724:	11c2bc16 	blt	r2,r7,44218 <_dtoa_r+0xe08>
   43728:	00800084 	movi	r2,2
   4372c:	3880fb1e 	bne	r7,r2,43b1c <_dtoa_r+0x70c>
   43730:	d8000c15 	stw	zero,48(sp)
   43734:	d9002117 	ldw	r4,132(sp)
   43738:	0103ae0e 	bge	zero,r4,445f4 <_dtoa_r+0x11e4>
   4373c:	2025883a 	mov	r18,r4
   43740:	d9000e15 	stw	r4,56(sp)
   43744:	d9000915 	stw	r4,36(sp)
   43748:	80001115 	stw	zero,68(r16)
   4374c:	008005c4 	movi	r2,23
   43750:	1484b22e 	bgeu	r2,r18,44a1c <_dtoa_r+0x160c>
   43754:	00c00044 	movi	r3,1
   43758:	00800104 	movi	r2,4
   4375c:	1085883a 	add	r2,r2,r2
   43760:	11000504 	addi	r4,r2,20
   43764:	180b883a 	mov	r5,r3
   43768:	18c00044 	addi	r3,r3,1
   4376c:	913ffb2e 	bgeu	r18,r4,4375c <_dtoa_r+0x34c>
   43770:	81401115 	stw	r5,68(r16)
   43774:	8009883a 	mov	r4,r16
   43778:	00468280 	call	46828 <_Balloc>
   4377c:	102f883a 	mov	r23,r2
   43780:	80801015 	stw	r2,64(r16)
   43784:	00800384 	movi	r2,14
   43788:	1480f036 	bltu	r2,r18,43b4c <_dtoa_r+0x73c>
   4378c:	9800ef26 	beq	r19,zero,43b4c <_dtoa_r+0x73c>
   43790:	d8800617 	ldw	r2,24(sp)
   43794:	00839c0e 	bge	zero,r2,44608 <_dtoa_r+0x11f8>
   43798:	d8c00617 	ldw	r3,24(sp)
   4379c:	108003cc 	andi	r2,r2,15
   437a0:	100490fa 	slli	r2,r2,3
   437a4:	182bd13a 	srai	r21,r3,4
   437a8:	00c00174 	movhi	r3,5
   437ac:	18f53504 	addi	r3,r3,-11052
   437b0:	1885883a 	add	r2,r3,r2
   437b4:	a8c0040c 	andi	r3,r21,16
   437b8:	12800017 	ldw	r10,0(r2)
   437bc:	15800117 	ldw	r22,4(r2)
   437c0:	18038726 	beq	r3,zero,445e0 <_dtoa_r+0x11d0>
   437c4:	00800174 	movhi	r2,5
   437c8:	10b52b04 	addi	r2,r2,-11092
   437cc:	11800817 	ldw	r6,32(r2)
   437d0:	11c00917 	ldw	r7,36(r2)
   437d4:	d9000317 	ldw	r4,12(sp)
   437d8:	880b883a 	mov	r5,r17
   437dc:	da801515 	stw	r10,84(sp)
   437e0:	00499140 	call	49914 <__divdf3>
   437e4:	da801517 	ldw	r10,84(sp)
   437e8:	d8801015 	stw	r2,64(sp)
   437ec:	1829883a 	mov	r20,r3
   437f0:	ad4003cc 	andi	r21,r21,15
   437f4:	048000c4 	movi	r18,3
   437f8:	a8001126 	beq	r21,zero,43840 <_dtoa_r+0x430>
   437fc:	04c00174 	movhi	r19,5
   43800:	9cf52b04 	addi	r19,r19,-11092
   43804:	5005883a 	mov	r2,r10
   43808:	b007883a 	mov	r3,r22
   4380c:	a980004c 	andi	r6,r21,1
   43810:	1009883a 	mov	r4,r2
   43814:	a82bd07a 	srai	r21,r21,1
   43818:	180b883a 	mov	r5,r3
   4381c:	30000426 	beq	r6,zero,43830 <_dtoa_r+0x420>
   43820:	99800017 	ldw	r6,0(r19)
   43824:	99c00117 	ldw	r7,4(r19)
   43828:	94800044 	addi	r18,r18,1
   4382c:	00496300 	call	49630 <__muldf3>
   43830:	9cc00204 	addi	r19,r19,8
   43834:	a83ff51e 	bne	r21,zero,4380c <_dtoa_r+0x3fc>
   43838:	1015883a 	mov	r10,r2
   4383c:	182d883a 	mov	r22,r3
   43840:	d9001017 	ldw	r4,64(sp)
   43844:	a00b883a 	mov	r5,r20
   43848:	500d883a 	mov	r6,r10
   4384c:	b00f883a 	mov	r7,r22
   43850:	00499140 	call	49914 <__divdf3>
   43854:	1027883a 	mov	r19,r2
   43858:	1829883a 	mov	r20,r3
   4385c:	d8c00d17 	ldw	r3,52(sp)
   43860:	18000626 	beq	r3,zero,4387c <_dtoa_r+0x46c>
   43864:	9809883a 	mov	r4,r19
   43868:	a00b883a 	mov	r5,r20
   4386c:	000d883a 	mov	r6,zero
   43870:	01cffc34 	movhi	r7,16368
   43874:	0049c480 	call	49c48 <__ltdf2>
   43878:	10040e16 	blt	r2,zero,448b4 <_dtoa_r+0x14a4>
   4387c:	9009883a 	mov	r4,r18
   43880:	0049ca40 	call	49ca4 <__floatsidf>
   43884:	1009883a 	mov	r4,r2
   43888:	180b883a 	mov	r5,r3
   4388c:	980d883a 	mov	r6,r19
   43890:	a00f883a 	mov	r7,r20
   43894:	00496300 	call	49630 <__muldf3>
   43898:	1009883a 	mov	r4,r2
   4389c:	180b883a 	mov	r5,r3
   438a0:	000d883a 	mov	r6,zero
   438a4:	01d00734 	movhi	r7,16412
   438a8:	004957c0 	call	4957c <__adddf3>
   438ac:	057f3034 	movhi	r21,64704
   438b0:	1d6b883a 	add	r21,r3,r21
   438b4:	d8c00917 	ldw	r3,36(sp)
   438b8:	1025883a 	mov	r18,r2
   438bc:	18031f26 	beq	r3,zero,4453c <_dtoa_r+0x112c>
   438c0:	d8800617 	ldw	r2,24(sp)
   438c4:	dac00917 	ldw	r11,36(sp)
   438c8:	d8801315 	stw	r2,76(sp)
   438cc:	d8c00c17 	ldw	r3,48(sp)
   438d0:	18039026 	beq	r3,zero,44714 <_dtoa_r+0x1304>
   438d4:	58bfffc4 	addi	r2,r11,-1
   438d8:	100490fa 	slli	r2,r2,3
   438dc:	00c00174 	movhi	r3,5
   438e0:	18f53504 	addi	r3,r3,-11052
   438e4:	0009883a 	mov	r4,zero
   438e8:	1885883a 	add	r2,r3,r2
   438ec:	11800017 	ldw	r6,0(r2)
   438f0:	11c00117 	ldw	r7,4(r2)
   438f4:	014ff834 	movhi	r5,16352
   438f8:	dac01615 	stw	r11,88(sp)
   438fc:	00499140 	call	49914 <__divdf3>
   43900:	900d883a 	mov	r6,r18
   43904:	a80f883a 	mov	r7,r21
   43908:	1009883a 	mov	r4,r2
   4390c:	180b883a 	mov	r5,r3
   43910:	00495d00 	call	495d0 <__subdf3>
   43914:	a00b883a 	mov	r5,r20
   43918:	9809883a 	mov	r4,r19
   4391c:	182b883a 	mov	r21,r3
   43920:	d8801015 	stw	r2,64(sp)
   43924:	0049d780 	call	49d78 <__fixdfsi>
   43928:	1009883a 	mov	r4,r2
   4392c:	d8801515 	stw	r2,84(sp)
   43930:	0049ca40 	call	49ca4 <__floatsidf>
   43934:	9809883a 	mov	r4,r19
   43938:	a00b883a 	mov	r5,r20
   4393c:	100d883a 	mov	r6,r2
   43940:	180f883a 	mov	r7,r3
   43944:	00495d00 	call	495d0 <__subdf3>
   43948:	da401517 	ldw	r9,84(sp)
   4394c:	d9001017 	ldw	r4,64(sp)
   43950:	a80b883a 	mov	r5,r21
   43954:	4d000c04 	addi	r20,r9,48
   43958:	bd000005 	stb	r20,0(r23)
   4395c:	100d883a 	mov	r6,r2
   43960:	180f883a 	mov	r7,r3
   43964:	bd800044 	addi	r22,r23,1
   43968:	1025883a 	mov	r18,r2
   4396c:	1827883a 	mov	r19,r3
   43970:	0049b800 	call	49b80 <__gtdf2>
   43974:	00842216 	blt	zero,r2,44a00 <_dtoa_r+0x15f0>
   43978:	0009883a 	mov	r4,zero
   4397c:	014ffc34 	movhi	r5,16368
   43980:	900d883a 	mov	r6,r18
   43984:	980f883a 	mov	r7,r19
   43988:	00495d00 	call	495d0 <__subdf3>
   4398c:	d9001017 	ldw	r4,64(sp)
   43990:	a80b883a 	mov	r5,r21
   43994:	100d883a 	mov	r6,r2
   43998:	180f883a 	mov	r7,r3
   4399c:	0049b800 	call	49b80 <__gtdf2>
   439a0:	dac01617 	ldw	r11,88(sp)
   439a4:	00841316 	blt	zero,r2,449f4 <_dtoa_r+0x15e4>
   439a8:	00800044 	movi	r2,1
   439ac:	12c0670e 	bge	r2,r11,43b4c <_dtoa_r+0x73c>
   439b0:	bad7883a 	add	r11,r23,r11
   439b4:	df001115 	stw	fp,68(sp)
   439b8:	dc401215 	stw	r17,72(sp)
   439bc:	5839883a 	mov	fp,r11
   439c0:	dc401017 	ldw	r17,64(sp)
   439c4:	00000806 	br	439e8 <_dtoa_r+0x5d8>
   439c8:	00495d00 	call	495d0 <__subdf3>
   439cc:	1009883a 	mov	r4,r2
   439d0:	180b883a 	mov	r5,r3
   439d4:	880d883a 	mov	r6,r17
   439d8:	a80f883a 	mov	r7,r21
   439dc:	0049c480 	call	49c48 <__ltdf2>
   439e0:	1003ee16 	blt	r2,zero,4499c <_dtoa_r+0x158c>
   439e4:	b703f126 	beq	r22,fp,449ac <_dtoa_r+0x159c>
   439e8:	8809883a 	mov	r4,r17
   439ec:	a80b883a 	mov	r5,r21
   439f0:	000d883a 	mov	r6,zero
   439f4:	01d00934 	movhi	r7,16420
   439f8:	00496300 	call	49630 <__muldf3>
   439fc:	000d883a 	mov	r6,zero
   43a00:	01d00934 	movhi	r7,16420
   43a04:	9009883a 	mov	r4,r18
   43a08:	980b883a 	mov	r5,r19
   43a0c:	1023883a 	mov	r17,r2
   43a10:	182b883a 	mov	r21,r3
   43a14:	00496300 	call	49630 <__muldf3>
   43a18:	180b883a 	mov	r5,r3
   43a1c:	1009883a 	mov	r4,r2
   43a20:	1825883a 	mov	r18,r3
   43a24:	1027883a 	mov	r19,r2
   43a28:	0049d780 	call	49d78 <__fixdfsi>
   43a2c:	1009883a 	mov	r4,r2
   43a30:	1029883a 	mov	r20,r2
   43a34:	0049ca40 	call	49ca4 <__floatsidf>
   43a38:	9809883a 	mov	r4,r19
   43a3c:	900b883a 	mov	r5,r18
   43a40:	100d883a 	mov	r6,r2
   43a44:	180f883a 	mov	r7,r3
   43a48:	00495d00 	call	495d0 <__subdf3>
   43a4c:	a5000c04 	addi	r20,r20,48
   43a50:	b5000005 	stb	r20,0(r22)
   43a54:	1009883a 	mov	r4,r2
   43a58:	180b883a 	mov	r5,r3
   43a5c:	880d883a 	mov	r6,r17
   43a60:	a80f883a 	mov	r7,r21
   43a64:	1025883a 	mov	r18,r2
   43a68:	1827883a 	mov	r19,r3
   43a6c:	0049c480 	call	49c48 <__ltdf2>
   43a70:	b5800044 	addi	r22,r22,1
   43a74:	0009883a 	mov	r4,zero
   43a78:	014ffc34 	movhi	r5,16368
   43a7c:	900d883a 	mov	r6,r18
   43a80:	980f883a 	mov	r7,r19
   43a84:	103fd00e 	bge	r2,zero,439c8 <_dtoa_r+0x5b8>
   43a88:	d9001317 	ldw	r4,76(sp)
   43a8c:	df001117 	ldw	fp,68(sp)
   43a90:	d9000615 	stw	r4,24(sp)
   43a94:	8009883a 	mov	r4,r16
   43a98:	e00b883a 	mov	r5,fp
   43a9c:	00468d00 	call	468d0 <_Bfree>
   43aa0:	d9c00617 	ldw	r7,24(sp)
   43aa4:	d8c02217 	ldw	r3,136(sp)
   43aa8:	d9002417 	ldw	r4,144(sp)
   43aac:	b0000005 	stb	zero,0(r22)
   43ab0:	38800044 	addi	r2,r7,1
   43ab4:	18800015 	stw	r2,0(r3)
   43ab8:	203e8426 	beq	r4,zero,434cc <_dtoa_r+0xbc>
   43abc:	25800015 	stw	r22,0(r4)
   43ac0:	003e8206 	br	434cc <_dtoa_r+0xbc>
   43ac4:	00800434 	movhi	r2,16
   43ac8:	10bfffc4 	addi	r2,r2,-1
   43acc:	90a4703a 	and	r18,r18,r2
   43ad0:	903e901e 	bne	r18,zero,43514 <_dtoa_r+0x104>
   43ad4:	05c00174 	movhi	r23,5
   43ad8:	bdf50d04 	addi	r23,r23,-11212
   43adc:	003e8f06 	br	4351c <_dtoa_r+0x10c>
   43ae0:	b8800204 	addi	r2,r23,8
   43ae4:	003e9206 	br	43530 <_dtoa_r+0x120>
   43ae8:	01400434 	movhi	r5,16
   43aec:	297fffc4 	addi	r5,r5,-1
   43af0:	894a703a 	and	r5,r17,r5
   43af4:	d9000317 	ldw	r4,12(sp)
   43af8:	294ffc34 	orhi	r5,r5,16368
   43afc:	a53f0044 	addi	r20,r20,-1023
   43b00:	dd400217 	ldw	r21,8(sp)
   43b04:	d8000f15 	stw	zero,60(sp)
   43b08:	003eb106 	br	435d0 <_dtoa_r+0x1c0>
   43b0c:	05c00174 	movhi	r23,5
   43b10:	bdf50404 	addi	r23,r23,-11248
   43b14:	003e6d06 	br	434cc <_dtoa_r+0xbc>
   43b18:	d8000415 	stw	zero,16(sp)
   43b1c:	80001115 	stw	zero,68(r16)
   43b20:	8009883a 	mov	r4,r16
   43b24:	000b883a 	mov	r5,zero
   43b28:	00468280 	call	46828 <_Balloc>
   43b2c:	01ffffc4 	movi	r7,-1
   43b30:	102f883a 	mov	r23,r2
   43b34:	80801015 	stw	r2,64(r16)
   43b38:	00800044 	movi	r2,1
   43b3c:	d9c00915 	stw	r7,36(sp)
   43b40:	d8002115 	stw	zero,132(sp)
   43b44:	d9c00e15 	stw	r7,56(sp)
   43b48:	d8800c15 	stw	r2,48(sp)
   43b4c:	d8800117 	ldw	r2,4(sp)
   43b50:	10008b16 	blt	r2,zero,43d80 <_dtoa_r+0x970>
   43b54:	d9000617 	ldw	r4,24(sp)
   43b58:	00c00384 	movi	r3,14
   43b5c:	19008816 	blt	r3,r4,43d80 <_dtoa_r+0x970>
   43b60:	200490fa 	slli	r2,r4,3
   43b64:	d9c02117 	ldw	r7,132(sp)
   43b68:	00c00174 	movhi	r3,5
   43b6c:	18f53504 	addi	r3,r3,-11052
   43b70:	1885883a 	add	r2,r3,r2
   43b74:	14800017 	ldw	r18,0(r2)
   43b78:	14c00117 	ldw	r19,4(r2)
   43b7c:	3801c916 	blt	r7,zero,442a4 <_dtoa_r+0xe94>
   43b80:	d9000317 	ldw	r4,12(sp)
   43b84:	900d883a 	mov	r6,r18
   43b88:	980f883a 	mov	r7,r19
   43b8c:	880b883a 	mov	r5,r17
   43b90:	00499140 	call	49914 <__divdf3>
   43b94:	180b883a 	mov	r5,r3
   43b98:	1009883a 	mov	r4,r2
   43b9c:	0049d780 	call	49d78 <__fixdfsi>
   43ba0:	1009883a 	mov	r4,r2
   43ba4:	102b883a 	mov	r21,r2
   43ba8:	0049ca40 	call	49ca4 <__floatsidf>
   43bac:	1009883a 	mov	r4,r2
   43bb0:	180b883a 	mov	r5,r3
   43bb4:	900d883a 	mov	r6,r18
   43bb8:	980f883a 	mov	r7,r19
   43bbc:	00496300 	call	49630 <__muldf3>
   43bc0:	d9000317 	ldw	r4,12(sp)
   43bc4:	880b883a 	mov	r5,r17
   43bc8:	100d883a 	mov	r6,r2
   43bcc:	180f883a 	mov	r7,r3
   43bd0:	00495d00 	call	495d0 <__subdf3>
   43bd4:	d9c00917 	ldw	r7,36(sp)
   43bd8:	1009883a 	mov	r4,r2
   43bdc:	a8800c04 	addi	r2,r21,48
   43be0:	b8800005 	stb	r2,0(r23)
   43be4:	01800044 	movi	r6,1
   43be8:	180b883a 	mov	r5,r3
   43bec:	2005883a 	mov	r2,r4
   43bf0:	bd800044 	addi	r22,r23,1
   43bf4:	39803726 	beq	r7,r6,43cd4 <_dtoa_r+0x8c4>
   43bf8:	000d883a 	mov	r6,zero
   43bfc:	01d00934 	movhi	r7,16420
   43c00:	00496300 	call	49630 <__muldf3>
   43c04:	1009883a 	mov	r4,r2
   43c08:	180b883a 	mov	r5,r3
   43c0c:	000d883a 	mov	r6,zero
   43c10:	000f883a 	mov	r7,zero
   43c14:	1029883a 	mov	r20,r2
   43c18:	1823883a 	mov	r17,r3
   43c1c:	0049ac80 	call	49ac8 <__eqdf2>
   43c20:	103f9c26 	beq	r2,zero,43a94 <_dtoa_r+0x684>
   43c24:	dd400917 	ldw	r21,36(sp)
   43c28:	dc000415 	stw	r16,16(sp)
   43c2c:	00000906 	br	43c54 <_dtoa_r+0x844>
   43c30:	00496300 	call	49630 <__muldf3>
   43c34:	1009883a 	mov	r4,r2
   43c38:	180b883a 	mov	r5,r3
   43c3c:	000d883a 	mov	r6,zero
   43c40:	000f883a 	mov	r7,zero
   43c44:	1029883a 	mov	r20,r2
   43c48:	1823883a 	mov	r17,r3
   43c4c:	0049ac80 	call	49ac8 <__eqdf2>
   43c50:	10022926 	beq	r2,zero,444f8 <_dtoa_r+0x10e8>
   43c54:	900d883a 	mov	r6,r18
   43c58:	980f883a 	mov	r7,r19
   43c5c:	a009883a 	mov	r4,r20
   43c60:	880b883a 	mov	r5,r17
   43c64:	00499140 	call	49914 <__divdf3>
   43c68:	180b883a 	mov	r5,r3
   43c6c:	1009883a 	mov	r4,r2
   43c70:	0049d780 	call	49d78 <__fixdfsi>
   43c74:	1009883a 	mov	r4,r2
   43c78:	1021883a 	mov	r16,r2
   43c7c:	0049ca40 	call	49ca4 <__floatsidf>
   43c80:	1009883a 	mov	r4,r2
   43c84:	180b883a 	mov	r5,r3
   43c88:	900d883a 	mov	r6,r18
   43c8c:	980f883a 	mov	r7,r19
   43c90:	00496300 	call	49630 <__muldf3>
   43c94:	a009883a 	mov	r4,r20
   43c98:	880b883a 	mov	r5,r17
   43c9c:	100d883a 	mov	r6,r2
   43ca0:	180f883a 	mov	r7,r3
   43ca4:	00495d00 	call	495d0 <__subdf3>
   43ca8:	82400c04 	addi	r9,r16,48
   43cac:	b2400005 	stb	r9,0(r22)
   43cb0:	b5800044 	addi	r22,r22,1
   43cb4:	b5d3c83a 	sub	r9,r22,r23
   43cb8:	000d883a 	mov	r6,zero
   43cbc:	01d00934 	movhi	r7,16420
   43cc0:	1009883a 	mov	r4,r2
   43cc4:	180b883a 	mov	r5,r3
   43cc8:	aa7fd91e 	bne	r21,r9,43c30 <_dtoa_r+0x820>
   43ccc:	802b883a 	mov	r21,r16
   43cd0:	dc000417 	ldw	r16,16(sp)
   43cd4:	1009883a 	mov	r4,r2
   43cd8:	180b883a 	mov	r5,r3
   43cdc:	100d883a 	mov	r6,r2
   43ce0:	180f883a 	mov	r7,r3
   43ce4:	004957c0 	call	4957c <__adddf3>
   43ce8:	9009883a 	mov	r4,r18
   43cec:	980b883a 	mov	r5,r19
   43cf0:	100d883a 	mov	r6,r2
   43cf4:	180f883a 	mov	r7,r3
   43cf8:	1023883a 	mov	r17,r2
   43cfc:	1829883a 	mov	r20,r3
   43d00:	0049c480 	call	49c48 <__ltdf2>
   43d04:	10000816 	blt	r2,zero,43d28 <_dtoa_r+0x918>
   43d08:	9009883a 	mov	r4,r18
   43d0c:	980b883a 	mov	r5,r19
   43d10:	880d883a 	mov	r6,r17
   43d14:	a00f883a 	mov	r7,r20
   43d18:	0049ac80 	call	49ac8 <__eqdf2>
   43d1c:	103f5d1e 	bne	r2,zero,43a94 <_dtoa_r+0x684>
   43d20:	ad40004c 	andi	r21,r21,1
   43d24:	a83f5b26 	beq	r21,zero,43a94 <_dtoa_r+0x684>
   43d28:	b53fffc3 	ldbu	r20,-1(r22)
   43d2c:	b0ffff84 	addi	r3,r22,-2
   43d30:	01400e44 	movi	r5,57
   43d34:	00000306 	br	43d44 <_dtoa_r+0x934>
   43d38:	1d000003 	ldbu	r20,0(r3)
   43d3c:	102d883a 	mov	r22,r2
   43d40:	18ffffc4 	addi	r3,r3,-1
   43d44:	a1003fcc 	andi	r4,r20,255
   43d48:	2100201c 	xori	r4,r4,128
   43d4c:	213fe004 	addi	r4,r4,-128
   43d50:	b0bfffc4 	addi	r2,r22,-1
   43d54:	2142ca1e 	bne	r4,r5,44880 <_dtoa_r+0x1470>
   43d58:	b8bff71e 	bne	r23,r2,43d38 <_dtoa_r+0x928>
   43d5c:	d8800617 	ldw	r2,24(sp)
   43d60:	05000c44 	movi	r20,49
   43d64:	10800044 	addi	r2,r2,1
   43d68:	d8800615 	stw	r2,24(sp)
   43d6c:	00800c04 	movi	r2,48
   43d70:	b8800005 	stb	r2,0(r23)
   43d74:	b805883a 	mov	r2,r23
   43d78:	15000005 	stb	r20,0(r2)
   43d7c:	003f4506 	br	43a94 <_dtoa_r+0x684>
   43d80:	d9c00c17 	ldw	r7,48(sp)
   43d84:	3800c926 	beq	r7,zero,440ac <_dtoa_r+0xc9c>
   43d88:	d9c00417 	ldw	r7,16(sp)
   43d8c:	00c00044 	movi	r3,1
   43d90:	19c16c0e 	bge	r3,r7,44344 <_dtoa_r+0xf34>
   43d94:	d9000917 	ldw	r4,36(sp)
   43d98:	d9c00a17 	ldw	r7,40(sp)
   43d9c:	24ffffc4 	addi	r19,r4,-1
   43da0:	3cc20716 	blt	r7,r19,445c0 <_dtoa_r+0x11b0>
   43da4:	3ce7c83a 	sub	r19,r7,r19
   43da8:	d9c00917 	ldw	r7,36(sp)
   43dac:	3802ae16 	blt	r7,zero,44868 <_dtoa_r+0x1458>
   43db0:	dc800817 	ldw	r18,32(sp)
   43db4:	d8800917 	ldw	r2,36(sp)
   43db8:	d8c00817 	ldw	r3,32(sp)
   43dbc:	d9c00717 	ldw	r7,28(sp)
   43dc0:	8009883a 	mov	r4,r16
   43dc4:	1887883a 	add	r3,r3,r2
   43dc8:	388f883a 	add	r7,r7,r2
   43dcc:	01400044 	movi	r5,1
   43dd0:	d8c00815 	stw	r3,32(sp)
   43dd4:	d9c00715 	stw	r7,28(sp)
   43dd8:	0046c580 	call	46c58 <__i2b>
   43ddc:	102b883a 	mov	r21,r2
   43de0:	90000a26 	beq	r18,zero,43e0c <_dtoa_r+0x9fc>
   43de4:	d8800717 	ldw	r2,28(sp)
   43de8:	0080080e 	bge	zero,r2,43e0c <_dtoa_r+0x9fc>
   43dec:	90812b16 	blt	r18,r2,4429c <_dtoa_r+0xe8c>
   43df0:	d8c00817 	ldw	r3,32(sp)
   43df4:	d9000717 	ldw	r4,28(sp)
   43df8:	90a5c83a 	sub	r18,r18,r2
   43dfc:	1887c83a 	sub	r3,r3,r2
   43e00:	2089c83a 	sub	r4,r4,r2
   43e04:	d8c00815 	stw	r3,32(sp)
   43e08:	d9000715 	stw	r4,28(sp)
   43e0c:	d9c00a17 	ldw	r7,40(sp)
   43e10:	01c0140e 	bge	zero,r7,43e64 <_dtoa_r+0xa54>
   43e14:	d8800c17 	ldw	r2,48(sp)
   43e18:	1001de26 	beq	r2,zero,44594 <_dtoa_r+0x1184>
   43e1c:	04c00e0e 	bge	zero,r19,43e58 <_dtoa_r+0xa48>
   43e20:	a80b883a 	mov	r5,r21
   43e24:	8009883a 	mov	r4,r16
   43e28:	980d883a 	mov	r6,r19
   43e2c:	0046eec0 	call	46eec <__pow5mult>
   43e30:	e00d883a 	mov	r6,fp
   43e34:	8009883a 	mov	r4,r16
   43e38:	100b883a 	mov	r5,r2
   43e3c:	102b883a 	mov	r21,r2
   43e40:	0046c940 	call	46c94 <__multiply>
   43e44:	1029883a 	mov	r20,r2
   43e48:	e00b883a 	mov	r5,fp
   43e4c:	8009883a 	mov	r4,r16
   43e50:	00468d00 	call	468d0 <_Bfree>
   43e54:	a039883a 	mov	fp,r20
   43e58:	d8c00a17 	ldw	r3,40(sp)
   43e5c:	1ccdc83a 	sub	r6,r3,r19
   43e60:	3001291e 	bne	r6,zero,44308 <_dtoa_r+0xef8>
   43e64:	8009883a 	mov	r4,r16
   43e68:	01400044 	movi	r5,1
   43e6c:	0046c580 	call	46c58 <__i2b>
   43e70:	d9000b17 	ldw	r4,44(sp)
   43e74:	1029883a 	mov	r20,r2
   43e78:	0100050e 	bge	zero,r4,43e90 <_dtoa_r+0xa80>
   43e7c:	d9800b17 	ldw	r6,44(sp)
   43e80:	8009883a 	mov	r4,r16
   43e84:	100b883a 	mov	r5,r2
   43e88:	0046eec0 	call	46eec <__pow5mult>
   43e8c:	1029883a 	mov	r20,r2
   43e90:	d9c00417 	ldw	r7,16(sp)
   43e94:	00800044 	movi	r2,1
   43e98:	11c0f00e 	bge	r2,r7,4425c <_dtoa_r+0xe4c>
   43e9c:	0023883a 	mov	r17,zero
   43ea0:	d8800b17 	ldw	r2,44(sp)
   43ea4:	1001741e 	bne	r2,zero,44478 <_dtoa_r+0x1068>
   43ea8:	00800044 	movi	r2,1
   43eac:	d8c00717 	ldw	r3,28(sp)
   43eb0:	10c5883a 	add	r2,r2,r3
   43eb4:	108007cc 	andi	r2,r2,31
   43eb8:	10008026 	beq	r2,zero,440bc <_dtoa_r+0xcac>
   43ebc:	01000804 	movi	r4,32
   43ec0:	2089c83a 	sub	r4,r4,r2
   43ec4:	00c00104 	movi	r3,4
   43ec8:	1902d00e 	bge	r3,r4,44a0c <_dtoa_r+0x15fc>
   43ecc:	d9000817 	ldw	r4,32(sp)
   43ed0:	d9c00717 	ldw	r7,28(sp)
   43ed4:	00c00704 	movi	r3,28
   43ed8:	1885c83a 	sub	r2,r3,r2
   43edc:	2089883a 	add	r4,r4,r2
   43ee0:	388f883a 	add	r7,r7,r2
   43ee4:	d9000815 	stw	r4,32(sp)
   43ee8:	90a5883a 	add	r18,r18,r2
   43eec:	d9c00715 	stw	r7,28(sp)
   43ef0:	d9c00817 	ldw	r7,32(sp)
   43ef4:	01c0050e 	bge	zero,r7,43f0c <_dtoa_r+0xafc>
   43ef8:	e00b883a 	mov	r5,fp
   43efc:	8009883a 	mov	r4,r16
   43f00:	380d883a 	mov	r6,r7
   43f04:	00470180 	call	47018 <__lshift>
   43f08:	1039883a 	mov	fp,r2
   43f0c:	d8800717 	ldw	r2,28(sp)
   43f10:	0080050e 	bge	zero,r2,43f28 <_dtoa_r+0xb18>
   43f14:	a00b883a 	mov	r5,r20
   43f18:	8009883a 	mov	r4,r16
   43f1c:	100d883a 	mov	r6,r2
   43f20:	00470180 	call	47018 <__lshift>
   43f24:	1029883a 	mov	r20,r2
   43f28:	d8c00d17 	ldw	r3,52(sp)
   43f2c:	1801401e 	bne	r3,zero,44430 <_dtoa_r+0x1020>
   43f30:	d8800917 	ldw	r2,36(sp)
   43f34:	00815a0e 	bge	zero,r2,444a0 <_dtoa_r+0x1090>
   43f38:	d8c00c17 	ldw	r3,48(sp)
   43f3c:	18006f1e 	bne	r3,zero,440fc <_dtoa_r+0xcec>
   43f40:	b823883a 	mov	r17,r23
   43f44:	dc800917 	ldw	r18,36(sp)
   43f48:	00000206 	br	43f54 <_dtoa_r+0xb44>
   43f4c:	00468f80 	call	468f8 <__multadd>
   43f50:	1039883a 	mov	fp,r2
   43f54:	e009883a 	mov	r4,fp
   43f58:	a00b883a 	mov	r5,r20
   43f5c:	00431d40 	call	431d4 <quorem>
   43f60:	10800c04 	addi	r2,r2,48
   43f64:	88800005 	stb	r2,0(r17)
   43f68:	8c400044 	addi	r17,r17,1
   43f6c:	8dc7c83a 	sub	r3,r17,r23
   43f70:	8009883a 	mov	r4,r16
   43f74:	e00b883a 	mov	r5,fp
   43f78:	01800284 	movi	r6,10
   43f7c:	000f883a 	mov	r7,zero
   43f80:	1cbff216 	blt	r3,r18,43f4c <_dtoa_r+0xb3c>
   43f84:	dd800917 	ldw	r22,36(sp)
   43f88:	1007883a 	mov	r3,r2
   43f8c:	05823a0e 	bge	zero,r22,44878 <_dtoa_r+0x1468>
   43f90:	bdad883a 	add	r22,r23,r22
   43f94:	0023883a 	mov	r17,zero
   43f98:	e00b883a 	mov	r5,fp
   43f9c:	01800044 	movi	r6,1
   43fa0:	8009883a 	mov	r4,r16
   43fa4:	d8c01515 	stw	r3,84(sp)
   43fa8:	00470180 	call	47018 <__lshift>
   43fac:	1009883a 	mov	r4,r2
   43fb0:	a00b883a 	mov	r5,r20
   43fb4:	1039883a 	mov	fp,r2
   43fb8:	00471740 	call	47174 <__mcmp>
   43fbc:	d8c01517 	ldw	r3,84(sp)
   43fc0:	0080d60e 	bge	zero,r2,4431c <_dtoa_r+0xf0c>
   43fc4:	b13fffc3 	ldbu	r4,-1(r22)
   43fc8:	b0ffff84 	addi	r3,r22,-2
   43fcc:	01800e44 	movi	r6,57
   43fd0:	00000306 	br	43fe0 <_dtoa_r+0xbd0>
   43fd4:	19000003 	ldbu	r4,0(r3)
   43fd8:	102d883a 	mov	r22,r2
   43fdc:	18ffffc4 	addi	r3,r3,-1
   43fe0:	21403fcc 	andi	r5,r4,255
   43fe4:	2940201c 	xori	r5,r5,128
   43fe8:	297fe004 	addi	r5,r5,-128
   43fec:	b0bfffc4 	addi	r2,r22,-1
   43ff0:	2981a71e 	bne	r5,r6,44690 <_dtoa_r+0x1280>
   43ff4:	b8bff71e 	bne	r23,r2,43fd4 <_dtoa_r+0xbc4>
   43ff8:	d8800617 	ldw	r2,24(sp)
   43ffc:	10800044 	addi	r2,r2,1
   44000:	d8800615 	stw	r2,24(sp)
   44004:	00800c44 	movi	r2,49
   44008:	b8800005 	stb	r2,0(r23)
   4400c:	8009883a 	mov	r4,r16
   44010:	a00b883a 	mov	r5,r20
   44014:	00468d00 	call	468d0 <_Bfree>
   44018:	a83e9e26 	beq	r21,zero,43a94 <_dtoa_r+0x684>
   4401c:	88000426 	beq	r17,zero,44030 <_dtoa_r+0xc20>
   44020:	8d400326 	beq	r17,r21,44030 <_dtoa_r+0xc20>
   44024:	8009883a 	mov	r4,r16
   44028:	880b883a 	mov	r5,r17
   4402c:	00468d00 	call	468d0 <_Bfree>
   44030:	8009883a 	mov	r4,r16
   44034:	a80b883a 	mov	r5,r21
   44038:	00468d00 	call	468d0 <_Bfree>
   4403c:	003e9506 	br	43a94 <_dtoa_r+0x684>
   44040:	00c00044 	movi	r3,1
   44044:	d8c00d15 	stw	r3,52(sp)
   44048:	003d9f06 	br	436c8 <_dtoa_r+0x2b8>
   4404c:	d9000817 	ldw	r4,32(sp)
   44050:	d8800617 	ldw	r2,24(sp)
   44054:	d8000b15 	stw	zero,44(sp)
   44058:	2089c83a 	sub	r4,r4,r2
   4405c:	0087c83a 	sub	r3,zero,r2
   44060:	d9000815 	stw	r4,32(sp)
   44064:	d8c00a15 	stw	r3,40(sp)
   44068:	003da306 	br	436f8 <_dtoa_r+0x2e8>
   4406c:	0529c83a 	sub	r20,zero,r20
   44070:	dd000815 	stw	r20,32(sp)
   44074:	d8000715 	stw	zero,28(sp)
   44078:	003d9806 	br	436dc <_dtoa_r+0x2cc>
   4407c:	d9000617 	ldw	r4,24(sp)
   44080:	0049ca40 	call	49ca4 <__floatsidf>
   44084:	1009883a 	mov	r4,r2
   44088:	180b883a 	mov	r5,r3
   4408c:	980d883a 	mov	r6,r19
   44090:	900f883a 	mov	r7,r18
   44094:	0049b240 	call	49b24 <__nedf2>
   44098:	103d7a26 	beq	r2,zero,43684 <_dtoa_r+0x274>
   4409c:	d8800617 	ldw	r2,24(sp)
   440a0:	10bfffc4 	addi	r2,r2,-1
   440a4:	d8800615 	stw	r2,24(sp)
   440a8:	003d7606 	br	43684 <_dtoa_r+0x274>
   440ac:	dcc00a17 	ldw	r19,40(sp)
   440b0:	dc800817 	ldw	r18,32(sp)
   440b4:	002b883a 	mov	r21,zero
   440b8:	003f4906 	br	43de0 <_dtoa_r+0x9d0>
   440bc:	00800704 	movi	r2,28
   440c0:	d8c00817 	ldw	r3,32(sp)
   440c4:	d9000717 	ldw	r4,28(sp)
   440c8:	90a5883a 	add	r18,r18,r2
   440cc:	1887883a 	add	r3,r3,r2
   440d0:	2089883a 	add	r4,r4,r2
   440d4:	d8c00815 	stw	r3,32(sp)
   440d8:	d9000715 	stw	r4,28(sp)
   440dc:	003f8406 	br	43ef0 <_dtoa_r+0xae0>
   440e0:	d9c00317 	ldw	r7,12(sp)
   440e4:	013efb84 	movi	r4,-1042
   440e8:	2509c83a 	sub	r4,r4,r20
   440ec:	3908983a 	sll	r4,r7,r4
   440f0:	003d3006 	br	435b4 <_dtoa_r+0x1a4>
   440f4:	d8000d15 	stw	zero,52(sp)
   440f8:	003d7306 	br	436c8 <_dtoa_r+0x2b8>
   440fc:	0480050e 	bge	zero,r18,44114 <_dtoa_r+0xd04>
   44100:	a80b883a 	mov	r5,r21
   44104:	8009883a 	mov	r4,r16
   44108:	900d883a 	mov	r6,r18
   4410c:	00470180 	call	47018 <__lshift>
   44110:	102b883a 	mov	r21,r2
   44114:	8801611e 	bne	r17,zero,4469c <_dtoa_r+0x128c>
   44118:	a827883a 	mov	r19,r21
   4411c:	d8c00317 	ldw	r3,12(sp)
   44120:	d9000917 	ldw	r4,36(sp)
   44124:	b8bfffc4 	addi	r2,r23,-1
   44128:	18c0004c 	andi	r3,r3,1
   4412c:	1105883a 	add	r2,r2,r4
   44130:	b825883a 	mov	r18,r23
   44134:	d8800515 	stw	r2,20(sp)
   44138:	a823883a 	mov	r17,r21
   4413c:	d8c00315 	stw	r3,12(sp)
   44140:	ddc00715 	stw	r23,28(sp)
   44144:	e009883a 	mov	r4,fp
   44148:	a00b883a 	mov	r5,r20
   4414c:	00431d40 	call	431d4 <quorem>
   44150:	e009883a 	mov	r4,fp
   44154:	880b883a 	mov	r5,r17
   44158:	102d883a 	mov	r22,r2
   4415c:	00471740 	call	47174 <__mcmp>
   44160:	980d883a 	mov	r6,r19
   44164:	8009883a 	mov	r4,r16
   44168:	a00b883a 	mov	r5,r20
   4416c:	102b883a 	mov	r21,r2
   44170:	00471cc0 	call	471cc <__mdiff>
   44174:	100d883a 	mov	r6,r2
   44178:	10800317 	ldw	r2,12(r2)
   4417c:	b5c00c04 	addi	r23,r22,48
   44180:	10008c26 	beq	r2,zero,443b4 <_dtoa_r+0xfa4>
   44184:	8009883a 	mov	r4,r16
   44188:	300b883a 	mov	r5,r6
   4418c:	00468d00 	call	468d0 <_Bfree>
   44190:	00800044 	movi	r2,1
   44194:	a8007116 	blt	r21,zero,4435c <_dtoa_r+0xf4c>
   44198:	a800041e 	bne	r21,zero,441ac <_dtoa_r+0xd9c>
   4419c:	d9c00417 	ldw	r7,16(sp)
   441a0:	3800021e 	bne	r7,zero,441ac <_dtoa_r+0xd9c>
   441a4:	d8c00317 	ldw	r3,12(sp)
   441a8:	18006c26 	beq	r3,zero,4435c <_dtoa_r+0xf4c>
   441ac:	00814c16 	blt	zero,r2,446e0 <_dtoa_r+0x12d0>
   441b0:	d8c00517 	ldw	r3,20(sp)
   441b4:	95400044 	addi	r21,r18,1
   441b8:	95c00005 	stb	r23,0(r18)
   441bc:	a82d883a 	mov	r22,r21
   441c0:	90c14d26 	beq	r18,r3,446f8 <_dtoa_r+0x12e8>
   441c4:	e00b883a 	mov	r5,fp
   441c8:	8009883a 	mov	r4,r16
   441cc:	01800284 	movi	r6,10
   441d0:	000f883a 	mov	r7,zero
   441d4:	00468f80 	call	468f8 <__multadd>
   441d8:	1039883a 	mov	fp,r2
   441dc:	8cc08b26 	beq	r17,r19,4440c <_dtoa_r+0xffc>
   441e0:	880b883a 	mov	r5,r17
   441e4:	01800284 	movi	r6,10
   441e8:	000f883a 	mov	r7,zero
   441ec:	8009883a 	mov	r4,r16
   441f0:	00468f80 	call	468f8 <__multadd>
   441f4:	980b883a 	mov	r5,r19
   441f8:	8009883a 	mov	r4,r16
   441fc:	01800284 	movi	r6,10
   44200:	000f883a 	mov	r7,zero
   44204:	1023883a 	mov	r17,r2
   44208:	00468f80 	call	468f8 <__multadd>
   4420c:	1027883a 	mov	r19,r2
   44210:	a825883a 	mov	r18,r21
   44214:	003fcb06 	br	44144 <_dtoa_r+0xd34>
   44218:	d9c00417 	ldw	r7,16(sp)
   4421c:	00800104 	movi	r2,4
   44220:	3880e426 	beq	r7,r2,445b4 <_dtoa_r+0x11a4>
   44224:	00800144 	movi	r2,5
   44228:	38be3c1e 	bne	r7,r2,43b1c <_dtoa_r+0x70c>
   4422c:	00c00044 	movi	r3,1
   44230:	d8c00c15 	stw	r3,48(sp)
   44234:	d9c02117 	ldw	r7,132(sp)
   44238:	d8800617 	ldw	r2,24(sp)
   4423c:	388f883a 	add	r7,r7,r2
   44240:	3c800044 	addi	r18,r7,1
   44244:	d9c00e15 	stw	r7,56(sp)
   44248:	dc800915 	stw	r18,36(sp)
   4424c:	04bd3e16 	blt	zero,r18,43748 <_dtoa_r+0x338>
   44250:	80001115 	stw	zero,68(r16)
   44254:	000b883a 	mov	r5,zero
   44258:	003d4606 	br	43774 <_dtoa_r+0x364>
   4425c:	d8c00317 	ldw	r3,12(sp)
   44260:	183f0e1e 	bne	r3,zero,43e9c <_dtoa_r+0xa8c>
   44264:	00c00434 	movhi	r3,16
   44268:	18ffffc4 	addi	r3,r3,-1
   4426c:	88c6703a 	and	r3,r17,r3
   44270:	183f0a1e 	bne	r3,zero,43e9c <_dtoa_r+0xa8c>
   44274:	8c5ffc2c 	andhi	r17,r17,32752
   44278:	883f0826 	beq	r17,zero,43e9c <_dtoa_r+0xa8c>
   4427c:	d9000817 	ldw	r4,32(sp)
   44280:	d9c00717 	ldw	r7,28(sp)
   44284:	1023883a 	mov	r17,r2
   44288:	2089883a 	add	r4,r4,r2
   4428c:	388f883a 	add	r7,r7,r2
   44290:	d9000815 	stw	r4,32(sp)
   44294:	d9c00715 	stw	r7,28(sp)
   44298:	003f0106 	br	43ea0 <_dtoa_r+0xa90>
   4429c:	9005883a 	mov	r2,r18
   442a0:	003ed306 	br	43df0 <_dtoa_r+0x9e0>
   442a4:	d8800917 	ldw	r2,36(sp)
   442a8:	00be3516 	blt	zero,r2,43b80 <_dtoa_r+0x770>
   442ac:	1000b61e 	bne	r2,zero,44588 <_dtoa_r+0x1178>
   442b0:	9009883a 	mov	r4,r18
   442b4:	980b883a 	mov	r5,r19
   442b8:	000d883a 	mov	r6,zero
   442bc:	01d00534 	movhi	r7,16404
   442c0:	00496300 	call	49630 <__muldf3>
   442c4:	d9800317 	ldw	r6,12(sp)
   442c8:	1009883a 	mov	r4,r2
   442cc:	180b883a 	mov	r5,r3
   442d0:	880f883a 	mov	r7,r17
   442d4:	0049be40 	call	49be4 <__gedf2>
   442d8:	0029883a 	mov	r20,zero
   442dc:	002b883a 	mov	r21,zero
   442e0:	10007e16 	blt	r2,zero,444dc <_dtoa_r+0x10cc>
   442e4:	d8802117 	ldw	r2,132(sp)
   442e8:	b82d883a 	mov	r22,r23
   442ec:	0084303a 	nor	r2,zero,r2
   442f0:	d8800615 	stw	r2,24(sp)
   442f4:	8009883a 	mov	r4,r16
   442f8:	a00b883a 	mov	r5,r20
   442fc:	00468d00 	call	468d0 <_Bfree>
   44300:	a83f4b1e 	bne	r21,zero,44030 <_dtoa_r+0xc20>
   44304:	003de306 	br	43a94 <_dtoa_r+0x684>
   44308:	e00b883a 	mov	r5,fp
   4430c:	8009883a 	mov	r4,r16
   44310:	0046eec0 	call	46eec <__pow5mult>
   44314:	1039883a 	mov	fp,r2
   44318:	003ed206 	br	43e64 <_dtoa_r+0xa54>
   4431c:	1000021e 	bne	r2,zero,44328 <_dtoa_r+0xf18>
   44320:	18c0004c 	andi	r3,r3,1
   44324:	183f271e 	bne	r3,zero,43fc4 <_dtoa_r+0xbb4>
   44328:	01000c04 	movi	r4,48
   4432c:	00000106 	br	44334 <_dtoa_r+0xf24>
   44330:	102d883a 	mov	r22,r2
   44334:	b0bfffc4 	addi	r2,r22,-1
   44338:	10c00007 	ldb	r3,0(r2)
   4433c:	193ffc26 	beq	r3,r4,44330 <_dtoa_r+0xf20>
   44340:	003f3206 	br	4400c <_dtoa_r+0xbfc>
   44344:	d8c00f17 	ldw	r3,60(sp)
   44348:	18015026 	beq	r3,zero,4488c <_dtoa_r+0x147c>
   4434c:	10810cc4 	addi	r2,r2,1075
   44350:	dcc00a17 	ldw	r19,40(sp)
   44354:	dc800817 	ldw	r18,32(sp)
   44358:	003e9706 	br	43db8 <_dtoa_r+0x9a8>
   4435c:	b807883a 	mov	r3,r23
   44360:	182b883a 	mov	r21,r3
   44364:	ddc00717 	ldw	r23,28(sp)
   44368:	00800e0e 	bge	zero,r2,443a4 <_dtoa_r+0xf94>
   4436c:	e00b883a 	mov	r5,fp
   44370:	01800044 	movi	r6,1
   44374:	8009883a 	mov	r4,r16
   44378:	d8c01515 	stw	r3,84(sp)
   4437c:	00470180 	call	47018 <__lshift>
   44380:	1009883a 	mov	r4,r2
   44384:	a00b883a 	mov	r5,r20
   44388:	1039883a 	mov	fp,r2
   4438c:	00471740 	call	47174 <__mcmp>
   44390:	d8c01517 	ldw	r3,84(sp)
   44394:	0081880e 	bge	zero,r2,449b8 <_dtoa_r+0x15a8>
   44398:	00800e44 	movi	r2,57
   4439c:	b0c00c44 	addi	r3,r22,49
   443a0:	a8816326 	beq	r21,r2,44930 <_dtoa_r+0x1520>
   443a4:	90c00005 	stb	r3,0(r18)
   443a8:	95800044 	addi	r22,r18,1
   443ac:	982b883a 	mov	r21,r19
   443b0:	003f1606 	br	4400c <_dtoa_r+0xbfc>
   443b4:	300b883a 	mov	r5,r6
   443b8:	e009883a 	mov	r4,fp
   443bc:	d9801515 	stw	r6,84(sp)
   443c0:	00471740 	call	47174 <__mcmp>
   443c4:	d9801517 	ldw	r6,84(sp)
   443c8:	8009883a 	mov	r4,r16
   443cc:	d8801515 	stw	r2,84(sp)
   443d0:	300b883a 	mov	r5,r6
   443d4:	00468d00 	call	468d0 <_Bfree>
   443d8:	d8801517 	ldw	r2,84(sp)
   443dc:	103f6d1e 	bne	r2,zero,44194 <_dtoa_r+0xd84>
   443e0:	d9c00417 	ldw	r7,16(sp)
   443e4:	383f6b1e 	bne	r7,zero,44194 <_dtoa_r+0xd84>
   443e8:	d8c00317 	ldw	r3,12(sp)
   443ec:	183f691e 	bne	r3,zero,44194 <_dtoa_r+0xd84>
   443f0:	b807883a 	mov	r3,r23
   443f4:	00800e44 	movi	r2,57
   443f8:	ddc00717 	ldw	r23,28(sp)
   443fc:	18814c26 	beq	r3,r2,44930 <_dtoa_r+0x1520>
   44400:	057fe80e 	bge	zero,r21,443a4 <_dtoa_r+0xf94>
   44404:	b0c00c44 	addi	r3,r22,49
   44408:	003fe606 	br	443a4 <_dtoa_r+0xf94>
   4440c:	880b883a 	mov	r5,r17
   44410:	8009883a 	mov	r4,r16
   44414:	01800284 	movi	r6,10
   44418:	000f883a 	mov	r7,zero
   4441c:	00468f80 	call	468f8 <__multadd>
   44420:	1023883a 	mov	r17,r2
   44424:	1027883a 	mov	r19,r2
   44428:	a825883a 	mov	r18,r21
   4442c:	003f4506 	br	44144 <_dtoa_r+0xd34>
   44430:	e009883a 	mov	r4,fp
   44434:	a00b883a 	mov	r5,r20
   44438:	00471740 	call	47174 <__mcmp>
   4443c:	103ebc0e 	bge	r2,zero,43f30 <_dtoa_r+0xb20>
   44440:	e00b883a 	mov	r5,fp
   44444:	8009883a 	mov	r4,r16
   44448:	01800284 	movi	r6,10
   4444c:	000f883a 	mov	r7,zero
   44450:	00468f80 	call	468f8 <__multadd>
   44454:	1039883a 	mov	fp,r2
   44458:	d8800617 	ldw	r2,24(sp)
   4445c:	d8c00c17 	ldw	r3,48(sp)
   44460:	10bfffc4 	addi	r2,r2,-1
   44464:	d8800615 	stw	r2,24(sp)
   44468:	1801571e 	bne	r3,zero,449c8 <_dtoa_r+0x15b8>
   4446c:	d9c00e17 	ldw	r7,56(sp)
   44470:	d9c00915 	stw	r7,36(sp)
   44474:	003eae06 	br	43f30 <_dtoa_r+0xb20>
   44478:	a0800417 	ldw	r2,16(r20)
   4447c:	10800104 	addi	r2,r2,4
   44480:	1085883a 	add	r2,r2,r2
   44484:	1085883a 	add	r2,r2,r2
   44488:	a085883a 	add	r2,r20,r2
   4448c:	11000017 	ldw	r4,0(r2)
   44490:	0046b400 	call	46b40 <__hi0bits>
   44494:	00c00804 	movi	r3,32
   44498:	1885c83a 	sub	r2,r3,r2
   4449c:	003e8306 	br	43eac <_dtoa_r+0xa9c>
   444a0:	d9c00417 	ldw	r7,16(sp)
   444a4:	00800084 	movi	r2,2
   444a8:	11fea30e 	bge	r2,r7,43f38 <_dtoa_r+0xb28>
   444ac:	d8800917 	ldw	r2,36(sp)
   444b0:	103f8c1e 	bne	r2,zero,442e4 <_dtoa_r+0xed4>
   444b4:	a00b883a 	mov	r5,r20
   444b8:	8009883a 	mov	r4,r16
   444bc:	01800144 	movi	r6,5
   444c0:	000f883a 	mov	r7,zero
   444c4:	00468f80 	call	468f8 <__multadd>
   444c8:	e009883a 	mov	r4,fp
   444cc:	100b883a 	mov	r5,r2
   444d0:	1029883a 	mov	r20,r2
   444d4:	00471740 	call	47174 <__mcmp>
   444d8:	00bf820e 	bge	zero,r2,442e4 <_dtoa_r+0xed4>
   444dc:	00800c44 	movi	r2,49
   444e0:	b8800005 	stb	r2,0(r23)
   444e4:	d8800617 	ldw	r2,24(sp)
   444e8:	bd800044 	addi	r22,r23,1
   444ec:	10800044 	addi	r2,r2,1
   444f0:	d8800615 	stw	r2,24(sp)
   444f4:	003f7f06 	br	442f4 <_dtoa_r+0xee4>
   444f8:	dc000417 	ldw	r16,16(sp)
   444fc:	003d6506 	br	43a94 <_dtoa_r+0x684>
   44500:	9009883a 	mov	r4,r18
   44504:	0049ca40 	call	49ca4 <__floatsidf>
   44508:	1009883a 	mov	r4,r2
   4450c:	180b883a 	mov	r5,r3
   44510:	980d883a 	mov	r6,r19
   44514:	a00f883a 	mov	r7,r20
   44518:	00496300 	call	49630 <__muldf3>
   4451c:	1009883a 	mov	r4,r2
   44520:	180b883a 	mov	r5,r3
   44524:	000d883a 	mov	r6,zero
   44528:	01d00734 	movhi	r7,16412
   4452c:	004957c0 	call	4957c <__adddf3>
   44530:	057f3034 	movhi	r21,64704
   44534:	1025883a 	mov	r18,r2
   44538:	1d6b883a 	add	r21,r3,r21
   4453c:	9809883a 	mov	r4,r19
   44540:	a00b883a 	mov	r5,r20
   44544:	000d883a 	mov	r6,zero
   44548:	01d00534 	movhi	r7,16404
   4454c:	00495d00 	call	495d0 <__subdf3>
   44550:	1009883a 	mov	r4,r2
   44554:	180b883a 	mov	r5,r3
   44558:	900d883a 	mov	r6,r18
   4455c:	a80f883a 	mov	r7,r21
   44560:	1027883a 	mov	r19,r2
   44564:	1829883a 	mov	r20,r3
   44568:	0049b800 	call	49b80 <__gtdf2>
   4456c:	00806616 	blt	zero,r2,44708 <_dtoa_r+0x12f8>
   44570:	a9e0003c 	xorhi	r7,r21,32768
   44574:	9809883a 	mov	r4,r19
   44578:	a00b883a 	mov	r5,r20
   4457c:	900d883a 	mov	r6,r18
   44580:	0049c480 	call	49c48 <__ltdf2>
   44584:	103d710e 	bge	r2,zero,43b4c <_dtoa_r+0x73c>
   44588:	0029883a 	mov	r20,zero
   4458c:	002b883a 	mov	r21,zero
   44590:	003f5406 	br	442e4 <_dtoa_r+0xed4>
   44594:	d9800a17 	ldw	r6,40(sp)
   44598:	e00b883a 	mov	r5,fp
   4459c:	8009883a 	mov	r4,r16
   445a0:	0046eec0 	call	46eec <__pow5mult>
   445a4:	1039883a 	mov	fp,r2
   445a8:	003e2e06 	br	43e64 <_dtoa_r+0xa54>
   445ac:	d8000c15 	stw	zero,48(sp)
   445b0:	003f2006 	br	44234 <_dtoa_r+0xe24>
   445b4:	00800044 	movi	r2,1
   445b8:	d8800c15 	stw	r2,48(sp)
   445bc:	003c5d06 	br	43734 <_dtoa_r+0x324>
   445c0:	d8c00a17 	ldw	r3,40(sp)
   445c4:	d9000b17 	ldw	r4,44(sp)
   445c8:	dcc00a15 	stw	r19,40(sp)
   445cc:	98c5c83a 	sub	r2,r19,r3
   445d0:	2089883a 	add	r4,r4,r2
   445d4:	d9000b15 	stw	r4,44(sp)
   445d8:	0027883a 	mov	r19,zero
   445dc:	003df206 	br	43da8 <_dtoa_r+0x998>
   445e0:	d9000317 	ldw	r4,12(sp)
   445e4:	8829883a 	mov	r20,r17
   445e8:	04800084 	movi	r18,2
   445ec:	d9001015 	stw	r4,64(sp)
   445f0:	003c8106 	br	437f8 <_dtoa_r+0x3e8>
   445f4:	04800044 	movi	r18,1
   445f8:	dc800e15 	stw	r18,56(sp)
   445fc:	dc800915 	stw	r18,36(sp)
   44600:	dc802115 	stw	r18,132(sp)
   44604:	003f1206 	br	44250 <_dtoa_r+0xe40>
   44608:	d8800617 	ldw	r2,24(sp)
   4460c:	00abc83a 	sub	r21,zero,r2
   44610:	a800a426 	beq	r21,zero,448a4 <_dtoa_r+0x1494>
   44614:	a88003cc 	andi	r2,r21,15
   44618:	100490fa 	slli	r2,r2,3
   4461c:	00c00174 	movhi	r3,5
   44620:	18f53504 	addi	r3,r3,-11052
   44624:	d9000317 	ldw	r4,12(sp)
   44628:	1885883a 	add	r2,r3,r2
   4462c:	11800017 	ldw	r6,0(r2)
   44630:	11c00117 	ldw	r7,4(r2)
   44634:	a82bd13a 	srai	r21,r21,4
   44638:	880b883a 	mov	r5,r17
   4463c:	00496300 	call	49630 <__muldf3>
   44640:	1027883a 	mov	r19,r2
   44644:	1829883a 	mov	r20,r3
   44648:	a800e826 	beq	r21,zero,449ec <_dtoa_r+0x15dc>
   4464c:	05800174 	movhi	r22,5
   44650:	b5b52b04 	addi	r22,r22,-11092
   44654:	04800084 	movi	r18,2
   44658:	a980004c 	andi	r6,r21,1
   4465c:	1009883a 	mov	r4,r2
   44660:	a82bd07a 	srai	r21,r21,1
   44664:	180b883a 	mov	r5,r3
   44668:	30000426 	beq	r6,zero,4467c <_dtoa_r+0x126c>
   4466c:	b1800017 	ldw	r6,0(r22)
   44670:	b1c00117 	ldw	r7,4(r22)
   44674:	94800044 	addi	r18,r18,1
   44678:	00496300 	call	49630 <__muldf3>
   4467c:	b5800204 	addi	r22,r22,8
   44680:	a83ff51e 	bne	r21,zero,44658 <_dtoa_r+0x1248>
   44684:	1027883a 	mov	r19,r2
   44688:	1829883a 	mov	r20,r3
   4468c:	003c7306 	br	4385c <_dtoa_r+0x44c>
   44690:	21000044 	addi	r4,r4,1
   44694:	11000005 	stb	r4,0(r2)
   44698:	003e5c06 	br	4400c <_dtoa_r+0xbfc>
   4469c:	a9400117 	ldw	r5,4(r21)
   446a0:	8009883a 	mov	r4,r16
   446a4:	00468280 	call	46828 <_Balloc>
   446a8:	a9800417 	ldw	r6,16(r21)
   446ac:	11000304 	addi	r4,r2,12
   446b0:	a9400304 	addi	r5,r21,12
   446b4:	31800084 	addi	r6,r6,2
   446b8:	318d883a 	add	r6,r6,r6
   446bc:	318d883a 	add	r6,r6,r6
   446c0:	1023883a 	mov	r17,r2
   446c4:	00464800 	call	46480 <memcpy>
   446c8:	8009883a 	mov	r4,r16
   446cc:	880b883a 	mov	r5,r17
   446d0:	01800044 	movi	r6,1
   446d4:	00470180 	call	47018 <__lshift>
   446d8:	1027883a 	mov	r19,r2
   446dc:	003e8f06 	br	4411c <_dtoa_r+0xd0c>
   446e0:	b807883a 	mov	r3,r23
   446e4:	00800e44 	movi	r2,57
   446e8:	ddc00717 	ldw	r23,28(sp)
   446ec:	18809026 	beq	r3,r2,44930 <_dtoa_r+0x1520>
   446f0:	18c00044 	addi	r3,r3,1
   446f4:	003f2b06 	br	443a4 <_dtoa_r+0xf94>
   446f8:	b807883a 	mov	r3,r23
   446fc:	982b883a 	mov	r21,r19
   44700:	ddc00717 	ldw	r23,28(sp)
   44704:	003e2406 	br	43f98 <_dtoa_r+0xb88>
   44708:	0029883a 	mov	r20,zero
   4470c:	002b883a 	mov	r21,zero
   44710:	003f7206 	br	444dc <_dtoa_r+0x10cc>
   44714:	593fffc4 	addi	r4,r11,-1
   44718:	200490fa 	slli	r2,r4,3
   4471c:	00c00174 	movhi	r3,5
   44720:	18f53504 	addi	r3,r3,-11052
   44724:	d9001015 	stw	r4,64(sp)
   44728:	1885883a 	add	r2,r3,r2
   4472c:	11000017 	ldw	r4,0(r2)
   44730:	11400117 	ldw	r5,4(r2)
   44734:	900d883a 	mov	r6,r18
   44738:	a80f883a 	mov	r7,r21
   4473c:	dac01615 	stw	r11,88(sp)
   44740:	00496300 	call	49630 <__muldf3>
   44744:	a00b883a 	mov	r5,r20
   44748:	9809883a 	mov	r4,r19
   4474c:	d8c01215 	stw	r3,72(sp)
   44750:	d8801115 	stw	r2,68(sp)
   44754:	0049d780 	call	49d78 <__fixdfsi>
   44758:	1009883a 	mov	r4,r2
   4475c:	1025883a 	mov	r18,r2
   44760:	0049ca40 	call	49ca4 <__floatsidf>
   44764:	9809883a 	mov	r4,r19
   44768:	a00b883a 	mov	r5,r20
   4476c:	100d883a 	mov	r6,r2
   44770:	180f883a 	mov	r7,r3
   44774:	94800c04 	addi	r18,r18,48
   44778:	00495d00 	call	495d0 <__subdf3>
   4477c:	bc800005 	stb	r18,0(r23)
   44780:	dac01617 	ldw	r11,88(sp)
   44784:	102b883a 	mov	r21,r2
   44788:	00800044 	movi	r2,1
   4478c:	bd800044 	addi	r22,r23,1
   44790:	1815883a 	mov	r10,r3
   44794:	58802226 	beq	r11,r2,44820 <_dtoa_r+0x1410>
   44798:	bad7883a 	add	r11,r23,r11
   4479c:	dc001415 	stw	r16,80(sp)
   447a0:	a805883a 	mov	r2,r21
   447a4:	b027883a 	mov	r19,r22
   447a8:	5821883a 	mov	r16,r11
   447ac:	882b883a 	mov	r21,r17
   447b0:	000d883a 	mov	r6,zero
   447b4:	01d00934 	movhi	r7,16420
   447b8:	1009883a 	mov	r4,r2
   447bc:	180b883a 	mov	r5,r3
   447c0:	00496300 	call	49630 <__muldf3>
   447c4:	180b883a 	mov	r5,r3
   447c8:	1009883a 	mov	r4,r2
   447cc:	1829883a 	mov	r20,r3
   447d0:	1023883a 	mov	r17,r2
   447d4:	0049d780 	call	49d78 <__fixdfsi>
   447d8:	1009883a 	mov	r4,r2
   447dc:	1025883a 	mov	r18,r2
   447e0:	0049ca40 	call	49ca4 <__floatsidf>
   447e4:	8809883a 	mov	r4,r17
   447e8:	a00b883a 	mov	r5,r20
   447ec:	100d883a 	mov	r6,r2
   447f0:	180f883a 	mov	r7,r3
   447f4:	94800c04 	addi	r18,r18,48
   447f8:	00495d00 	call	495d0 <__subdf3>
   447fc:	9cc00044 	addi	r19,r19,1
   44800:	9cbfffc5 	stb	r18,-1(r19)
   44804:	9c3fea1e 	bne	r19,r16,447b0 <_dtoa_r+0x13a0>
   44808:	1815883a 	mov	r10,r3
   4480c:	d8c01017 	ldw	r3,64(sp)
   44810:	dc001417 	ldw	r16,80(sp)
   44814:	a823883a 	mov	r17,r21
   44818:	b0ed883a 	add	r22,r22,r3
   4481c:	102b883a 	mov	r21,r2
   44820:	d9001117 	ldw	r4,68(sp)
   44824:	d9401217 	ldw	r5,72(sp)
   44828:	000d883a 	mov	r6,zero
   4482c:	01cff834 	movhi	r7,16352
   44830:	da801515 	stw	r10,84(sp)
   44834:	004957c0 	call	4957c <__adddf3>
   44838:	da801517 	ldw	r10,84(sp)
   4483c:	1009883a 	mov	r4,r2
   44840:	180b883a 	mov	r5,r3
   44844:	500f883a 	mov	r7,r10
   44848:	a80d883a 	mov	r6,r21
   4484c:	0049c480 	call	49c48 <__ltdf2>
   44850:	da801517 	ldw	r10,84(sp)
   44854:	10003b0e 	bge	r2,zero,44944 <_dtoa_r+0x1534>
   44858:	d9c01317 	ldw	r7,76(sp)
   4485c:	b53fffc3 	ldbu	r20,-1(r22)
   44860:	d9c00615 	stw	r7,24(sp)
   44864:	003d3106 	br	43d2c <_dtoa_r+0x91c>
   44868:	d8800817 	ldw	r2,32(sp)
   4486c:	11e5c83a 	sub	r18,r2,r7
   44870:	0005883a 	mov	r2,zero
   44874:	003d5006 	br	43db8 <_dtoa_r+0x9a8>
   44878:	05800044 	movi	r22,1
   4487c:	003dc406 	br	43f90 <_dtoa_r+0xb80>
   44880:	a5000044 	addi	r20,r20,1
   44884:	15000005 	stb	r20,0(r2)
   44888:	003c8206 	br	43a94 <_dtoa_r+0x684>
   4488c:	d8800217 	ldw	r2,8(sp)
   44890:	00c00d84 	movi	r3,54
   44894:	dcc00a17 	ldw	r19,40(sp)
   44898:	1885c83a 	sub	r2,r3,r2
   4489c:	dc800817 	ldw	r18,32(sp)
   448a0:	003d4506 	br	43db8 <_dtoa_r+0x9a8>
   448a4:	dcc00317 	ldw	r19,12(sp)
   448a8:	8829883a 	mov	r20,r17
   448ac:	04800084 	movi	r18,2
   448b0:	003bea06 	br	4385c <_dtoa_r+0x44c>
   448b4:	d9000917 	ldw	r4,36(sp)
   448b8:	203f1126 	beq	r4,zero,44500 <_dtoa_r+0x10f0>
   448bc:	d9c00e17 	ldw	r7,56(sp)
   448c0:	01fca20e 	bge	zero,r7,43b4c <_dtoa_r+0x73c>
   448c4:	a00b883a 	mov	r5,r20
   448c8:	9809883a 	mov	r4,r19
   448cc:	000d883a 	mov	r6,zero
   448d0:	01d00934 	movhi	r7,16420
   448d4:	00496300 	call	49630 <__muldf3>
   448d8:	91000044 	addi	r4,r18,1
   448dc:	1027883a 	mov	r19,r2
   448e0:	1829883a 	mov	r20,r3
   448e4:	0049ca40 	call	49ca4 <__floatsidf>
   448e8:	9809883a 	mov	r4,r19
   448ec:	a00b883a 	mov	r5,r20
   448f0:	100d883a 	mov	r6,r2
   448f4:	180f883a 	mov	r7,r3
   448f8:	00496300 	call	49630 <__muldf3>
   448fc:	1009883a 	mov	r4,r2
   44900:	180b883a 	mov	r5,r3
   44904:	000d883a 	mov	r6,zero
   44908:	01d00734 	movhi	r7,16412
   4490c:	004957c0 	call	4957c <__adddf3>
   44910:	1025883a 	mov	r18,r2
   44914:	d8800617 	ldw	r2,24(sp)
   44918:	057f3034 	movhi	r21,64704
   4491c:	1d6b883a 	add	r21,r3,r21
   44920:	10bfffc4 	addi	r2,r2,-1
   44924:	d8801315 	stw	r2,76(sp)
   44928:	dac00e17 	ldw	r11,56(sp)
   4492c:	003be706 	br	438cc <_dtoa_r+0x4bc>
   44930:	01000e44 	movi	r4,57
   44934:	91000005 	stb	r4,0(r18)
   44938:	95800044 	addi	r22,r18,1
   4493c:	982b883a 	mov	r21,r19
   44940:	003da106 	br	43fc8 <_dtoa_r+0xbb8>
   44944:	d9801117 	ldw	r6,68(sp)
   44948:	d9c01217 	ldw	r7,72(sp)
   4494c:	0009883a 	mov	r4,zero
   44950:	014ff834 	movhi	r5,16352
   44954:	da801515 	stw	r10,84(sp)
   44958:	00495d00 	call	495d0 <__subdf3>
   4495c:	da801517 	ldw	r10,84(sp)
   44960:	1009883a 	mov	r4,r2
   44964:	180b883a 	mov	r5,r3
   44968:	a80d883a 	mov	r6,r21
   4496c:	500f883a 	mov	r7,r10
   44970:	0049b800 	call	49b80 <__gtdf2>
   44974:	00bc750e 	bge	zero,r2,43b4c <_dtoa_r+0x73c>
   44978:	01000c04 	movi	r4,48
   4497c:	00000106 	br	44984 <_dtoa_r+0x1574>
   44980:	102d883a 	mov	r22,r2
   44984:	b0bfffc4 	addi	r2,r22,-1
   44988:	10c00007 	ldb	r3,0(r2)
   4498c:	193ffc26 	beq	r3,r4,44980 <_dtoa_r+0x1570>
   44990:	d8801317 	ldw	r2,76(sp)
   44994:	d8800615 	stw	r2,24(sp)
   44998:	003c3e06 	br	43a94 <_dtoa_r+0x684>
   4499c:	d9001317 	ldw	r4,76(sp)
   449a0:	df001117 	ldw	fp,68(sp)
   449a4:	d9000615 	stw	r4,24(sp)
   449a8:	003ce006 	br	43d2c <_dtoa_r+0x91c>
   449ac:	df001117 	ldw	fp,68(sp)
   449b0:	dc401217 	ldw	r17,72(sp)
   449b4:	003c6506 	br	43b4c <_dtoa_r+0x73c>
   449b8:	103e7a1e 	bne	r2,zero,443a4 <_dtoa_r+0xf94>
   449bc:	1880004c 	andi	r2,r3,1
   449c0:	103e7826 	beq	r2,zero,443a4 <_dtoa_r+0xf94>
   449c4:	003e7406 	br	44398 <_dtoa_r+0xf88>
   449c8:	8009883a 	mov	r4,r16
   449cc:	a80b883a 	mov	r5,r21
   449d0:	01800284 	movi	r6,10
   449d4:	000f883a 	mov	r7,zero
   449d8:	00468f80 	call	468f8 <__multadd>
   449dc:	d9000e17 	ldw	r4,56(sp)
   449e0:	102b883a 	mov	r21,r2
   449e4:	d9000915 	stw	r4,36(sp)
   449e8:	003d5106 	br	43f30 <_dtoa_r+0xb20>
   449ec:	04800084 	movi	r18,2
   449f0:	003b9a06 	br	4385c <_dtoa_r+0x44c>
   449f4:	d8c01317 	ldw	r3,76(sp)
   449f8:	d8c00615 	stw	r3,24(sp)
   449fc:	003ccb06 	br	43d2c <_dtoa_r+0x91c>
   44a00:	d8c01317 	ldw	r3,76(sp)
   44a04:	d8c00615 	stw	r3,24(sp)
   44a08:	003c2206 	br	43a94 <_dtoa_r+0x684>
   44a0c:	20fd3826 	beq	r4,r3,43ef0 <_dtoa_r+0xae0>
   44a10:	00c00f04 	movi	r3,60
   44a14:	1885c83a 	sub	r2,r3,r2
   44a18:	003da906 	br	440c0 <_dtoa_r+0xcb0>
   44a1c:	000b883a 	mov	r5,zero
   44a20:	003b5406 	br	43774 <_dtoa_r+0x364>
   44a24:	04c00044 	movi	r19,1
   44a28:	003b3b06 	br	43718 <_dtoa_r+0x308>

00044a2c <_fflush_r>:
   44a2c:	defffb04 	addi	sp,sp,-20
   44a30:	dcc00315 	stw	r19,12(sp)
   44a34:	dc400115 	stw	r17,4(sp)
   44a38:	dfc00415 	stw	ra,16(sp)
   44a3c:	dc800215 	stw	r18,8(sp)
   44a40:	dc000015 	stw	r16,0(sp)
   44a44:	2027883a 	mov	r19,r4
   44a48:	2823883a 	mov	r17,r5
   44a4c:	20000226 	beq	r4,zero,44a58 <_fflush_r+0x2c>
   44a50:	20800e17 	ldw	r2,56(r4)
   44a54:	10005726 	beq	r2,zero,44bb4 <_fflush_r+0x188>
   44a58:	8880030b 	ldhu	r2,12(r17)
   44a5c:	10c0020c 	andi	r3,r2,8
   44a60:	18ffffcc 	andi	r3,r3,65535
   44a64:	18e0001c 	xori	r3,r3,32768
   44a68:	18e00004 	addi	r3,r3,-32768
   44a6c:	1800311e 	bne	r3,zero,44b34 <_fflush_r+0x108>
   44a70:	89000117 	ldw	r4,4(r17)
   44a74:	10c20014 	ori	r3,r2,2048
   44a78:	88c0030d 	sth	r3,12(r17)
   44a7c:	180b883a 	mov	r5,r3
   44a80:	0100520e 	bge	zero,r4,44bcc <_fflush_r+0x1a0>
   44a84:	88c00a17 	ldw	r3,40(r17)
   44a88:	18002226 	beq	r3,zero,44b14 <_fflush_r+0xe8>
   44a8c:	1084000c 	andi	r2,r2,4096
   44a90:	10bfffcc 	andi	r2,r2,65535
   44a94:	10a0001c 	xori	r2,r2,32768
   44a98:	10a00004 	addi	r2,r2,-32768
   44a9c:	10004e26 	beq	r2,zero,44bd8 <_fflush_r+0x1ac>
   44aa0:	8c001417 	ldw	r16,80(r17)
   44aa4:	2940010c 	andi	r5,r5,4
   44aa8:	297fffcc 	andi	r5,r5,65535
   44aac:	2960001c 	xori	r5,r5,32768
   44ab0:	29600004 	addi	r5,r5,-32768
   44ab4:	28000626 	beq	r5,zero,44ad0 <_fflush_r+0xa4>
   44ab8:	89000117 	ldw	r4,4(r17)
   44abc:	88800c17 	ldw	r2,48(r17)
   44ac0:	8121c83a 	sub	r16,r16,r4
   44ac4:	10000226 	beq	r2,zero,44ad0 <_fflush_r+0xa4>
   44ac8:	88800f17 	ldw	r2,60(r17)
   44acc:	80a1c83a 	sub	r16,r16,r2
   44ad0:	89400717 	ldw	r5,28(r17)
   44ad4:	9809883a 	mov	r4,r19
   44ad8:	800d883a 	mov	r6,r16
   44adc:	000f883a 	mov	r7,zero
   44ae0:	183ee83a 	callr	r3
   44ae4:	8080281e 	bne	r16,r2,44b88 <_fflush_r+0x15c>
   44ae8:	8880030b 	ldhu	r2,12(r17)
   44aec:	88c00417 	ldw	r3,16(r17)
   44af0:	88000115 	stw	zero,4(r17)
   44af4:	113dffcc 	andi	r4,r2,63487
   44af8:	1084000c 	andi	r2,r2,4096
   44afc:	10bfffcc 	andi	r2,r2,65535
   44b00:	10a0001c 	xori	r2,r2,32768
   44b04:	8900030d 	sth	r4,12(r17)
   44b08:	88c00015 	stw	r3,0(r17)
   44b0c:	10a00004 	addi	r2,r2,-32768
   44b10:	10002c1e 	bne	r2,zero,44bc4 <_fflush_r+0x198>
   44b14:	0005883a 	mov	r2,zero
   44b18:	dfc00417 	ldw	ra,16(sp)
   44b1c:	dcc00317 	ldw	r19,12(sp)
   44b20:	dc800217 	ldw	r18,8(sp)
   44b24:	dc400117 	ldw	r17,4(sp)
   44b28:	dc000017 	ldw	r16,0(sp)
   44b2c:	dec00504 	addi	sp,sp,20
   44b30:	f800283a 	ret
   44b34:	8c800417 	ldw	r18,16(r17)
   44b38:	903ff626 	beq	r18,zero,44b14 <_fflush_r+0xe8>
   44b3c:	8c000017 	ldw	r16,0(r17)
   44b40:	108000cc 	andi	r2,r2,3
   44b44:	8c800015 	stw	r18,0(r17)
   44b48:	84a1c83a 	sub	r16,r16,r18
   44b4c:	10001b1e 	bne	r2,zero,44bbc <_fflush_r+0x190>
   44b50:	88800517 	ldw	r2,20(r17)
   44b54:	88800215 	stw	r2,8(r17)
   44b58:	04000316 	blt	zero,r16,44b68 <_fflush_r+0x13c>
   44b5c:	003fed06 	br	44b14 <_fflush_r+0xe8>
   44b60:	90a5883a 	add	r18,r18,r2
   44b64:	043feb0e 	bge	zero,r16,44b14 <_fflush_r+0xe8>
   44b68:	88800917 	ldw	r2,36(r17)
   44b6c:	89400717 	ldw	r5,28(r17)
   44b70:	800f883a 	mov	r7,r16
   44b74:	900d883a 	mov	r6,r18
   44b78:	9809883a 	mov	r4,r19
   44b7c:	103ee83a 	callr	r2
   44b80:	80a1c83a 	sub	r16,r16,r2
   44b84:	00bff616 	blt	zero,r2,44b60 <_fflush_r+0x134>
   44b88:	88c0030b 	ldhu	r3,12(r17)
   44b8c:	00bfffc4 	movi	r2,-1
   44b90:	18c01014 	ori	r3,r3,64
   44b94:	88c0030d 	sth	r3,12(r17)
   44b98:	dfc00417 	ldw	ra,16(sp)
   44b9c:	dcc00317 	ldw	r19,12(sp)
   44ba0:	dc800217 	ldw	r18,8(sp)
   44ba4:	dc400117 	ldw	r17,4(sp)
   44ba8:	dc000017 	ldw	r16,0(sp)
   44bac:	dec00504 	addi	sp,sp,20
   44bb0:	f800283a 	ret
   44bb4:	0044ce80 	call	44ce8 <__sinit>
   44bb8:	003fa706 	br	44a58 <_fflush_r+0x2c>
   44bbc:	0005883a 	mov	r2,zero
   44bc0:	003fe406 	br	44b54 <_fflush_r+0x128>
   44bc4:	8c001415 	stw	r16,80(r17)
   44bc8:	003fd206 	br	44b14 <_fflush_r+0xe8>
   44bcc:	88c00f17 	ldw	r3,60(r17)
   44bd0:	00ffac16 	blt	zero,r3,44a84 <_fflush_r+0x58>
   44bd4:	003fcf06 	br	44b14 <_fflush_r+0xe8>
   44bd8:	89400717 	ldw	r5,28(r17)
   44bdc:	9809883a 	mov	r4,r19
   44be0:	000d883a 	mov	r6,zero
   44be4:	01c00044 	movi	r7,1
   44be8:	183ee83a 	callr	r3
   44bec:	1021883a 	mov	r16,r2
   44bf0:	00bfffc4 	movi	r2,-1
   44bf4:	80800326 	beq	r16,r2,44c04 <_fflush_r+0x1d8>
   44bf8:	8940030b 	ldhu	r5,12(r17)
   44bfc:	88c00a17 	ldw	r3,40(r17)
   44c00:	003fa806 	br	44aa4 <_fflush_r+0x78>
   44c04:	98c00017 	ldw	r3,0(r19)
   44c08:	00800744 	movi	r2,29
   44c0c:	18bfde1e 	bne	r3,r2,44b88 <_fflush_r+0x15c>
   44c10:	003fc006 	br	44b14 <_fflush_r+0xe8>

00044c14 <fflush>:
   44c14:	200b883a 	mov	r5,r4
   44c18:	20000426 	beq	r4,zero,44c2c <fflush+0x18>
   44c1c:	00800174 	movhi	r2,5
   44c20:	10bc4204 	addi	r2,r2,-3832
   44c24:	11000017 	ldw	r4,0(r2)
   44c28:	0044a2c1 	jmpi	44a2c <_fflush_r>
   44c2c:	00800174 	movhi	r2,5
   44c30:	10bc4104 	addi	r2,r2,-3836
   44c34:	11000017 	ldw	r4,0(r2)
   44c38:	01400134 	movhi	r5,4
   44c3c:	29528b04 	addi	r5,r5,18988
   44c40:	00458c81 	jmpi	458c8 <_fwalk_reent>

00044c44 <__fp_lock>:
   44c44:	0005883a 	mov	r2,zero
   44c48:	f800283a 	ret

00044c4c <__fp_unlock>:
   44c4c:	0005883a 	mov	r2,zero
   44c50:	f800283a 	ret

00044c54 <_cleanup_r>:
   44c54:	01400174 	movhi	r5,5
   44c58:	2960fe04 	addi	r5,r5,-31752
   44c5c:	00458201 	jmpi	45820 <_fwalk>

00044c60 <__sfmoreglue>:
   44c60:	defffc04 	addi	sp,sp,-16
   44c64:	dc800215 	stw	r18,8(sp)
   44c68:	2825883a 	mov	r18,r5
   44c6c:	dc000015 	stw	r16,0(sp)
   44c70:	01401704 	movi	r5,92
   44c74:	2021883a 	mov	r16,r4
   44c78:	9009883a 	mov	r4,r18
   44c7c:	dfc00315 	stw	ra,12(sp)
   44c80:	dc400115 	stw	r17,4(sp)
   44c84:	0040e000 	call	40e00 <__mulsi3>
   44c88:	8009883a 	mov	r4,r16
   44c8c:	11400304 	addi	r5,r2,12
   44c90:	1023883a 	mov	r17,r2
   44c94:	0045c040 	call	45c04 <_malloc_r>
   44c98:	1021883a 	mov	r16,r2
   44c9c:	10000726 	beq	r2,zero,44cbc <__sfmoreglue+0x5c>
   44ca0:	11000304 	addi	r4,r2,12
   44ca4:	10000015 	stw	zero,0(r2)
   44ca8:	14800115 	stw	r18,4(r2)
   44cac:	11000215 	stw	r4,8(r2)
   44cb0:	000b883a 	mov	r5,zero
   44cb4:	880d883a 	mov	r6,r17
   44cb8:	004674c0 	call	4674c <memset>
   44cbc:	8005883a 	mov	r2,r16
   44cc0:	dfc00317 	ldw	ra,12(sp)
   44cc4:	dc800217 	ldw	r18,8(sp)
   44cc8:	dc400117 	ldw	r17,4(sp)
   44ccc:	dc000017 	ldw	r16,0(sp)
   44cd0:	dec00404 	addi	sp,sp,16
   44cd4:	f800283a 	ret

00044cd8 <_cleanup>:
   44cd8:	00800174 	movhi	r2,5
   44cdc:	10bc4104 	addi	r2,r2,-3836
   44ce0:	11000017 	ldw	r4,0(r2)
   44ce4:	0044c541 	jmpi	44c54 <_cleanup_r>

00044ce8 <__sinit>:
   44ce8:	20800e17 	ldw	r2,56(r4)
   44cec:	1000401e 	bne	r2,zero,44df0 <__sinit+0x108>
   44cf0:	21400117 	ldw	r5,4(r4)
   44cf4:	01800134 	movhi	r6,4
   44cf8:	31931504 	addi	r6,r6,19540
   44cfc:	20c00217 	ldw	r3,8(r4)
   44d00:	21800f15 	stw	r6,60(r4)
   44d04:	2080bb04 	addi	r2,r4,748
   44d08:	02400044 	movi	r9,1
   44d0c:	018000c4 	movi	r6,3
   44d10:	2180b915 	stw	r6,740(r4)
   44d14:	2080ba15 	stw	r2,744(r4)
   44d18:	22400e15 	stw	r9,56(r4)
   44d1c:	20800317 	ldw	r2,12(r4)
   44d20:	2000b815 	stw	zero,736(r4)
   44d24:	02000134 	movhi	r8,4
   44d28:	421fcf04 	addi	r8,r8,32572
   44d2c:	01c00134 	movhi	r7,4
   44d30:	39dfe404 	addi	r7,r7,32656
   44d34:	01800174 	movhi	r6,5
   44d38:	31a00604 	addi	r6,r6,-32744
   44d3c:	01000174 	movhi	r4,5
   44d40:	21201d04 	addi	r4,r4,-32652
   44d44:	02800104 	movi	r10,4
   44d48:	28000015 	stw	zero,0(r5)
   44d4c:	28000115 	stw	zero,4(r5)
   44d50:	28000215 	stw	zero,8(r5)
   44d54:	2a80030d 	sth	r10,12(r5)
   44d58:	2800038d 	sth	zero,14(r5)
   44d5c:	28000415 	stw	zero,16(r5)
   44d60:	28000515 	stw	zero,20(r5)
   44d64:	28000615 	stw	zero,24(r5)
   44d68:	29400715 	stw	r5,28(r5)
   44d6c:	2a000815 	stw	r8,32(r5)
   44d70:	29c00915 	stw	r7,36(r5)
   44d74:	29800a15 	stw	r6,40(r5)
   44d78:	29000b15 	stw	r4,44(r5)
   44d7c:	01400284 	movi	r5,10
   44d80:	18000015 	stw	zero,0(r3)
   44d84:	18000115 	stw	zero,4(r3)
   44d88:	18000215 	stw	zero,8(r3)
   44d8c:	1940030d 	sth	r5,12(r3)
   44d90:	1a40038d 	sth	r9,14(r3)
   44d94:	18000415 	stw	zero,16(r3)
   44d98:	18000515 	stw	zero,20(r3)
   44d9c:	18000615 	stw	zero,24(r3)
   44da0:	18c00715 	stw	r3,28(r3)
   44da4:	1a000815 	stw	r8,32(r3)
   44da8:	19c00915 	stw	r7,36(r3)
   44dac:	19800a15 	stw	r6,40(r3)
   44db0:	19000b15 	stw	r4,44(r3)
   44db4:	00c00484 	movi	r3,18
   44db8:	10c0030d 	sth	r3,12(r2)
   44dbc:	00c00084 	movi	r3,2
   44dc0:	10000015 	stw	zero,0(r2)
   44dc4:	10000115 	stw	zero,4(r2)
   44dc8:	10000215 	stw	zero,8(r2)
   44dcc:	10c0038d 	sth	r3,14(r2)
   44dd0:	10000415 	stw	zero,16(r2)
   44dd4:	10000515 	stw	zero,20(r2)
   44dd8:	10000615 	stw	zero,24(r2)
   44ddc:	10800715 	stw	r2,28(r2)
   44de0:	12000815 	stw	r8,32(r2)
   44de4:	11c00915 	stw	r7,36(r2)
   44de8:	11800a15 	stw	r6,40(r2)
   44dec:	11000b15 	stw	r4,44(r2)
   44df0:	f800283a 	ret

00044df4 <__sfp>:
   44df4:	defffc04 	addi	sp,sp,-16
   44df8:	00800174 	movhi	r2,5
   44dfc:	10bc4104 	addi	r2,r2,-3836
   44e00:	dc400115 	stw	r17,4(sp)
   44e04:	14400017 	ldw	r17,0(r2)
   44e08:	dc800215 	stw	r18,8(sp)
   44e0c:	dfc00315 	stw	ra,12(sp)
   44e10:	88800e17 	ldw	r2,56(r17)
   44e14:	dc000015 	stw	r16,0(sp)
   44e18:	2025883a 	mov	r18,r4
   44e1c:	10002826 	beq	r2,zero,44ec0 <__sfp+0xcc>
   44e20:	8c40b804 	addi	r17,r17,736
   44e24:	043fffc4 	movi	r16,-1
   44e28:	89400117 	ldw	r5,4(r17)
   44e2c:	88800217 	ldw	r2,8(r17)
   44e30:	297fffc4 	addi	r5,r5,-1
   44e34:	28000a16 	blt	r5,zero,44e60 <__sfp+0x6c>
   44e38:	10c0030f 	ldh	r3,12(r2)
   44e3c:	18000c26 	beq	r3,zero,44e70 <__sfp+0x7c>
   44e40:	10c01a04 	addi	r3,r2,104
   44e44:	00000206 	br	44e50 <__sfp+0x5c>
   44e48:	19bfe90f 	ldh	r6,-92(r3)
   44e4c:	30000826 	beq	r6,zero,44e70 <__sfp+0x7c>
   44e50:	297fffc4 	addi	r5,r5,-1
   44e54:	18bffd04 	addi	r2,r3,-12
   44e58:	18c01704 	addi	r3,r3,92
   44e5c:	2c3ffa1e 	bne	r5,r16,44e48 <__sfp+0x54>
   44e60:	88800017 	ldw	r2,0(r17)
   44e64:	10001926 	beq	r2,zero,44ecc <__sfp+0xd8>
   44e68:	1023883a 	mov	r17,r2
   44e6c:	003fee06 	br	44e28 <__sfp+0x34>
   44e70:	00ffffc4 	movi	r3,-1
   44e74:	10c0038d 	sth	r3,14(r2)
   44e78:	00c00044 	movi	r3,1
   44e7c:	10c0030d 	sth	r3,12(r2)
   44e80:	10000015 	stw	zero,0(r2)
   44e84:	10000215 	stw	zero,8(r2)
   44e88:	10000115 	stw	zero,4(r2)
   44e8c:	10000415 	stw	zero,16(r2)
   44e90:	10000515 	stw	zero,20(r2)
   44e94:	10000615 	stw	zero,24(r2)
   44e98:	10000c15 	stw	zero,48(r2)
   44e9c:	10000d15 	stw	zero,52(r2)
   44ea0:	10001115 	stw	zero,68(r2)
   44ea4:	10001215 	stw	zero,72(r2)
   44ea8:	dfc00317 	ldw	ra,12(sp)
   44eac:	dc800217 	ldw	r18,8(sp)
   44eb0:	dc400117 	ldw	r17,4(sp)
   44eb4:	dc000017 	ldw	r16,0(sp)
   44eb8:	dec00404 	addi	sp,sp,16
   44ebc:	f800283a 	ret
   44ec0:	8809883a 	mov	r4,r17
   44ec4:	0044ce80 	call	44ce8 <__sinit>
   44ec8:	003fd506 	br	44e20 <__sfp+0x2c>
   44ecc:	9009883a 	mov	r4,r18
   44ed0:	01400104 	movi	r5,4
   44ed4:	0044c600 	call	44c60 <__sfmoreglue>
   44ed8:	88800015 	stw	r2,0(r17)
   44edc:	103fe21e 	bne	r2,zero,44e68 <__sfp+0x74>
   44ee0:	00800304 	movi	r2,12
   44ee4:	90800015 	stw	r2,0(r18)
   44ee8:	0005883a 	mov	r2,zero
   44eec:	003fee06 	br	44ea8 <__sfp+0xb4>

00044ef0 <__sfp_lock_acquire>:
   44ef0:	f800283a 	ret

00044ef4 <__sfp_lock_release>:
   44ef4:	f800283a 	ret

00044ef8 <__sinit_lock_acquire>:
   44ef8:	f800283a 	ret

00044efc <__sinit_lock_release>:
   44efc:	f800283a 	ret

00044f00 <__fp_lock_all>:
   44f00:	00800174 	movhi	r2,5
   44f04:	10bc4204 	addi	r2,r2,-3832
   44f08:	11000017 	ldw	r4,0(r2)
   44f0c:	01400134 	movhi	r5,4
   44f10:	29531104 	addi	r5,r5,19524
   44f14:	00458201 	jmpi	45820 <_fwalk>

00044f18 <__fp_unlock_all>:
   44f18:	00800174 	movhi	r2,5
   44f1c:	10bc4204 	addi	r2,r2,-3832
   44f20:	11000017 	ldw	r4,0(r2)
   44f24:	01400134 	movhi	r5,4
   44f28:	29531304 	addi	r5,r5,19532
   44f2c:	00458201 	jmpi	45820 <_fwalk>

00044f30 <_malloc_trim_r>:
   44f30:	defffb04 	addi	sp,sp,-20
   44f34:	dcc00315 	stw	r19,12(sp)
   44f38:	dc800215 	stw	r18,8(sp)
   44f3c:	dc400115 	stw	r17,4(sp)
   44f40:	dc000015 	stw	r16,0(sp)
   44f44:	2827883a 	mov	r19,r5
   44f48:	dfc00415 	stw	ra,16(sp)
   44f4c:	04400174 	movhi	r17,5
   44f50:	8c76bd04 	addi	r17,r17,-9484
   44f54:	2021883a 	mov	r16,r4
   44f58:	004aba40 	call	4aba4 <__malloc_lock>
   44f5c:	88800217 	ldw	r2,8(r17)
   44f60:	14800117 	ldw	r18,4(r2)
   44f64:	00bfff04 	movi	r2,-4
   44f68:	90a4703a 	and	r18,r18,r2
   44f6c:	9083fbc4 	addi	r2,r18,4079
   44f70:	14e7c83a 	sub	r19,r2,r19
   44f74:	9826d33a 	srli	r19,r19,12
   44f78:	0083ffc4 	movi	r2,4095
   44f7c:	9cffffc4 	addi	r19,r19,-1
   44f80:	9826933a 	slli	r19,r19,12
   44f84:	14c0060e 	bge	r2,r19,44fa0 <_malloc_trim_r+0x70>
   44f88:	8009883a 	mov	r4,r16
   44f8c:	000b883a 	mov	r5,zero
   44f90:	0047ed80 	call	47ed8 <_sbrk_r>
   44f94:	88c00217 	ldw	r3,8(r17)
   44f98:	1c87883a 	add	r3,r3,r18
   44f9c:	10c00a26 	beq	r2,r3,44fc8 <_malloc_trim_r+0x98>
   44fa0:	8009883a 	mov	r4,r16
   44fa4:	004abc40 	call	4abc4 <__malloc_unlock>
   44fa8:	0005883a 	mov	r2,zero
   44fac:	dfc00417 	ldw	ra,16(sp)
   44fb0:	dcc00317 	ldw	r19,12(sp)
   44fb4:	dc800217 	ldw	r18,8(sp)
   44fb8:	dc400117 	ldw	r17,4(sp)
   44fbc:	dc000017 	ldw	r16,0(sp)
   44fc0:	dec00504 	addi	sp,sp,20
   44fc4:	f800283a 	ret
   44fc8:	8009883a 	mov	r4,r16
   44fcc:	04cbc83a 	sub	r5,zero,r19
   44fd0:	0047ed80 	call	47ed8 <_sbrk_r>
   44fd4:	00ffffc4 	movi	r3,-1
   44fd8:	10c01326 	beq	r2,r3,45028 <_malloc_trim_r+0xf8>
   44fdc:	00800174 	movhi	r2,5
   44fe0:	1082f504 	addi	r2,r2,3028
   44fe4:	11000017 	ldw	r4,0(r2)
   44fe8:	88c00217 	ldw	r3,8(r17)
   44fec:	94e5c83a 	sub	r18,r18,r19
   44ff0:	94800054 	ori	r18,r18,1
   44ff4:	24e7c83a 	sub	r19,r4,r19
   44ff8:	1c800115 	stw	r18,4(r3)
   44ffc:	8009883a 	mov	r4,r16
   45000:	14c00015 	stw	r19,0(r2)
   45004:	004abc40 	call	4abc4 <__malloc_unlock>
   45008:	00800044 	movi	r2,1
   4500c:	dfc00417 	ldw	ra,16(sp)
   45010:	dcc00317 	ldw	r19,12(sp)
   45014:	dc800217 	ldw	r18,8(sp)
   45018:	dc400117 	ldw	r17,4(sp)
   4501c:	dc000017 	ldw	r16,0(sp)
   45020:	dec00504 	addi	sp,sp,20
   45024:	f800283a 	ret
   45028:	8009883a 	mov	r4,r16
   4502c:	000b883a 	mov	r5,zero
   45030:	0047ed80 	call	47ed8 <_sbrk_r>
   45034:	88c00217 	ldw	r3,8(r17)
   45038:	014003c4 	movi	r5,15
   4503c:	10c9c83a 	sub	r4,r2,r3
   45040:	293fd70e 	bge	r5,r4,44fa0 <_malloc_trim_r+0x70>
   45044:	01400174 	movhi	r5,5
   45048:	297c4404 	addi	r5,r5,-3824
   4504c:	29400017 	ldw	r5,0(r5)
   45050:	21000054 	ori	r4,r4,1
   45054:	19000115 	stw	r4,4(r3)
   45058:	1145c83a 	sub	r2,r2,r5
   4505c:	01400174 	movhi	r5,5
   45060:	2942f504 	addi	r5,r5,3028
   45064:	28800015 	stw	r2,0(r5)
   45068:	003fcd06 	br	44fa0 <_malloc_trim_r+0x70>

0004506c <_free_r>:
   4506c:	defffd04 	addi	sp,sp,-12
   45070:	dc400115 	stw	r17,4(sp)
   45074:	dc000015 	stw	r16,0(sp)
   45078:	dfc00215 	stw	ra,8(sp)
   4507c:	2821883a 	mov	r16,r5
   45080:	2023883a 	mov	r17,r4
   45084:	28004b26 	beq	r5,zero,451b4 <_free_r+0x148>
   45088:	004aba40 	call	4aba4 <__malloc_lock>
   4508c:	823fff17 	ldw	r8,-4(r16)
   45090:	00bfff84 	movi	r2,-2
   45094:	81bffe04 	addi	r6,r16,-8
   45098:	4084703a 	and	r2,r8,r2
   4509c:	3087883a 	add	r3,r6,r2
   450a0:	01400174 	movhi	r5,5
   450a4:	2976bd04 	addi	r5,r5,-9484
   450a8:	1a400117 	ldw	r9,4(r3)
   450ac:	29000217 	ldw	r4,8(r5)
   450b0:	01ffff04 	movi	r7,-4
   450b4:	49ce703a 	and	r7,r9,r7
   450b8:	20c06526 	beq	r4,r3,45250 <_free_r+0x1e4>
   450bc:	19c00115 	stw	r7,4(r3)
   450c0:	4200004c 	andi	r8,r8,1
   450c4:	40003026 	beq	r8,zero,45188 <_free_r+0x11c>
   450c8:	0009883a 	mov	r4,zero
   450cc:	19d1883a 	add	r8,r3,r7
   450d0:	42000117 	ldw	r8,4(r8)
   450d4:	4200004c 	andi	r8,r8,1
   450d8:	4000061e 	bne	r8,zero,450f4 <_free_r+0x88>
   450dc:	11c5883a 	add	r2,r2,r7
   450e0:	19c00217 	ldw	r7,8(r3)
   450e4:	20004e26 	beq	r4,zero,45220 <_free_r+0x1b4>
   450e8:	18c00317 	ldw	r3,12(r3)
   450ec:	38c00315 	stw	r3,12(r7)
   450f0:	19c00215 	stw	r7,8(r3)
   450f4:	11c00054 	ori	r7,r2,1
   450f8:	3087883a 	add	r3,r6,r2
   450fc:	31c00115 	stw	r7,4(r6)
   45100:	18800015 	stw	r2,0(r3)
   45104:	20001a1e 	bne	r4,zero,45170 <_free_r+0x104>
   45108:	00c07fc4 	movi	r3,511
   4510c:	18802e2e 	bgeu	r3,r2,451c8 <_free_r+0x15c>
   45110:	1006d27a 	srli	r3,r2,9
   45114:	01000104 	movi	r4,4
   45118:	20c06636 	bltu	r4,r3,452b4 <_free_r+0x248>
   4511c:	1008d1ba 	srli	r4,r2,6
   45120:	21000e04 	addi	r4,r4,56
   45124:	210f883a 	add	r7,r4,r4
   45128:	39cf883a 	add	r7,r7,r7
   4512c:	39cf883a 	add	r7,r7,r7
   45130:	29cf883a 	add	r7,r5,r7
   45134:	38c00217 	ldw	r3,8(r7)
   45138:	01400174 	movhi	r5,5
   4513c:	2976bd04 	addi	r5,r5,-9484
   45140:	19c06126 	beq	r3,r7,452c8 <_free_r+0x25c>
   45144:	013fff04 	movi	r4,-4
   45148:	19400117 	ldw	r5,4(r3)
   4514c:	290a703a 	and	r5,r5,r4
   45150:	1140022e 	bgeu	r2,r5,4515c <_free_r+0xf0>
   45154:	18c00217 	ldw	r3,8(r3)
   45158:	38fffb1e 	bne	r7,r3,45148 <_free_r+0xdc>
   4515c:	18800317 	ldw	r2,12(r3)
   45160:	30800315 	stw	r2,12(r6)
   45164:	30c00215 	stw	r3,8(r6)
   45168:	11800215 	stw	r6,8(r2)
   4516c:	19800315 	stw	r6,12(r3)
   45170:	8809883a 	mov	r4,r17
   45174:	dfc00217 	ldw	ra,8(sp)
   45178:	dc400117 	ldw	r17,4(sp)
   4517c:	dc000017 	ldw	r16,0(sp)
   45180:	dec00304 	addi	sp,sp,12
   45184:	004abc41 	jmpi	4abc4 <__malloc_unlock>
   45188:	813ffe17 	ldw	r4,-8(r16)
   4518c:	2a400204 	addi	r9,r5,8
   45190:	310dc83a 	sub	r6,r6,r4
   45194:	32000217 	ldw	r8,8(r6)
   45198:	1105883a 	add	r2,r2,r4
   4519c:	42404326 	beq	r8,r9,452ac <_free_r+0x240>
   451a0:	32400317 	ldw	r9,12(r6)
   451a4:	0009883a 	mov	r4,zero
   451a8:	42400315 	stw	r9,12(r8)
   451ac:	4a000215 	stw	r8,8(r9)
   451b0:	003fc606 	br	450cc <_free_r+0x60>
   451b4:	dfc00217 	ldw	ra,8(sp)
   451b8:	dc400117 	ldw	r17,4(sp)
   451bc:	dc000017 	ldw	r16,0(sp)
   451c0:	dec00304 	addi	sp,sp,12
   451c4:	f800283a 	ret
   451c8:	1004d0fa 	srli	r2,r2,3
   451cc:	02000044 	movi	r8,1
   451d0:	29c00117 	ldw	r7,4(r5)
   451d4:	1087883a 	add	r3,r2,r2
   451d8:	18c7883a 	add	r3,r3,r3
   451dc:	1005d0ba 	srai	r2,r2,2
   451e0:	18c7883a 	add	r3,r3,r3
   451e4:	28c7883a 	add	r3,r5,r3
   451e8:	19000217 	ldw	r4,8(r3)
   451ec:	4084983a 	sll	r2,r8,r2
   451f0:	30c00315 	stw	r3,12(r6)
   451f4:	31000215 	stw	r4,8(r6)
   451f8:	11c4b03a 	or	r2,r2,r7
   451fc:	21800315 	stw	r6,12(r4)
   45200:	8809883a 	mov	r4,r17
   45204:	28800115 	stw	r2,4(r5)
   45208:	19800215 	stw	r6,8(r3)
   4520c:	dfc00217 	ldw	ra,8(sp)
   45210:	dc400117 	ldw	r17,4(sp)
   45214:	dc000017 	ldw	r16,0(sp)
   45218:	dec00304 	addi	sp,sp,12
   4521c:	004abc41 	jmpi	4abc4 <__malloc_unlock>
   45220:	02000174 	movhi	r8,5
   45224:	4236bf04 	addi	r8,r8,-9476
   45228:	3a3faf1e 	bne	r7,r8,450e8 <_free_r+0x7c>
   4522c:	29800515 	stw	r6,20(r5)
   45230:	29800415 	stw	r6,16(r5)
   45234:	11000054 	ori	r4,r2,1
   45238:	3087883a 	add	r3,r6,r2
   4523c:	31c00315 	stw	r7,12(r6)
   45240:	31c00215 	stw	r7,8(r6)
   45244:	31000115 	stw	r4,4(r6)
   45248:	18800015 	stw	r2,0(r3)
   4524c:	003fc806 	br	45170 <_free_r+0x104>
   45250:	4200004c 	andi	r8,r8,1
   45254:	3885883a 	add	r2,r7,r2
   45258:	4000071e 	bne	r8,zero,45278 <_free_r+0x20c>
   4525c:	81fffe17 	ldw	r7,-8(r16)
   45260:	31cdc83a 	sub	r6,r6,r7
   45264:	30c00317 	ldw	r3,12(r6)
   45268:	31000217 	ldw	r4,8(r6)
   4526c:	11c5883a 	add	r2,r2,r7
   45270:	20c00315 	stw	r3,12(r4)
   45274:	19000215 	stw	r4,8(r3)
   45278:	00c00174 	movhi	r3,5
   4527c:	18fc4504 	addi	r3,r3,-3820
   45280:	18c00017 	ldw	r3,0(r3)
   45284:	11000054 	ori	r4,r2,1
   45288:	31000115 	stw	r4,4(r6)
   4528c:	29800215 	stw	r6,8(r5)
   45290:	10ffb736 	bltu	r2,r3,45170 <_free_r+0x104>
   45294:	00800174 	movhi	r2,5
   45298:	1082eb04 	addi	r2,r2,2988
   4529c:	11400017 	ldw	r5,0(r2)
   452a0:	8809883a 	mov	r4,r17
   452a4:	0044f300 	call	44f30 <_malloc_trim_r>
   452a8:	003fb106 	br	45170 <_free_r+0x104>
   452ac:	01000044 	movi	r4,1
   452b0:	003f8606 	br	450cc <_free_r+0x60>
   452b4:	01000504 	movi	r4,20
   452b8:	20c00b36 	bltu	r4,r3,452e8 <_free_r+0x27c>
   452bc:	190016c4 	addi	r4,r3,91
   452c0:	210f883a 	add	r7,r4,r4
   452c4:	003f9806 	br	45128 <_free_r+0xbc>
   452c8:	2009d0ba 	srai	r4,r4,2
   452cc:	00800044 	movi	r2,1
   452d0:	29c00117 	ldw	r7,4(r5)
   452d4:	1108983a 	sll	r4,r2,r4
   452d8:	1805883a 	mov	r2,r3
   452dc:	21c8b03a 	or	r4,r4,r7
   452e0:	29000115 	stw	r4,4(r5)
   452e4:	003f9e06 	br	45160 <_free_r+0xf4>
   452e8:	01001504 	movi	r4,84
   452ec:	20c00436 	bltu	r4,r3,45300 <_free_r+0x294>
   452f0:	1008d33a 	srli	r4,r2,12
   452f4:	21001b84 	addi	r4,r4,110
   452f8:	210f883a 	add	r7,r4,r4
   452fc:	003f8a06 	br	45128 <_free_r+0xbc>
   45300:	01005504 	movi	r4,340
   45304:	20c00436 	bltu	r4,r3,45318 <_free_r+0x2ac>
   45308:	1008d3fa 	srli	r4,r2,15
   4530c:	21001dc4 	addi	r4,r4,119
   45310:	210f883a 	add	r7,r4,r4
   45314:	003f8406 	br	45128 <_free_r+0xbc>
   45318:	01015504 	movi	r4,1364
   4531c:	20c00436 	bltu	r4,r3,45330 <_free_r+0x2c4>
   45320:	1008d4ba 	srli	r4,r2,18
   45324:	21001f04 	addi	r4,r4,124
   45328:	210f883a 	add	r7,r4,r4
   4532c:	003f7e06 	br	45128 <_free_r+0xbc>
   45330:	01c03f04 	movi	r7,252
   45334:	01001f84 	movi	r4,126
   45338:	003f7b06 	br	45128 <_free_r+0xbc>

0004533c <__sfvwrite_r>:
   4533c:	30800217 	ldw	r2,8(r6)
   45340:	defff504 	addi	sp,sp,-44
   45344:	dd400615 	stw	r21,24(sp)
   45348:	dd000515 	stw	r20,20(sp)
   4534c:	dc000115 	stw	r16,4(sp)
   45350:	dfc00a15 	stw	ra,40(sp)
   45354:	df000915 	stw	fp,36(sp)
   45358:	ddc00815 	stw	r23,32(sp)
   4535c:	dd800715 	stw	r22,28(sp)
   45360:	dcc00415 	stw	r19,16(sp)
   45364:	dc800315 	stw	r18,12(sp)
   45368:	dc400215 	stw	r17,8(sp)
   4536c:	3029883a 	mov	r20,r6
   45370:	202b883a 	mov	r21,r4
   45374:	2821883a 	mov	r16,r5
   45378:	10002126 	beq	r2,zero,45400 <__sfvwrite_r+0xc4>
   4537c:	2880030b 	ldhu	r2,12(r5)
   45380:	10c0020c 	andi	r3,r2,8
   45384:	18ffffcc 	andi	r3,r3,65535
   45388:	18e0001c 	xori	r3,r3,32768
   4538c:	18e00004 	addi	r3,r3,-32768
   45390:	18002826 	beq	r3,zero,45434 <__sfvwrite_r+0xf8>
   45394:	28c00417 	ldw	r3,16(r5)
   45398:	18002626 	beq	r3,zero,45434 <__sfvwrite_r+0xf8>
   4539c:	10c0008c 	andi	r3,r2,2
   453a0:	18ffffcc 	andi	r3,r3,65535
   453a4:	18e0001c 	xori	r3,r3,32768
   453a8:	18e00004 	addi	r3,r3,-32768
   453ac:	a4400017 	ldw	r17,0(r20)
   453b0:	18002b26 	beq	r3,zero,45460 <__sfvwrite_r+0x124>
   453b4:	0027883a 	mov	r19,zero
   453b8:	0025883a 	mov	r18,zero
   453bc:	05810004 	movi	r22,1024
   453c0:	980d883a 	mov	r6,r19
   453c4:	a809883a 	mov	r4,r21
   453c8:	90004f26 	beq	r18,zero,45508 <__sfvwrite_r+0x1cc>
   453cc:	900f883a 	mov	r7,r18
   453d0:	81400717 	ldw	r5,28(r16)
   453d4:	b480012e 	bgeu	r22,r18,453dc <__sfvwrite_r+0xa0>
   453d8:	01c10004 	movi	r7,1024
   453dc:	80800917 	ldw	r2,36(r16)
   453e0:	103ee83a 	callr	r2
   453e4:	0080540e 	bge	zero,r2,45538 <__sfvwrite_r+0x1fc>
   453e8:	a0c00217 	ldw	r3,8(r20)
   453ec:	98a7883a 	add	r19,r19,r2
   453f0:	90a5c83a 	sub	r18,r18,r2
   453f4:	1885c83a 	sub	r2,r3,r2
   453f8:	a0800215 	stw	r2,8(r20)
   453fc:	103ff01e 	bne	r2,zero,453c0 <__sfvwrite_r+0x84>
   45400:	0005883a 	mov	r2,zero
   45404:	dfc00a17 	ldw	ra,40(sp)
   45408:	df000917 	ldw	fp,36(sp)
   4540c:	ddc00817 	ldw	r23,32(sp)
   45410:	dd800717 	ldw	r22,28(sp)
   45414:	dd400617 	ldw	r21,24(sp)
   45418:	dd000517 	ldw	r20,20(sp)
   4541c:	dcc00417 	ldw	r19,16(sp)
   45420:	dc800317 	ldw	r18,12(sp)
   45424:	dc400217 	ldw	r17,8(sp)
   45428:	dc000117 	ldw	r16,4(sp)
   4542c:	dec00b04 	addi	sp,sp,44
   45430:	f800283a 	ret
   45434:	a809883a 	mov	r4,r21
   45438:	800b883a 	mov	r5,r16
   4543c:	0042ec00 	call	42ec0 <__swsetup_r>
   45440:	1000f01e 	bne	r2,zero,45804 <__sfvwrite_r+0x4c8>
   45444:	8080030b 	ldhu	r2,12(r16)
   45448:	a4400017 	ldw	r17,0(r20)
   4544c:	10c0008c 	andi	r3,r2,2
   45450:	18ffffcc 	andi	r3,r3,65535
   45454:	18e0001c 	xori	r3,r3,32768
   45458:	18e00004 	addi	r3,r3,-32768
   4545c:	183fd51e 	bne	r3,zero,453b4 <__sfvwrite_r+0x78>
   45460:	10c0004c 	andi	r3,r2,1
   45464:	002d883a 	mov	r22,zero
   45468:	1800381e 	bne	r3,zero,4554c <__sfvwrite_r+0x210>
   4546c:	0025883a 	mov	r18,zero
   45470:	90002126 	beq	r18,zero,454f8 <__sfvwrite_r+0x1bc>
   45474:	10c0800c 	andi	r3,r2,512
   45478:	18ffffcc 	andi	r3,r3,65535
   4547c:	18e0001c 	xori	r3,r3,32768
   45480:	18e00004 	addi	r3,r3,-32768
   45484:	84c00217 	ldw	r19,8(r16)
   45488:	18006b26 	beq	r3,zero,45638 <__sfvwrite_r+0x2fc>
   4548c:	980f883a 	mov	r7,r19
   45490:	94c08636 	bltu	r18,r19,456ac <__sfvwrite_r+0x370>
   45494:	10c1200c 	andi	r3,r2,1152
   45498:	18009f1e 	bne	r3,zero,45718 <__sfvwrite_r+0x3dc>
   4549c:	81000017 	ldw	r4,0(r16)
   454a0:	982f883a 	mov	r23,r19
   454a4:	9039883a 	mov	fp,r18
   454a8:	9027883a 	mov	r19,r18
   454ac:	380d883a 	mov	r6,r7
   454b0:	b00b883a 	mov	r5,r22
   454b4:	d9c00015 	stw	r7,0(sp)
   454b8:	00465c00 	call	465c0 <memmove>
   454bc:	d9c00017 	ldw	r7,0(sp)
   454c0:	81000217 	ldw	r4,8(r16)
