
custom.elf:     file format elf32-littlenios2
custom.elf
architecture: nios2, flags 0x00000112:
EXEC_P, HAS_SYMS, D_PAGED
start address 0x000401b8

Program Header:
    LOAD off    0x00001000 vaddr 0x00040000 paddr 0x00040000 align 2**12
         filesz 0x00000020 memsz 0x00000020 flags r-x
    LOAD off    0x00001020 vaddr 0x00040020 paddr 0x00040020 align 2**12
         filesz 0x0000d6c8 memsz 0x0000d6c8 flags r-x
    LOAD off    0x0000e6e8 vaddr 0x0004d6e8 paddr 0x0004f140 align 2**12
         filesz 0x00001a58 memsz 0x00001a58 flags rw-
    LOAD off    0x00010b98 vaddr 0x00050b98 paddr 0x00050b98 align 2**12
         filesz 0x00000000 memsz 0x000026f4 flags rw-

Sections:
Idx Name          Size      VMA       LMA       File off  Algn
  0 .entry        00000020  00040000  00040000  00001000  2**5
                  CONTENTS, ALLOC, LOAD, READONLY, CODE
  1 .exceptions   00000198  00040020  00040020  00001020  2**2
                  CONTENTS, ALLOC, LOAD, READONLY, CODE
  2 .text         0000cbd8  000401b8  000401b8  000011b8  2**2
                  CONTENTS, ALLOC, LOAD, READONLY, CODE
  3 .rodata       00000958  0004cd90  0004cd90  0000dd90  2**2
                  CONTENTS, ALLOC, LOAD, READONLY, DATA
  4 .rwdata       00001a58  0004d6e8  0004f140  0000e6e8  2**2
                  CONTENTS, ALLOC, LOAD, DATA, SMALL_DATA
  5 .bss          000026f4  00050b98  00050b98  00010b98  2**2
                  ALLOC, SMALL_DATA
  6 .comment      00000023  00000000  00000000  00010140  2**0
                  CONTENTS, READONLY
  7 .debug_aranges 00000dd8  00000000  00000000  00010168  2**3
                  CONTENTS, READONLY, DEBUGGING
  8 .debug_info   00022e65  00000000  00000000  00010f40  2**0
                  CONTENTS, READONLY, DEBUGGING
  9 .debug_abbrev 00009186  00000000  00000000  00033da5  2**0
                  CONTENTS, READONLY, DEBUGGING
 10 .debug_line   0000a419  00000000  00000000  0003cf2b  2**0
                  CONTENTS, READONLY, DEBUGGING
 11 .debug_frame  0000191c  00000000  00000000  00047344  2**2
                  CONTENTS, READONLY, DEBUGGING
 12 .debug_str    00002f73  00000000  00000000  00048c60  2**0
                  CONTENTS, READONLY, DEBUGGING
 13 .debug_loc    00010dc7  00000000  00000000  0004bbd3  2**0
                  CONTENTS, READONLY, DEBUGGING
 14 .debug_alt_sim_info 00000020  00000000  00000000  0005c99c  2**2
                  CONTENTS, READONLY, DEBUGGING
 15 .debug_ranges 00000a98  00000000  00000000  0005c9c0  2**3
                  CONTENTS, READONLY, DEBUGGING
 16 .thread_model 00000003  00000000  00000000  00060563  2**0
                  CONTENTS, READONLY
 17 .cpu          00000003  00000000  00000000  00060566  2**0
                  CONTENTS, READONLY
 18 .qsys         00000001  00000000  00000000  00060569  2**0
                  CONTENTS, READONLY
 19 .simulation_enabled 00000001  00000000  00000000  0006056a  2**0
                  CONTENTS, READONLY
 20 .sysid_hash   00000004  00000000  00000000  0006056b  2**0
                  CONTENTS, READONLY
 21 .sysid_base   00000004  00000000  00000000  0006056f  2**0
                  CONTENTS, READONLY
 22 .sysid_time   00000004  00000000  00000000  00060573  2**0
                  CONTENTS, READONLY
 23 .stderr_dev   00000009  00000000  00000000  00060577  2**0
                  CONTENTS, READONLY
 24 .stdin_dev    00000009  00000000  00000000  00060580  2**0
                  CONTENTS, READONLY
 25 .stdout_dev   00000009  00000000  00000000  00060589  2**0
                  CONTENTS, READONLY
 26 .sopc_system_name 00000007  00000000  00000000  00060592  2**0
                  CONTENTS, READONLY
 27 .quartus_project_dir 0000004a  00000000  00000000  00060599  2**0
                  CONTENTS, READONLY
 28 .jdi          000045b9  00000000  00000000  000605e3  2**0
                  CONTENTS, READONLY
 29 .sopcinfo     0003a579  00000000  00000000  00064b9c  2**0
                  CONTENTS, READONLY
SYMBOL TABLE:
00040000 l    d  .entry	00000000 .entry
00040020 l    d  .exceptions	00000000 .exceptions
000401b8 l    d  .text	00000000 .text
0004cd90 l    d  .rodata	00000000 .rodata
0004d6e8 l    d  .rwdata	00000000 .rwdata
00050b98 l    d  .bss	00000000 .bss
00000000 l    d  .comment	00000000 .comment
00000000 l    d  .debug_aranges	00000000 .debug_aranges
00000000 l    d  .debug_info	00000000 .debug_info
00000000 l    d  .debug_abbrev	00000000 .debug_abbrev
00000000 l    d  .debug_line	00000000 .debug_line
00000000 l    d  .debug_frame	00000000 .debug_frame
00000000 l    d  .debug_str	00000000 .debug_str
00000000 l    d  .debug_loc	00000000 .debug_loc
00000000 l    d  .debug_alt_sim_info	00000000 .debug_alt_sim_info
00000000 l    d  .debug_ranges	00000000 .debug_ranges
00000000 l    df *ABS*	00000000 ../custom_bsp//obj/HAL/src/crt0.o
000401f0 l       .text	00000000 alt_after_alt_main
00000000 l    df *ABS*	00000000 alt_exception_entry.o
00040094 l       .exceptions	00000000 alt_exception_unknown
00000000 l    df *ABS*	00000000 alt_irq_handler.c
00000000 l    df *ABS*	00000000 ci_crc.c
00000000 l    df *ABS*	00000000 crc.c
000402f4 l     F .text	0000008c reflect
00000000 l    df *ABS*	00000000 crc_main.c
00000000 l    df *ABS*	00000000 lib2-divmod.c
00040cd0 l     F .text	00000074 udivmodsi4
00000000 l    df *ABS*	00000000 lib2-mul.c
00000000 l    df *ABS*	00000000 exit.c
00000000 l    df *ABS*	00000000 impure.c
0004d6e8 l     O .rwdata	00000400 impure_data
00000000 l    df *ABS*	00000000 printf.c
00000000 l    df *ABS*	00000000 puts.c
00000000 l    df *ABS*	00000000 strlen.c
00000000 l    df *ABS*	00000000 vfprintf.c
00040fec l     F .text	00000034 __sprint_r
0004d412 l     O .rodata	00000010 blanks.3515
0004d422 l     O .rodata	00000010 zeroes.3516
00000000 l    df *ABS*	00000000 wsetup.c
00000000 l    df *ABS*	00000000 __call_atexit.c
00000000 l    df *ABS*	00000000 dtoa.c
000431d4 l     F .text	0000023c quorem
00000000 l    df *ABS*	00000000 fflush.c
00000000 l    df *ABS*	00000000 findfp.c
00044c44 l     F .text	00000008 __fp_lock
00044c4c l     F .text	00000008 __fp_unlock
00000000 l    df *ABS*	00000000 mallocr.c
00000000 l    df *ABS*	00000000 fvwrite.c
00000000 l    df *ABS*	00000000 fwalk.c
00000000 l    df *ABS*	00000000 locale.c
0004d454 l     O .rodata	00000030 lconv
00000000 l    df *ABS*	00000000 makebuf.c
00000000 l    df *ABS*	00000000 mallocr.c
00000000 l    df *ABS*	00000000 memchr.c
00000000 l    df *ABS*	00000000 memcpy.c
00000000 l    df *ABS*	00000000 memmove.c
00000000 l    df *ABS*	00000000 memset.c
00000000 l    df *ABS*	00000000 mprec.c
0004d59c l     O .rodata	0000000c p05.2435
00000000 l    df *ABS*	00000000 mallocr.c
00000000 l    df *ABS*	00000000 s_isinfd.c
00000000 l    df *ABS*	00000000 s_isnand.c
00000000 l    df *ABS*	00000000 sbrkr.c
00000000 l    df *ABS*	00000000 stdio.c
00000000 l    df *ABS*	00000000 strcmp.c
00000000 l    df *ABS*	00000000 writer.c
00000000 l    df *ABS*	00000000 mallocr.c
00000000 l    df *ABS*	00000000 closer.c
00000000 l    df *ABS*	00000000 fclose.c
00000000 l    df *ABS*	00000000 fstatr.c
00000000 l    df *ABS*	00000000 int_errno.c
00000000 l    df *ABS*	00000000 isattyr.c
00000000 l    df *ABS*	00000000 lseekr.c
00000000 l    df *ABS*	00000000 readr.c
00000000 l    df *ABS*	00000000 libgcc2.c
00000000 l    df *ABS*	00000000 libgcc2.c
00000000 l    df *ABS*	00000000 fp-bit.c
00049228 l     F .text	00000354 _fpadd_parts
00000000 l    df *ABS*	00000000 fp-bit.c
00000000 l    df *ABS*	00000000 fp-bit.c
00000000 l    df *ABS*	00000000 fp-bit.c
00000000 l    df *ABS*	00000000 fp-bit.c
00000000 l    df *ABS*	00000000 fp-bit.c
00000000 l    df *ABS*	00000000 fp-bit.c
00000000 l    df *ABS*	00000000 fp-bit.c
00000000 l    df *ABS*	00000000 fp-bit.c
00000000 l    df *ABS*	00000000 fp-bit.c
00000000 l    df *ABS*	00000000 fp-bit.c
00000000 l    df *ABS*	00000000 fp-bit.c
00000000 l    df *ABS*	00000000 libgcc2.c
00000000 l    df *ABS*	00000000 libgcc2.c
00000000 l    df *ABS*	00000000 libgcc2.c
00000000 l    df *ABS*	00000000 fp-bit.c
00000000 l    df *ABS*	00000000 fp-bit.c
00000000 l    df *ABS*	00000000 fp-bit.c
00000000 l    df *ABS*	00000000 libgcc2.c
00000000 l    df *ABS*	00000000 libgcc2.c
00000000 l    df *ABS*	00000000 alt_close.c
0004a5a4 l     F .text	00000050 alt_get_errno
00000000 l    df *ABS*	00000000 alt_dev.c
0004a6c0 l     F .text	0000002c alt_dev_null_write
00000000 l    df *ABS*	00000000 alt_errno.c
00000000 l    df *ABS*	00000000 alt_exit.c
00000000 l    df *ABS*	00000000 alt_fstat.c
0004a728 l     F .text	00000050 alt_get_errno
00000000 l    df *ABS*	00000000 alt_isatty.c
0004a828 l     F .text	00000050 alt_get_errno
00000000 l    df *ABS*	00000000 alt_load.c
0004a91c l     F .text	0000006c alt_load_section
00000000 l    df *ABS*	00000000 alt_lseek.c
0004aa08 l     F .text	00000050 alt_get_errno
00000000 l    df *ABS*	00000000 alt_main.c
00000000 l    df *ABS*	00000000 alt_malloc_lock.c
00000000 l    df *ABS*	00000000 alt_read.c
0004abe4 l     F .text	00000050 alt_get_errno
00000000 l    df *ABS*	00000000 alt_release_fd.c
00000000 l    df *ABS*	00000000 alt_sbrk.c
0004f130 l     O .rwdata	00000004 heap_end
00000000 l    df *ABS*	00000000 alt_write.c
0004ae58 l     F .text	00000050 alt_get_errno
00000000 l    df *ABS*	00000000 alt_sys_init.c
0004af98 l     F .text	00000038 alt_dev_reg
0004e0a4 l     O .rwdata	00001060 jtag_uart
00000000 l    df *ABS*	00000000 altera_avalon_jtag_uart_fd.c
00000000 l    df *ABS*	00000000 altera_avalon_jtag_uart_init.c
0004b2a8 l     F .text	00000204 altera_avalon_jtag_uart_irq
0004b4ac l     F .text	000000a4 altera_avalon_jtag_uart_timeout
00000000 l    df *ABS*	00000000 altera_avalon_jtag_uart_ioctl.c
00000000 l    df *ABS*	00000000 altera_avalon_jtag_uart_read.c
00000000 l    df *ABS*	00000000 altera_avalon_jtag_uart_write.c
00000000 l    df *ABS*	00000000 altera_avalon_timer_sc.c
0004bae8 l     F .text	00000074 alt_avalon_timer_sc_irq
00000000 l    df *ABS*	00000000 altera_avalon_timer_ts.c
00000000 l    df *ABS*	00000000 altera_avalon_timer_vars.c
00000000 l    df *ABS*	00000000 alt_alarm_start.c
00000000 l    df *ABS*	00000000 alt_dcache_flush_all.c
00000000 l    df *ABS*	00000000 alt_dev_llist_insert.c
0004be80 l     F .text	00000050 alt_get_errno
00000000 l    df *ABS*	00000000 alt_do_ctors.c
00000000 l    df *ABS*	00000000 alt_do_dtors.c
00000000 l    df *ABS*	00000000 alt_icache_flush_all.c
00000000 l    df *ABS*	00000000 alt_iic.c
00000000 l    df *ABS*	00000000 alt_iic_isr_register.c
00000000 l    df *ABS*	00000000 alt_io_redirect.c
0004c320 l     F .text	000000e0 alt_open_fd
00000000 l    df *ABS*	00000000 alt_irq_vars.c
00000000 l    df *ABS*	00000000 alt_open.c
0004c478 l     F .text	00000050 alt_get_errno
0004c4c8 l     F .text	000000f0 alt_file_locked
00000000 l    df *ABS*	00000000 alt_tick.c
00000000 l    df *ABS*	00000000 altera_nios2_qsys_irq.c
00000000 l    df *ABS*	00000000 alt_find_dev.c
00000000 l    df *ABS*	00000000 alt_find_file.c
00000000 l    df *ABS*	00000000 alt_get_fd.c
00000000 l    df *ABS*	00000000 alt_icache_flush.c
00000000 l    df *ABS*	00000000 atexit.c
00000000 l    df *ABS*	00000000 memcmp.c
00000000 l    df *ABS*	00000000 __atexit.c
00000000 l    df *ABS*	00000000 
00047704 g     F .text	00000074 _mprec_log10
000477f4 g     F .text	00000084 __any_on
00048474 g     F .text	00000064 _isatty_r
0004d484 g     O .rodata	00000028 __mprec_tinytens
0004ab2c g     F .text	00000078 alt_main
0004a560 g     F .text	00000044 __ashldi3
00040ec8 g     F .text	00000084 _puts_r
00052ffc g     O .bss	00000100 alt_irq
000484d8 g     F .text	0000006c _lseek_r
0004f140 g       *ABS*	00000000 __flash_rwdata_start
00049ac8 g     F .text	0000005c __eqdf2
0005328c g       *ABS*	00000000 __alt_heap_start
00040e8c g     F .text	0000003c printf
00048018 g     F .text	0000005c __sseek
00044ce8 g     F .text	0000010c __sinit
00045980 g     F .text	0000009c _setlocale_r
00044c60 g     F .text	00000078 __sfmoreglue
0004abc4 g     F .text	00000020 __malloc_unlock
00050bc4 g     O .bss	00000004 altera_avalon_timer_ts_freq
000465c0 g     F .text	0000018c memmove
00044cd8 g     F .text	00000010 _cleanup
00046828 g     F .text	000000a8 _Balloc
00049b80 g     F .text	00000064 __gtdf2
00000000  w      *UND*	00000000 __errno
00040000 g     F .entry	0000001c __reset
00040020 g       *ABS*	00000000 __flash_exceptions_start
0004840c g     F .text	00000068 _fstat_r
00050bb0 g     O .bss	00000004 errno
00050bb8 g     O .bss	00000004 alt_argv
00057104 g       *ABS*	00000000 _gp
0004df24 g     O .rwdata	00000180 alt_fd_list
0004c8cc g     F .text	00000090 alt_find_dev
00046480 g     F .text	00000140 memcpy
00044c54 g     F .text	0000000c _cleanup_r
00049ca4 g     F .text	000000d4 __floatsidf
0004c400 g     F .text	00000078 alt_io_redirect
00049c48 g     F .text	0000005c __ltdf2
0004cd90 g       *ABS*	00000000 __DTOR_END__
00040f4c g     F .text	00000014 puts
00047660 g     F .text	000000a4 __ratio
0004b6ac g     F .text	00000218 altera_avalon_jtag_uart_read
00000000  w      *UND*	00000000 malloc
00040e60 g     F .text	0000002c _printf_r
00040df0 g     F .text	00000008 __udivsi3
0004a878 g     F .text	000000a4 isatty
0004d4d4 g     O .rodata	000000c8 __mprec_tens
00045a1c g     F .text	0000000c __locale_charset
0004cb44 g     F .text	0000008c alt_icache_flush
00050bac g     O .bss	00000004 __malloc_top_pad
0004f10c g     O .rwdata	00000004 __mb_cur_max
00045a28 g     F .text	0000000c _localeconv_r
00046c58 g     F .text	0000003c __i2b
0004533c g     F .text	000004e4 __sfvwrite_r
00047ed8 g     F .text	00000064 _sbrk_r
00048544 g     F .text	0000006c _read_r
0004dae8 g     O .rwdata	0000000c __lc_ctype
0004f128 g     O .rwdata	00000004 alt_max_fd
0004a348 g     F .text	00000104 __unpack_d
000482bc g     F .text	0000013c _fclose_r
00044c14 g     F .text	00000030 fflush
00050ba8 g     O .bss	00000004 __malloc_max_sbrked_mem
0004957c g     F .text	00000054 __adddf3
000473d4 g     F .text	00000148 __b2d
00048c00 g     F .text	00000628 __umoddi3
0004aa58 g     F .text	000000d4 lseek
0004f104 g     O .rwdata	00000004 _global_impure_ptr
00047878 g     F .text	000005fc _realloc_r
0005328c g       *ABS*	00000000 __bss_end
0004c230 g     F .text	000000f0 alt_iic_isr_register
0004c7a8 g     F .text	00000104 alt_tick
000485b0 g     F .text	00000650 __udivdi3
0004d4ac g     O .rodata	00000028 __mprec_bigtens
00046a3c g     F .text	00000104 __s2b
00049e4c g     F .text	0000011c __floatunsidf
00047174 g     F .text	00000058 __mcmp
00044f00 g     F .text	00000018 __fp_lock_all
0004c1e4 g     F .text	0000004c alt_ic_irq_enabled
0004c710 g     F .text	00000098 alt_alarm_stop
00050bc8 g     O .bss	00000004 alt_irq_active
00040000 g       *ABS*	00000000 __alt_mem_onchip_mem
000400ec g     F .exceptions	000000cc alt_irq_handler
0004defc g     O .rwdata	00000028 alt_dev_null
0004be64 g     F .text	0000001c alt_dcache_flush_all
00046b40 g     F .text	00000068 __hi0bits
00049d78 g     F .text	000000d4 __fixdfsi
0004f140 g       *ABS*	00000000 __ram_rwdata_end
0004f120 g     O .rwdata	00000008 alt_dev_list
0004aea8 g     F .text	000000f0 write
00040380 g     F .text	000000ec crcSlow
0004bcfc g     F .text	00000028 alt_timestamp_freq
0004d6e8 g       *ABS*	00000000 __ram_rodata_end
0004a778 g     F .text	000000b0 fstat
0004a51c g     F .text	00000044 __lshrdi3
00046eec g     F .text	0000012c __pow5mult
00050ba0 g     O .bss	00000004 __nlocale_changed
00040df8 g     F .text	00000008 __umodsi3
0005328c g       *ABS*	00000000 end
00050ffc g     O .bss	00002000 data_buffer_region
0004b1e8 g     F .text	000000c0 altera_avalon_jtag_uart_init
0004cd90 g       *ABS*	00000000 __CTOR_LIST__
00080000 g       *ABS*	00000000 __alt_stack_pointer
0004bb5c g     F .text	00000088 alt_avalon_timer_sc_init
0004a078 g     F .text	000000ac __clzsi2
0004b8c4 g     F .text	00000224 altera_avalon_jtag_uart_write
00044ef0 g     F .text	00000004 __sfp_lock_acquire
00046388 g     F .text	000000f8 memchr
00041020 g     F .text	00001e7c ___vfprintf_internal_r
0004506c g     F .text	000002d0 _free_r
00043034 g     F .text	000001a0 __call_exitprocs
00050b9c g     O .bss	00000004 __mlocale_changed
0004f110 g     O .rwdata	00000004 __malloc_sbrk_base
000401b8 g     F .text	0000003c _start
00050bcc g     O .bss	00000004 _alt_tick_rate
00047018 g     F .text	0000015c __lshift
00050bd0 g     O .bss	00000004 _alt_nticks
0004ac34 g     F .text	000000f4 read
0004b004 g     F .text	00000080 alt_sys_init
0004cc60 g     F .text	00000130 __register_exitproc
00046c94 g     F .text	00000258 __multiply
0004b550 g     F .text	00000068 altera_avalon_jtag_uart_close
00040e00 g     F .text	00000028 __mulsi3
0004d6e8 g       *ABS*	00000000 __ram_rwdata_start
0004cd90 g       *ABS*	00000000 __ram_rodata_start
00050bd4 g     O .bss	00000028 __malloc_current_mallinfo
0004751c g     F .text	00000144 __d2b
0004b084 g     F .text	00000060 altera_avalon_jtag_uart_read_fd
0004ca70 g     F .text	000000d4 alt_get_fd
0004a44c g     F .text	000000d0 __fpcmp_parts_d
00048258 g     F .text	00000064 _close_r
0004cbe4 g     F .text	0000007c memcmp
0004b144 g     F .text	00000050 altera_avalon_jtag_uart_close_fd
0005328c g       *ABS*	00000000 __alt_stack_base
0004b194 g     F .text	00000054 altera_avalon_jtag_uart_ioctl_fd
00042ec0 g     F .text	00000174 __swsetup_r
00049914 g     F .text	000001b4 __divdf3
0004046c g     F .text	000000bc crcInit
00044df4 g     F .text	000000fc __sfp
00047778 g     F .text	0000007c __copybits
0004daf4 g     O .rwdata	00000408 __malloc_av_
00044efc g     F .text	00000004 __sinit_lock_release
00049630 g     F .text	000002e4 __muldf3
00047f3c g     F .text	00000054 __sread
000401f4 g     F .text	00000100 crcCI
0004c95c g     F .text	00000114 alt_find_file
0004bed0 g     F .text	000000a0 alt_dev_llist_insert
0004aba4 g     F .text	00000020 __malloc_lock
0004ada8 g     F .text	000000b0 sbrk
00044a2c g     F .text	000001e8 _fflush_r
0004818c g     F .text	000000cc _calloc_r
00050b98 g       *ABS*	00000000 __bss_start
0004674c g     F .text	000000dc memset
000405ec g     F .text	000006e4 main
00050bbc g     O .bss	00000004 alt_envp
00050ba4 g     O .bss	00000004 __malloc_max_total_mem
0004b0e4 g     F .text	00000060 altera_avalon_jtag_uart_write_fd
00048074 g     F .text	00000008 __sclose
00080000 g       *ABS*	00000000 __alt_heap_limit
000483f8 g     F .text	00000014 fclose
0004bbe4 g     F .text	00000088 alt_timestamp_start
000530fc g     O .bss	00000190 _atexit0
00043410 g     F .text	0000161c _dtoa_r
00045c04 g     F .text	00000784 _malloc_r
0004f12c g     O .rwdata	00000004 alt_errno
00045820 g     F .text	000000a8 _fwalk
00040d44 g     F .text	00000050 __divsi3
0004d5a8 g     O .rodata	00000014 __thenan_df
00044f30 g     F .text	0000013c _malloc_trim_r
0004cd90 g       *ABS*	00000000 __CTOR_END__
0004807c g     F .text	000000a4 strcmp
0004cd90 g       *ABS*	00000000 __flash_rodata_start
0004cd90 g       *ABS*	00000000 __DTOR_LIST__
00049b24 g     F .text	0000005c __nedf2
0004afd0 g     F .text	00000034 alt_irq_init
0004ad28 g     F .text	00000080 alt_release_fd
0004d5bc g     O .rodata	00000100 __clz_tab
00050b98 g     O .bss	00000004 _PathLocale
0004cbd0 g     F .text	00000014 atexit
00048120 g     F .text	0000006c _write_r
00045a34 g     F .text	0000001c setlocale
0004f108 g     O .rwdata	00000004 _impure_ptr
00050bb4 g     O .bss	00000004 alt_argc
00050bc0 g     O .bss	00000004 altera_avalon_timer_ts_base
0004bfcc g     F .text	0000005c _do_dtors
00040528 g     F .text	000000c4 crcFast
00040020 g       .exceptions	00000000 alt_irq_entry
00047374 g     F .text	00000060 __ulp
00047e74 g     F .text	00000038 __isinfd
00044f18 g     F .text	00000018 __fp_unlock_all
0004f118 g     O .rwdata	00000008 alt_fs_list
00040020 g       *ABS*	00000000 __ram_exceptions_start
00045a50 g     F .text	0000000c localeconv
0004bc6c g     F .text	00000090 alt_timestamp
0004c058 g     F .text	00000050 alt_ic_isr_register
0004f140 g       *ABS*	00000000 _edata
0005328c g       *ABS*	00000000 _end
00050bfc g     O .bss	00000400 crcTable
000401b8 g       *ABS*	00000000 __ram_exceptions_end
0004b5b8 g     F .text	000000f4 altera_avalon_jtag_uart_ioctl
0004c144 g     F .text	000000a0 alt_ic_irq_disable
00047f90 g     F .text	00000088 __swrite
0004f114 g     O .rwdata	00000004 __malloc_trim_threshold
0004c8ac g     F .text	00000020 altera_nios2_qsys_irq_init
00040e28 g     F .text	00000038 exit
000458c8 g     F .text	000000b8 _fwalk_reent
000471cc g     F .text	000001a8 __mdiff
00040d94 g     F .text	0000005c __modsi3
00080000 g       *ABS*	00000000 __alt_data_end
00040020 g     F .exceptions	00000000 alt_exception
00044ef4 g     F .text	00000004 __sfp_lock_release
00047eac g     F .text	0000002c __isnand
0004a6ec g     F .text	0000003c _exit
0004bd24 g     F .text	00000140 alt_alarm_start
00049f68 g     F .text	00000110 __muldi3
00045a5c g     F .text	000001a8 __smakebuf_r
00040f60 g     F .text	0000008c strlen
0004c5b8 g     F .text	00000158 open
00049be4 g     F .text	00000064 __gedf2
0004c028 g     F .text	00000030 alt_icache_flush_all
0004f134 g     O .rwdata	00000004 alt_priority_mask
0004c0a8 g     F .text	0000009c alt_ic_irq_enable
00042e9c g     F .text	00000024 __vfprintf_internal
000495d0 g     F .text	00000060 __subdf3
00046ba8 g     F .text	000000b0 __lo0bits
0004f138 g     O .rwdata	00000008 alt_alarm_list
0004bf70 g     F .text	0000005c _do_ctors
0004a5f4 g     F .text	000000cc close
0004a988 g     F .text	00000080 alt_load
0004a124 g     F .text	00000224 __pack_d
00000000  w      *UND*	00000000 free
00044ef8 g     F .text	00000004 __sinit_lock_acquire
000468f8 g     F .text	00000144 __multadd
000468d0 g     F .text	00000028 _Bfree



Disassembly of section .entry:

00040000 <__reset>:
#if NIOS2_ICACHE_SIZE > 0 && defined(ALT_ALLOW_CODE_AT_RESET) && !defined(ALT_SIM_OPTIMIZE)
    /* Assume the instruction cache size is always a power of two. */
#if NIOS2_ICACHE_SIZE > 0x8000
    movhi r2, %hi(NIOS2_ICACHE_SIZE)
#else
    movui r2, NIOS2_ICACHE_SIZE
   40000:	00840014 	movui	r2,4096
#endif

0:
    initi r2
   40004:	1001483a 	initi	r2
    addi r2, r2, -NIOS2_ICACHE_LINE_SIZE
   40008:	10bff804 	addi	r2,r2,-32
    bgt r2, zero, 0b
   4000c:	00bffd16 	blt	zero,r2,40004 <__reset+0x4>
 * Jump to the _start entry point in the .text section if reset code
 * is allowed or if optimizing for RTL simulation.
 */
#if defined(ALT_ALLOW_CODE_AT_RESET) || defined(ALT_SIM_OPTIMIZE)
    /* Jump to the _start entry point in the .text section. */
    movhi r1, %hi(_start)
   40010:	00400134 	movhi	at,4
    ori r1, r1, %lo(_start)
   40014:	08406e14 	ori	at,at,440
    jmp r1
   40018:	0800683a 	jmp	at
   4001c:	00000000 	call	0 <__alt_mem_onchip_mem-0x40000>

Disassembly of section .exceptions:

00040020 <alt_exception>:

#else /* ALT_EXCEPTION_STACK disabled */
        /* 
         * Reserve space on normal stack for registers about to be pushed.
         */
        addi  sp, sp, -76
   40020:	deffed04 	addi	sp,sp,-76
         * documentation for details).
         *
         * Leave a gap in the stack frame at 4(sp) for the muldiv handler to
         * store zero into.
         */
        stw   ra,  0(sp)
   40024:	dfc00015 	stw	ra,0(sp)
        stw   r1,   8(sp)
   40028:	d8400215 	stw	at,8(sp)
        stw   r2,  12(sp)
   4002c:	d8800315 	stw	r2,12(sp)
        stw   r3,  16(sp)
   40030:	d8c00415 	stw	r3,16(sp)
        stw   r4,  20(sp)
   40034:	d9000515 	stw	r4,20(sp)
        stw   r5,  24(sp)
   40038:	d9400615 	stw	r5,24(sp)
        stw   r6,  28(sp)
   4003c:	d9800715 	stw	r6,28(sp)
        stw   r7,  32(sp)
   40040:	d9c00815 	stw	r7,32(sp)
        rdctl r5, estatus   /* Read early to avoid usage stall */
   40044:	000b307a 	rdctl	r5,estatus
        stw   r8,  36(sp)
   40048:	da000915 	stw	r8,36(sp)
        stw   r9,  40(sp)
   4004c:	da400a15 	stw	r9,40(sp)
        stw   r10, 44(sp)
   40050:	da800b15 	stw	r10,44(sp)
        stw   r11, 48(sp)
   40054:	dac00c15 	stw	r11,48(sp)
        stw   r12, 52(sp)
   40058:	db000d15 	stw	r12,52(sp)
        stw   r13, 56(sp)
   4005c:	db400e15 	stw	r13,56(sp)
        stw   r14, 60(sp)
   40060:	db800f15 	stw	r14,60(sp)
        stw   r15, 64(sp)
   40064:	dbc01015 	stw	r15,64(sp)
        /*
         * ea-4 contains the address of the instruction being executed
         * when the exception occured. For interrupt exceptions, we will
         * will be re-issue the isntruction. Store it in 72(sp)
         */
        stw   r5,  68(sp)  /* estatus */
   40068:	d9401115 	stw	r5,68(sp)
        addi  r15, ea, -4  /* instruction that caused exception */
   4006c:	ebffff04 	addi	r15,ea,-4
        stw   r15,  72(sp)
   40070:	dbc01215 	stw	r15,72(sp)
#else
        /*
         * Test to see if the exception was a software exception or caused 
         * by an external interrupt, and vector accordingly.
         */
        rdctl r4, ipending
   40074:	0009313a 	rdctl	r4,ipending
        andi  r2, r5, 1
   40078:	2880004c 	andi	r2,r5,1
        beq   r2, zero, .Lnot_irq
   4007c:	10000326 	beq	r2,zero,4008c <alt_exception+0x6c>
        beq   r4, zero, .Lnot_irq
   40080:	20000226 	beq	r4,zero,4008c <alt_exception+0x6c>
        /*
         * Now that all necessary registers have been preserved, call 
         * alt_irq_handler() to process the interrupts.
         */

        call alt_irq_handler
   40084:	00400ec0 	call	400ec <alt_irq_handler>

        .section .exceptions.irqreturn, "xa"

        br    .Lexception_exit
   40088:	00000306 	br	40098 <alt_exception_unknown+0x4>
         * upon completion, so we write ea (address of instruction *after*
         * the one where the exception occured) into 72(sp). The actual
         * instruction that caused the exception is written in r2, which these
         * handlers will utilize.
         */
        stw   ea,  72(sp)  /* Don't re-issue */
   4008c:	df401215 	stw	ea,72(sp)
        ldw   r2, -4(ea)   /* Instruction that caused exception */
   40090:	e8bfff17 	ldw	r2,-4(ea)

00040094 <alt_exception_unknown>:
#ifdef NIOS2_HAS_DEBUG_STUB
       /*
        *  Either tell the user now (if there is a debugger attached) or go into
        *  the debug monitor which will loop until a debugger is attached.
        */
        break
   40094:	003da03a 	break	0
        /* 
         * Restore the saved registers, so that all general purpose registers 
         * have been restored to their state at the time the interrupt occured.
         */

        ldw   r5,  68(sp)
   40098:	d9401117 	ldw	r5,68(sp)
        ldw   ea,  72(sp)  /* This becomes the PC once eret is executed */
   4009c:	df401217 	ldw	ea,72(sp)
        ldw   ra,   0(sp)
   400a0:	dfc00017 	ldw	ra,0(sp)

        wrctl estatus, r5
   400a4:	2801707a 	wrctl	estatus,r5

        ldw   r1,   8(sp)
   400a8:	d8400217 	ldw	at,8(sp)
        ldw   r2,  12(sp)
   400ac:	d8800317 	ldw	r2,12(sp)
        ldw   r3,  16(sp)
   400b0:	d8c00417 	ldw	r3,16(sp)
        ldw   r4,  20(sp)
   400b4:	d9000517 	ldw	r4,20(sp)
        ldw   r5,  24(sp)
   400b8:	d9400617 	ldw	r5,24(sp)
        ldw   r6,  28(sp)
   400bc:	d9800717 	ldw	r6,28(sp)
        ldw   r7,  32(sp)
   400c0:	d9c00817 	ldw	r7,32(sp)

#if defined(ALT_EXCEPTION_STACK) && defined(ALT_STACK_CHECK)
        ldw   et, %gprel(alt_exception_old_stack_limit)(gp)
#endif

        ldw   r8,  36(sp)
   400c4:	da000917 	ldw	r8,36(sp)
        ldw   r9,  40(sp)
   400c8:	da400a17 	ldw	r9,40(sp)
        ldw   r10, 44(sp)
   400cc:	da800b17 	ldw	r10,44(sp)
        ldw   r11, 48(sp)
   400d0:	dac00c17 	ldw	r11,48(sp)
        ldw   r12, 52(sp)
   400d4:	db000d17 	ldw	r12,52(sp)
        ldw   r13, 56(sp)
   400d8:	db400e17 	ldw	r13,56(sp)
        ldw   r14, 60(sp)
   400dc:	db800f17 	ldw	r14,60(sp)
        ldw   r15, 64(sp)
   400e0:	dbc01017 	ldw	r15,64(sp)
        stw   et, %gprel(alt_stack_limit_value)(gp)
        stw   zero, %gprel(alt_exception_old_stack_limit)(gp)
#endif /* ALT_STACK_CHECK */
        ldw   sp,  76(sp)
#else /* ALT_EXCEPTION_STACK disabled */
        addi  sp, sp, 76
   400e4:	dec01304 	addi	sp,sp,76

        /*
         * Return to the interrupted instruction.
         */

        eret
   400e8:	ef80083a 	eret

000400ec <alt_irq_handler>:
 * instruction is present if the macro ALT_CI_INTERRUPT_VECTOR defined.
 */

void alt_irq_handler (void) __attribute__ ((section (".exceptions")));
void alt_irq_handler (void)
{
   400ec:	defff904 	addi	sp,sp,-28
   400f0:	dfc00615 	stw	ra,24(sp)
   400f4:	df000515 	stw	fp,20(sp)
   400f8:	df000504 	addi	fp,sp,20
  
  /*
   * Notify the operating system that we are at interrupt level.
   */ 
  
  ALT_OS_INT_ENTER();
   400fc:	0001883a 	nop
#ifndef NIOS2_EIC_PRESENT
static ALT_INLINE alt_u32 ALT_ALWAYS_INLINE alt_irq_pending (void)
{
  alt_u32 active;

  NIOS2_READ_IPENDING (active);
   40100:	0005313a 	rdctl	r2,ipending
   40104:	e0bffe15 	stw	r2,-8(fp)

  return active;
   40108:	e0bffe17 	ldw	r2,-8(fp)
   * Consider the case where the high priority interupt is asserted during
   * the interrupt entry sequence for a lower priority interrupt to see why
   * this is the case.
   */

  active = alt_irq_pending ();
   4010c:	e0bffb15 	stw	r2,-20(fp)

  do
  {
    i = 0;
   40110:	e03ffd15 	stw	zero,-12(fp)
    mask = 1;
   40114:	00800044 	movi	r2,1
   40118:	e0bffc15 	stw	r2,-16(fp)
     * called to clear the interrupt condition.
     */

    do
    {
      if (active & mask)
   4011c:	e0fffb17 	ldw	r3,-20(fp)
   40120:	e0bffc17 	ldw	r2,-16(fp)
   40124:	1884703a 	and	r2,r3,r2
   40128:	10001726 	beq	r2,zero,40188 <alt_irq_handler+0x9c>
      { 
#ifdef ALT_ENHANCED_INTERRUPT_API_PRESENT
        alt_irq[i].handler(alt_irq[i].context); 
   4012c:	00c00174 	movhi	r3,5
   40130:	18cbff04 	addi	r3,r3,12284
   40134:	e0bffd17 	ldw	r2,-12(fp)
   40138:	100490fa 	slli	r2,r2,3
   4013c:	1885883a 	add	r2,r3,r2
   40140:	10c00017 	ldw	r3,0(r2)
   40144:	01000174 	movhi	r4,5
   40148:	210bff04 	addi	r4,r4,12284
   4014c:	e0bffd17 	ldw	r2,-12(fp)
   40150:	100490fa 	slli	r2,r2,3
   40154:	2085883a 	add	r2,r4,r2
   40158:	10800104 	addi	r2,r2,4
   4015c:	10800017 	ldw	r2,0(r2)
   40160:	1009883a 	mov	r4,r2
   40164:	183ee83a 	callr	r3
#else
        alt_irq[i].handler(alt_irq[i].context, i); 
#endif
        break;
   40168:	0001883a 	nop
#ifndef NIOS2_EIC_PRESENT
static ALT_INLINE alt_u32 ALT_ALWAYS_INLINE alt_irq_pending (void)
{
  alt_u32 active;

  NIOS2_READ_IPENDING (active);
   4016c:	0005313a 	rdctl	r2,ipending
   40170:	e0bfff15 	stw	r2,-4(fp)

  return active;
   40174:	e0bfff17 	ldw	r2,-4(fp)
      mask <<= 1;
      i++;

    } while (1);

    active = alt_irq_pending ();
   40178:	e0bffb15 	stw	r2,-20(fp)
    
  } while (active);
   4017c:	e0bffb17 	ldw	r2,-20(fp)
   40180:	103fe31e 	bne	r2,zero,40110 <alt_irq_handler+0x24>

  /*
   * Notify the operating system that interrupt processing is complete.
   */ 

  ALT_OS_INT_EXIT();
   40184:	00000706 	br	401a4 <alt_irq_handler+0xb8>
#else
        alt_irq[i].handler(alt_irq[i].context, i); 
#endif
        break;
      }
      mask <<= 1;
   40188:	e0bffc17 	ldw	r2,-16(fp)
   4018c:	1085883a 	add	r2,r2,r2
   40190:	e0bffc15 	stw	r2,-16(fp)
      i++;
   40194:	e0bffd17 	ldw	r2,-12(fp)
   40198:	10800044 	addi	r2,r2,1
   4019c:	e0bffd15 	stw	r2,-12(fp)

    } while (1);
   401a0:	003fde06 	br	4011c <alt_irq_handler+0x30>
  /*
   * Notify the operating system that interrupt processing is complete.
   */ 

  ALT_OS_INT_EXIT();
}
   401a4:	e037883a 	mov	sp,fp
   401a8:	dfc00117 	ldw	ra,4(sp)
   401ac:	df000017 	ldw	fp,0(sp)
   401b0:	dec00204 	addi	sp,sp,8
   401b4:	f800283a 	ret

Disassembly of section .text:

000401b8 <_start>:

    /*
     * Now that the caches are initialized, set up the stack pointer and global pointer.
     * The values provided by the linker are assumed to be correctly aligned.
     */
    movhi sp, %hi(__alt_stack_pointer)
   401b8:	06c00234 	movhi	sp,8
    ori sp, sp, %lo(__alt_stack_pointer)
   401bc:	dec00014 	ori	sp,sp,0
    movhi gp, %hi(_gp)
   401c0:	06800174 	movhi	gp,5
    ori gp, gp, %lo(_gp)
   401c4:	d69c4114 	ori	gp,gp,28932
 */
#ifndef ALT_SIM_OPTIMIZE
    /* Log that the BSS is about to be cleared. */
    ALT_LOG_PUTS(alt_log_msg_bss)

    movhi r2, %hi(__bss_start)
   401c8:	00800174 	movhi	r2,5
    ori r2, r2, %lo(__bss_start)
   401cc:	1082e614 	ori	r2,r2,2968

    movhi r3, %hi(__bss_end)
   401d0:	00c00174 	movhi	r3,5
    ori r3, r3, %lo(__bss_end)
   401d4:	18cca314 	ori	r3,r3,12940

    beq r2, r3, 1f
   401d8:	10c00326 	beq	r2,r3,401e8 <_start+0x30>

0:
    stw zero, (r2)
   401dc:	10000015 	stw	zero,0(r2)
    addi r2, r2, 4
   401e0:	10800104 	addi	r2,r2,4
    bltu r2, r3, 0b
   401e4:	10fffd36 	bltu	r2,r3,401dc <_start+0x24>
     * section aren't defined until alt_load() has been called).
     */
    mov   et, zero
#endif

    call alt_load
   401e8:	004a9880 	call	4a988 <alt_load>

    /* Log that alt_main is about to be called. */
    ALT_LOG_PUTS(alt_log_msg_alt_main)

    /* Call the C entry point. It should never return. */
    call alt_main
   401ec:	004ab2c0 	call	4ab2c <alt_main>

000401f0 <alt_after_alt_main>:

    /* Wait in infinite loop in case alt_main does return. */
alt_after_alt_main:
    br alt_after_alt_main
   401f0:	003fff06 	br	401f0 <alt_after_alt_main>

000401f4 <crcCI>:
 * n = 6, Read  96 bits data from the custom instruction
 * n = 7, Read 128 bits data from the custom instruction*/
#define CRC_CI_MACRO(n, A) ALT_CI_CRC_CUSTOM_INSTRUCTION_0(n,A)      // __builtin_custom_ini(ALT_CI_CRC_N + (n & 0x7), (A))

unsigned long crcCI(unsigned char * input_data, unsigned long input_data_length)
{
   401f4:	defffb04 	addi	sp,sp,-20
   401f8:	df000415 	stw	fp,16(sp)
   401fc:	df000404 	addi	fp,sp,16
   40200:	e13ffe15 	stw	r4,-8(fp)
   40204:	e17fff15 	stw	r5,-4(fp)
  unsigned long index;
  /* copy of the data buffer pointer so that it can advance by different widths */
  void * input_data_copy = (void *)input_data;
   40208:	e0bffe17 	ldw	r2,-8(fp)
   4020c:	e0bffd15 	stw	r2,-12(fp)

  /* The custom instruction CRC will initialize to the inital remainder value */    
  CRC_CI_MACRO(0,0);
   40210:	0005883a 	mov	r2,zero
   40214:	1005c032 	custom	0,r2,r2,zero
  
  /* Write 32 bit data to the custom instruction.  If the buffer does not end
   * on a 32 bit boundary then the remaining data will be sent to the custom
   * instruction in the 'if' statement below.
   */
  for(index = 0; index < (input_data_length & 0xFFFFFFFC); index+=4)
   40218:	e03ffc15 	stw	zero,-16(fp)
   4021c:	00000906 	br	40244 <crcCI+0x50>
  {
    CRC_CI_MACRO(3, *(unsigned long *)input_data_copy);
   40220:	e0bffd17 	ldw	r2,-12(fp)
   40224:	10800017 	ldw	r2,0(r2)
   40228:	1005c0f2 	custom	3,r2,r2,zero
    input_data_copy += 4;  /* void pointer, must move by 4 for each word */
   4022c:	e0bffd17 	ldw	r2,-12(fp)
   40230:	10800104 	addi	r2,r2,4
   40234:	e0bffd15 	stw	r2,-12(fp)
  
  /* Write 32 bit data to the custom instruction.  If the buffer does not end
   * on a 32 bit boundary then the remaining data will be sent to the custom
   * instruction in the 'if' statement below.
   */
  for(index = 0; index < (input_data_length & 0xFFFFFFFC); index+=4)
   40238:	e0bffc17 	ldw	r2,-16(fp)
   4023c:	10800104 	addi	r2,r2,4
   40240:	e0bffc15 	stw	r2,-16(fp)
   40244:	e0ffff17 	ldw	r3,-4(fp)
   40248:	00bfff04 	movi	r2,-4
   4024c:	1884703a 	and	r2,r3,r2
   40250:	e0fffc17 	ldw	r3,-16(fp)
   40254:	18bff236 	bltu	r3,r2,40220 <crcCI+0x2c>
    CRC_CI_MACRO(3, *(unsigned long *)input_data_copy);
    input_data_copy += 4;  /* void pointer, must move by 4 for each word */
  }

  /* Write the remainder of the buffer if it does not end on a word boundary */  
  if((input_data_length & 0x3) == 0x3)  /* 3 bytes left */
   40258:	e0bfff17 	ldw	r2,-4(fp)
   4025c:	108000cc 	andi	r2,r2,3
   40260:	108000d8 	cmpnei	r2,r2,3
   40264:	10000c1e 	bne	r2,zero,40298 <crcCI+0xa4>
  {
    CRC_CI_MACRO(2, *(unsigned short *)input_data_copy);
   40268:	e0bffd17 	ldw	r2,-12(fp)
   4026c:	1080000b 	ldhu	r2,0(r2)
   40270:	10bfffcc 	andi	r2,r2,65535
   40274:	1005c0b2 	custom	2,r2,r2,zero
    input_data_copy += 2;
   40278:	e0bffd17 	ldw	r2,-12(fp)
   4027c:	10800084 	addi	r2,r2,2
   40280:	e0bffd15 	stw	r2,-12(fp)
    CRC_CI_MACRO(1, *(unsigned char *)input_data_copy);
   40284:	e0bffd17 	ldw	r2,-12(fp)
   40288:	10800003 	ldbu	r2,0(r2)
   4028c:	10803fcc 	andi	r2,r2,255
   40290:	1005c072 	custom	1,r2,r2,zero
   40294:	00001106 	br	402dc <crcCI+0xe8>
  }
  else if((input_data_length & 0x3) == 0x2) /* 2 bytes left */
   40298:	e0bfff17 	ldw	r2,-4(fp)
   4029c:	108000cc 	andi	r2,r2,3
   402a0:	10800098 	cmpnei	r2,r2,2
   402a4:	1000051e 	bne	r2,zero,402bc <crcCI+0xc8>
  {
    CRC_CI_MACRO(2, *(unsigned short *)input_data_copy);    
   402a8:	e0bffd17 	ldw	r2,-12(fp)
   402ac:	1080000b 	ldhu	r2,0(r2)
   402b0:	10bfffcc 	andi	r2,r2,65535
   402b4:	1005c0b2 	custom	2,r2,r2,zero
   402b8:	00000806 	br	402dc <crcCI+0xe8>
  }
  else if((input_data_length & 0x3) == 0x1) /* 1 byte left */
   402bc:	e0bfff17 	ldw	r2,-4(fp)
   402c0:	108000cc 	andi	r2,r2,3
   402c4:	10800058 	cmpnei	r2,r2,1
   402c8:	1000041e 	bne	r2,zero,402dc <crcCI+0xe8>
  {
    CRC_CI_MACRO(1, *(unsigned char *)input_data_copy);    
   402cc:	e0bffd17 	ldw	r2,-12(fp)
   402d0:	10800003 	ldbu	r2,0(r2)
   402d4:	10803fcc 	andi	r2,r2,255
   402d8:	1005c072 	custom	1,r2,r2,zero
  
  /* There are 4 registers in the CRC custom instruction.  Since
   * this example uses CRC-32 only the first register must be read
   * in order to receive the full result.
   */
  return CRC_CI_MACRO(4, 0);
   402dc:	0005883a 	mov	r2,zero
   402e0:	1005c132 	custom	4,r2,r2,zero
}
   402e4:	e037883a 	mov	sp,fp
   402e8:	df000017 	ldw	fp,0(sp)
   402ec:	dec00104 	addi	sp,sp,4
   402f0:	f800283a 	ret

000402f4 <reflect>:
 * Returns:   The reflection of the original data.
 *
 *********************************************************************/
static unsigned long
reflect(unsigned long data, unsigned char nBits)
{
   402f4:	defffb04 	addi	sp,sp,-20
   402f8:	df000415 	stw	fp,16(sp)
   402fc:	df000404 	addi	fp,sp,16
   40300:	e13ffe15 	stw	r4,-8(fp)
   40304:	2805883a 	mov	r2,r5
   40308:	e0bfff05 	stb	r2,-4(fp)
  unsigned long  reflection = 0x00000000;
   4030c:	e03ffc15 	stw	zero,-16(fp)
  unsigned char  bit;

  /*
   * Reflect the data about the center bit.
   */
  for (bit = 0; bit < nBits; ++bit)
   40310:	e03ffd05 	stb	zero,-12(fp)
   40314:	00001206 	br	40360 <reflect+0x6c>
  {
    /*
     * If the LSB bit is set, set the reflection of it.
     */
    if (data & 0x01)
   40318:	e0bffe17 	ldw	r2,-8(fp)
   4031c:	1080004c 	andi	r2,r2,1
   40320:	10000926 	beq	r2,zero,40348 <reflect+0x54>
    {
      reflection |= (1 << ((nBits - 1) - bit));
   40324:	e0bfff03 	ldbu	r2,-4(fp)
   40328:	10ffffc4 	addi	r3,r2,-1
   4032c:	e0bffd03 	ldbu	r2,-12(fp)
   40330:	1885c83a 	sub	r2,r3,r2
   40334:	00c00044 	movi	r3,1
   40338:	1884983a 	sll	r2,r3,r2
   4033c:	e0fffc17 	ldw	r3,-16(fp)
   40340:	1884b03a 	or	r2,r3,r2
   40344:	e0bffc15 	stw	r2,-16(fp)
    }

    data = (data >> 1);
   40348:	e0bffe17 	ldw	r2,-8(fp)
   4034c:	1004d07a 	srli	r2,r2,1
   40350:	e0bffe15 	stw	r2,-8(fp)
  unsigned char  bit;

  /*
   * Reflect the data about the center bit.
   */
  for (bit = 0; bit < nBits; ++bit)
   40354:	e0bffd03 	ldbu	r2,-12(fp)
   40358:	10800044 	addi	r2,r2,1
   4035c:	e0bffd05 	stb	r2,-12(fp)
   40360:	e0fffd03 	ldbu	r3,-12(fp)
   40364:	e0bfff03 	ldbu	r2,-4(fp)
   40368:	18bfeb36 	bltu	r3,r2,40318 <reflect+0x24>
    }

    data = (data >> 1);
  }

  return (reflection);
   4036c:	e0bffc17 	ldw	r2,-16(fp)

} /* reflect() */
   40370:	e037883a 	mov	sp,fp
   40374:	df000017 	ldw	fp,0(sp)
   40378:	dec00104 	addi	sp,sp,4
   4037c:	f800283a 	ret

00040380 <crcSlow>:
 * Returns:   The CRC of the message.
 *
 *********************************************************************/
crc
crcSlow(unsigned char const message[], int nBytes)
{
   40380:	defff904 	addi	sp,sp,-28
   40384:	dfc00615 	stw	ra,24(sp)
   40388:	df000515 	stw	fp,20(sp)
   4038c:	df000504 	addi	fp,sp,20
   40390:	e13ffe15 	stw	r4,-8(fp)
   40394:	e17fff15 	stw	r5,-4(fp)
    crc            remainder = INITIAL_REMAINDER;
   40398:	00bfffc4 	movi	r2,-1
   4039c:	e0bffb15 	stw	r2,-20(fp)


    /*
     * Perform modulo-2 division, a byte at a time.
     */
    for (byte = 0; byte < nBytes; ++byte)
   403a0:	e03ffc15 	stw	zero,-16(fp)
   403a4:	00002506 	br	4043c <crcSlow+0xbc>
    {
        /*
         * Bring the next byte into the remainder.
         */
        remainder ^= (REFLECT_DATA(message[byte]) << (WIDTH - 8));
   403a8:	e0bffc17 	ldw	r2,-16(fp)
   403ac:	e0fffe17 	ldw	r3,-8(fp)
   403b0:	1885883a 	add	r2,r3,r2
   403b4:	10800003 	ldbu	r2,0(r2)
   403b8:	10803fcc 	andi	r2,r2,255
   403bc:	1009883a 	mov	r4,r2
   403c0:	01400204 	movi	r5,8
   403c4:	00402f40 	call	402f4 <reflect>
   403c8:	10803fcc 	andi	r2,r2,255
   403cc:	1004963a 	slli	r2,r2,24
   403d0:	e0fffb17 	ldw	r3,-20(fp)
   403d4:	1884f03a 	xor	r2,r3,r2
   403d8:	e0bffb15 	stw	r2,-20(fp)

        /*
         * Perform modulo-2 division, a bit at a time.
         */
        for (bit = 8; bit > 0; --bit)
   403dc:	00800204 	movi	r2,8
   403e0:	e0bffd05 	stb	r2,-12(fp)
   403e4:	00001006 	br	40428 <crcSlow+0xa8>
        {
            /*
             * Try to divide the current data bit.
             */
            if (remainder & TOPBIT)
   403e8:	e0bffb17 	ldw	r2,-20(fp)
   403ec:	1000080e 	bge	r2,zero,40410 <crcSlow+0x90>
            {
                remainder = (remainder << 1) ^ POLYNOMIAL;
   403f0:	e0bffb17 	ldw	r2,-20(fp)
   403f4:	1085883a 	add	r2,r2,r2
   403f8:	1007883a 	mov	r3,r2
   403fc:	00813074 	movhi	r2,1217
   40400:	10876dc4 	addi	r2,r2,7607
   40404:	1884f03a 	xor	r2,r3,r2
   40408:	e0bffb15 	stw	r2,-20(fp)
   4040c:	00000306 	br	4041c <crcSlow+0x9c>
            }
            else
            {
                remainder = (remainder << 1);
   40410:	e0bffb17 	ldw	r2,-20(fp)
   40414:	1085883a 	add	r2,r2,r2
   40418:	e0bffb15 	stw	r2,-20(fp)
        remainder ^= (REFLECT_DATA(message[byte]) << (WIDTH - 8));

        /*
         * Perform modulo-2 division, a bit at a time.
         */
        for (bit = 8; bit > 0; --bit)
   4041c:	e0bffd03 	ldbu	r2,-12(fp)
   40420:	10bfffc4 	addi	r2,r2,-1
   40424:	e0bffd05 	stb	r2,-12(fp)
   40428:	e0bffd03 	ldbu	r2,-12(fp)
   4042c:	103fee1e 	bne	r2,zero,403e8 <crcSlow+0x68>


    /*
     * Perform modulo-2 division, a byte at a time.
     */
    for (byte = 0; byte < nBytes; ++byte)
   40430:	e0bffc17 	ldw	r2,-16(fp)
   40434:	10800044 	addi	r2,r2,1
   40438:	e0bffc15 	stw	r2,-16(fp)
   4043c:	e0fffc17 	ldw	r3,-16(fp)
   40440:	e0bfff17 	ldw	r2,-4(fp)
   40444:	18bfd816 	blt	r3,r2,403a8 <crcSlow+0x28>
    }

    /*
     * The final remainder is the CRC result.
     */
    return (REFLECT_REMAINDER(remainder) ^ FINAL_XOR_VALUE);
   40448:	e13ffb17 	ldw	r4,-20(fp)
   4044c:	01400804 	movi	r5,32
   40450:	00402f40 	call	402f4 <reflect>
   40454:	0084303a 	nor	r2,zero,r2

}   /* crcSlow() */
   40458:	e037883a 	mov	sp,fp
   4045c:	dfc00117 	ldw	ra,4(sp)
   40460:	df000017 	ldw	fp,0(sp)
   40464:	dec00204 	addi	sp,sp,8
   40468:	f800283a 	ret

0004046c <crcInit>:
 * Returns:   None defined.
 *
 *********************************************************************/
void
crcInit(void)
{
   4046c:	defffc04 	addi	sp,sp,-16
   40470:	df000315 	stw	fp,12(sp)
   40474:	df000304 	addi	fp,sp,12


    /*
     * Compute the remainder of each possible dividend.
     */
    for (dividend = 0; dividend < 256; ++dividend)
   40478:	e03ffe15 	stw	zero,-8(fp)
   4047c:	00002306 	br	4050c <crcInit+0xa0>
    {
        /*
         * Start with the dividend followed by zeros.
         */
        remainder = dividend << (WIDTH - 8);
   40480:	e0bffe17 	ldw	r2,-8(fp)
   40484:	1004963a 	slli	r2,r2,24
   40488:	e0bffd15 	stw	r2,-12(fp)

        /*
         * Perform modulo-2 division, a bit at a time.
         */
        for (bit = 8; bit > 0; --bit)
   4048c:	00800204 	movi	r2,8
   40490:	e0bfff05 	stb	r2,-4(fp)
   40494:	00001006 	br	404d8 <crcInit+0x6c>
        {
            /*
             * Try to divide the current data bit.
             */     
            if (remainder & TOPBIT)
   40498:	e0bffd17 	ldw	r2,-12(fp)
   4049c:	1000080e 	bge	r2,zero,404c0 <crcInit+0x54>
            {
                remainder = (remainder << 1) ^ POLYNOMIAL;
   404a0:	e0bffd17 	ldw	r2,-12(fp)
   404a4:	1085883a 	add	r2,r2,r2
   404a8:	1007883a 	mov	r3,r2
   404ac:	00813074 	movhi	r2,1217
   404b0:	10876dc4 	addi	r2,r2,7607
   404b4:	1884f03a 	xor	r2,r3,r2
   404b8:	e0bffd15 	stw	r2,-12(fp)
   404bc:	00000306 	br	404cc <crcInit+0x60>
            }
            else
            {
                remainder = (remainder << 1);
   404c0:	e0bffd17 	ldw	r2,-12(fp)
   404c4:	1085883a 	add	r2,r2,r2
   404c8:	e0bffd15 	stw	r2,-12(fp)
        remainder = dividend << (WIDTH - 8);

        /*
         * Perform modulo-2 division, a bit at a time.
         */
        for (bit = 8; bit > 0; --bit)
   404cc:	e0bfff03 	ldbu	r2,-4(fp)
   404d0:	10bfffc4 	addi	r2,r2,-1
   404d4:	e0bfff05 	stb	r2,-4(fp)
   404d8:	e0bfff03 	ldbu	r2,-4(fp)
   404dc:	103fee1e 	bne	r2,zero,40498 <crcInit+0x2c>
        }

        /*
         * Store the result into the table.
         */
        crcTable[dividend] = remainder;
   404e0:	00c00174 	movhi	r3,5
   404e4:	18c2ff04 	addi	r3,r3,3068
   404e8:	e0bffe17 	ldw	r2,-8(fp)
   404ec:	1085883a 	add	r2,r2,r2
   404f0:	1085883a 	add	r2,r2,r2
   404f4:	1885883a 	add	r2,r3,r2
   404f8:	e0fffd17 	ldw	r3,-12(fp)
   404fc:	10c00015 	stw	r3,0(r2)


    /*
     * Compute the remainder of each possible dividend.
     */
    for (dividend = 0; dividend < 256; ++dividend)
   40500:	e0bffe17 	ldw	r2,-8(fp)
   40504:	10800044 	addi	r2,r2,1
   40508:	e0bffe15 	stw	r2,-8(fp)
   4050c:	e0bffe17 	ldw	r2,-8(fp)
   40510:	10804010 	cmplti	r2,r2,256
   40514:	103fda1e 	bne	r2,zero,40480 <crcInit+0x14>
         * Store the result into the table.
         */
        crcTable[dividend] = remainder;
    }

}   /* crcInit() */
   40518:	e037883a 	mov	sp,fp
   4051c:	df000017 	ldw	fp,0(sp)
   40520:	dec00104 	addi	sp,sp,4
   40524:	f800283a 	ret

00040528 <crcFast>:
 * Returns:   The CRC of the message.
 *
 *********************************************************************/
crc
crcFast(unsigned char const message[], int nBytes)
{
   40528:	defff904 	addi	sp,sp,-28
   4052c:	dfc00615 	stw	ra,24(sp)
   40530:	df000515 	stw	fp,20(sp)
   40534:	df000504 	addi	fp,sp,20
   40538:	e13ffe15 	stw	r4,-8(fp)
   4053c:	e17fff15 	stw	r5,-4(fp)
    crc            remainder = INITIAL_REMAINDER;
   40540:	00bfffc4 	movi	r2,-1
   40544:	e0bffb15 	stw	r2,-20(fp)


    /*
     * Divide the message by the polynomial, a byte at a time.
     */
    for (byte = 0; byte < nBytes; ++byte)
   40548:	e03ffc15 	stw	zero,-16(fp)
   4054c:	00001b06 	br	405bc <crcFast+0x94>
    {
        data = REFLECT_DATA(message[byte]) ^ (remainder >> (WIDTH - 8));
   40550:	e0bffc17 	ldw	r2,-16(fp)
   40554:	e0fffe17 	ldw	r3,-8(fp)
   40558:	1885883a 	add	r2,r3,r2
   4055c:	10800003 	ldbu	r2,0(r2)
   40560:	10803fcc 	andi	r2,r2,255
   40564:	1009883a 	mov	r4,r2
   40568:	01400204 	movi	r5,8
   4056c:	00402f40 	call	402f4 <reflect>
   40570:	1007883a 	mov	r3,r2
   40574:	e0bffb17 	ldw	r2,-20(fp)
   40578:	1004d63a 	srli	r2,r2,24
   4057c:	1884f03a 	xor	r2,r3,r2
   40580:	e0bffd05 	stb	r2,-12(fp)
      remainder = crcTable[data] ^ (remainder << 8);
   40584:	e0bffd03 	ldbu	r2,-12(fp)
   40588:	00c00174 	movhi	r3,5
   4058c:	18c2ff04 	addi	r3,r3,3068
   40590:	1085883a 	add	r2,r2,r2
   40594:	1085883a 	add	r2,r2,r2
   40598:	1885883a 	add	r2,r3,r2
   4059c:	10c00017 	ldw	r3,0(r2)
   405a0:	e0bffb17 	ldw	r2,-20(fp)
   405a4:	1004923a 	slli	r2,r2,8
   405a8:	1884f03a 	xor	r2,r3,r2
   405ac:	e0bffb15 	stw	r2,-20(fp)


    /*
     * Divide the message by the polynomial, a byte at a time.
     */
    for (byte = 0; byte < nBytes; ++byte)
   405b0:	e0bffc17 	ldw	r2,-16(fp)
   405b4:	10800044 	addi	r2,r2,1
   405b8:	e0bffc15 	stw	r2,-16(fp)
   405bc:	e0fffc17 	ldw	r3,-16(fp)
   405c0:	e0bfff17 	ldw	r2,-4(fp)
   405c4:	18bfe216 	blt	r3,r2,40550 <crcFast+0x28>
    }

    /*
     * The final remainder is the CRC.
     */
    return (REFLECT_REMAINDER(remainder) ^ FINAL_XOR_VALUE);
   405c8:	e13ffb17 	ldw	r4,-20(fp)
   405cc:	01400804 	movi	r5,32
   405d0:	00402f40 	call	402f4 <reflect>
   405d4:	0084303a 	nor	r2,zero,r2

}   /* crcFast() */
   405d8:	e037883a 	mov	sp,fp
   405dc:	dfc00117 	ldw	ra,4(sp)
   405e0:	df000017 	ldw	fp,0(sp)
   405e4:	dec00204 	addi	sp,sp,8
   405e8:	f800283a 	ret

000405ec <main>:




int main()
{
   405ec:	deff9404 	addi	sp,sp,-432
   405f0:	dfc06b15 	stw	ra,428(sp)
   405f4:	df006a15 	stw	fp,424(sp)
   405f8:	dc006915 	stw	r16,420(sp)
   405fc:	df006904 	addi	fp,sp,420
  unsigned long buffer_counter, data_counter;
  unsigned long sw_slow_results[NUMBER_OF_BUFFERS];
  unsigned long sw_fast_results[NUMBER_OF_BUFFERS];
  unsigned long ci_results[NUMBER_OF_BUFFERS];
  unsigned char random_data = 0x5A;
   40600:	00801684 	movi	r2,90
   40604:	e0bf9905 	stb	r2,-412(fp)
  alt_u32 sw_slow_timeA, sw_slow_timeB;
  alt_u32 sw_fast_timeA, sw_fast_timeB;
  alt_u32 ci_timeA, ci_timeB;


  printf("+-----------------------------------------------------------+\n");
   40608:	01000174 	movhi	r4,5
   4060c:	21336404 	addi	r4,r4,-12912
   40610:	0040f4c0 	call	40f4c <puts>
  printf("| Comparison between software and custom instruction CRC32  |\n");
   40614:	01000174 	movhi	r4,5
   40618:	21337404 	addi	r4,r4,-12848
   4061c:	0040f4c0 	call	40f4c <puts>
  printf("+-----------------------------------------------------------+\n\n\n");
   40620:	01000174 	movhi	r4,5
   40624:	21338404 	addi	r4,r4,-12784
   40628:	0040f4c0 	call	40f4c <puts>
  
  printf("System specification\n");
   4062c:	01000174 	movhi	r4,5
   40630:	21339404 	addi	r4,r4,-12720
   40634:	0040f4c0 	call	40f4c <puts>
  printf("--------------------\n");
   40638:	01000174 	movhi	r4,5
   4063c:	21339a04 	addi	r4,r4,-12696
   40640:	0040f4c0 	call	40f4c <puts>

  printf("System clock speed = %lu MHz\n", (unsigned long)ALT_CPU_FREQ /(unsigned long)1000000);
   40644:	01000174 	movhi	r4,5
   40648:	2133a004 	addi	r4,r4,-12672
   4064c:	01400c84 	movi	r5,50
   40650:	0040e8c0 	call	40e8c <printf>
  printf("Number of buffer locations = %d\n", NUMBER_OF_BUFFERS);
   40654:	01000174 	movhi	r4,5
   40658:	2133a804 	addi	r4,r4,-12640
   4065c:	01400804 	movi	r5,32
   40660:	0040e8c0 	call	40e8c <printf>
  printf("Size of each buffer = %d bytes\n\n\n", BUFFER_SIZE);
   40664:	01000174 	movhi	r4,5
   40668:	2133b104 	addi	r4,r4,-12604
   4066c:	01404004 	movi	r5,256
   40670:	0040e8c0 	call	40e8c <printf>


  /* Initializing the data buffers */
  printf("Initializing all of the buffers with pseudo-random data\n");
   40674:	01000174 	movhi	r4,5
   40678:	2133ba04 	addi	r4,r4,-12568
   4067c:	0040f4c0 	call	40f4c <puts>
  printf("-------------------------------------------------------\n");
   40680:	01000174 	movhi	r4,5
   40684:	2133c804 	addi	r4,r4,-12512
   40688:	0040f4c0 	call	40f4c <puts>
  for(buffer_counter = 0; buffer_counter < NUMBER_OF_BUFFERS; buffer_counter++)
   4068c:	e03f9715 	stw	zero,-420(fp)
   40690:	00001d06 	br	40708 <main+0x11c>
  {
    for(data_counter = 0; data_counter < BUFFER_SIZE; data_counter++)
   40694:	e03f9815 	stw	zero,-416(fp)
   40698:	00001506 	br	406f0 <main+0x104>
    {
      data_buffer_region[buffer_counter][data_counter] = random_data;
   4069c:	00c00174 	movhi	r3,5
   406a0:	18c3ff04 	addi	r3,r3,4092
   406a4:	e0bf9717 	ldw	r2,-420(fp)
   406a8:	1008923a 	slli	r4,r2,8
   406ac:	e0bf9817 	ldw	r2,-416(fp)
   406b0:	2085883a 	add	r2,r4,r2
   406b4:	1885883a 	add	r2,r3,r2
   406b8:	e0ff9903 	ldbu	r3,-412(fp)
   406bc:	10c00005 	stb	r3,0(r2)
      random_data = (random_data >> 4) + (random_data << 4) + (data_counter & 0xFF);
   406c0:	e0bf9903 	ldbu	r2,-412(fp)
   406c4:	10c03fcc 	andi	r3,r2,255
   406c8:	1806d13a 	srli	r3,r3,4
   406cc:	1004913a 	slli	r2,r2,4
   406d0:	1884b03a 	or	r2,r3,r2
   406d4:	1007883a 	mov	r3,r2
   406d8:	e0bf9817 	ldw	r2,-416(fp)
   406dc:	1885883a 	add	r2,r3,r2
   406e0:	e0bf9905 	stb	r2,-412(fp)
  /* Initializing the data buffers */
  printf("Initializing all of the buffers with pseudo-random data\n");
  printf("-------------------------------------------------------\n");
  for(buffer_counter = 0; buffer_counter < NUMBER_OF_BUFFERS; buffer_counter++)
  {
    for(data_counter = 0; data_counter < BUFFER_SIZE; data_counter++)
   406e4:	e0bf9817 	ldw	r2,-416(fp)
   406e8:	10800044 	addi	r2,r2,1
   406ec:	e0bf9815 	stw	r2,-416(fp)
   406f0:	e0bf9817 	ldw	r2,-416(fp)
   406f4:	10804030 	cmpltui	r2,r2,256
   406f8:	103fe81e 	bne	r2,zero,4069c <main+0xb0>


  /* Initializing the data buffers */
  printf("Initializing all of the buffers with pseudo-random data\n");
  printf("-------------------------------------------------------\n");
  for(buffer_counter = 0; buffer_counter < NUMBER_OF_BUFFERS; buffer_counter++)
   406fc:	e0bf9717 	ldw	r2,-420(fp)
   40700:	10800044 	addi	r2,r2,1
   40704:	e0bf9715 	stw	r2,-420(fp)
   40708:	e0bf9717 	ldw	r2,-420(fp)
   4070c:	10800830 	cmpltui	r2,r2,32
   40710:	103fe01e 	bne	r2,zero,40694 <main+0xa8>
    {
      data_buffer_region[buffer_counter][data_counter] = random_data;
      random_data = (random_data >> 4) + (random_data << 4) + (data_counter & 0xFF);
    }
  }
  printf("Initialization completed\n\n\n");
   40714:	01000174 	movhi	r4,5
   40718:	2133d604 	addi	r4,r4,-12456
   4071c:	0040f4c0 	call	40f4c <puts>


  if(alt_timestamp_start() < 0) // starts the timestamp timer
   40720:	004bbe40 	call	4bbe4 <alt_timestamp_start>
   40724:	1000050e 	bge	r2,zero,4073c <main+0x150>
  {
    printf("Please add the high resolution timer to the timestamp timer setting in the syslib properties page.\n");
   40728:	01000174 	movhi	r4,5
   4072c:	2133dd04 	addi	r4,r4,-12428
   40730:	0040f4c0 	call	40f4c <puts>
    exit(1);
   40734:	01000044 	movi	r4,1
   40738:	0040e280 	call	40e28 <exit>
  }


  /* Slow software CRC based on a modulo 2 division implementation */
  printf("Running the software CRC\n");
   4073c:	01000174 	movhi	r4,5
   40740:	2133f604 	addi	r4,r4,-12328
   40744:	0040f4c0 	call	40f4c <puts>
  printf("------------------------\n");
   40748:	01000174 	movhi	r4,5
   4074c:	2133fd04 	addi	r4,r4,-12300
   40750:	0040f4c0 	call	40f4c <puts>
  sw_slow_timeA = alt_timestamp();
   40754:	004bc6c0 	call	4bc6c <alt_timestamp>
   40758:	e0bf9a15 	stw	r2,-408(fp)

  for(buffer_counter = 0; buffer_counter < NUMBER_OF_BUFFERS; buffer_counter++)
   4075c:	e03f9715 	stw	zero,-420(fp)
   40760:	00001306 	br	407b0 <main+0x1c4>
  {
    sw_slow_results[buffer_counter] = crcSlow(data_buffer_region[buffer_counter], BUFFER_SIZE);
   40764:	e0bf9717 	ldw	r2,-420(fp)
   40768:	1006923a 	slli	r3,r2,8
   4076c:	00800174 	movhi	r2,5
   40770:	1083ff04 	addi	r2,r2,4092
   40774:	1885883a 	add	r2,r3,r2
   40778:	1009883a 	mov	r4,r2
   4077c:	01404004 	movi	r5,256
   40780:	00403800 	call	40380 <crcSlow>
   40784:	1007883a 	mov	r3,r2
   40788:	e0bf9717 	ldw	r2,-420(fp)
   4078c:	1085883a 	add	r2,r2,r2
   40790:	1085883a 	add	r2,r2,r2
   40794:	e13f9704 	addi	r4,fp,-420
   40798:	2085883a 	add	r2,r4,r2
   4079c:	10800904 	addi	r2,r2,36
   407a0:	10c00015 	stw	r3,0(r2)
  /* Slow software CRC based on a modulo 2 division implementation */
  printf("Running the software CRC\n");
  printf("------------------------\n");
  sw_slow_timeA = alt_timestamp();

  for(buffer_counter = 0; buffer_counter < NUMBER_OF_BUFFERS; buffer_counter++)
   407a4:	e0bf9717 	ldw	r2,-420(fp)
   407a8:	10800044 	addi	r2,r2,1
   407ac:	e0bf9715 	stw	r2,-420(fp)
   407b0:	e0bf9717 	ldw	r2,-420(fp)
   407b4:	10800830 	cmpltui	r2,r2,32
   407b8:	103fea1e 	bne	r2,zero,40764 <main+0x178>
  {
    sw_slow_results[buffer_counter] = crcSlow(data_buffer_region[buffer_counter], BUFFER_SIZE);
  }
 sw_slow_timeB = alt_timestamp();
   407bc:	004bc6c0 	call	4bc6c <alt_timestamp>
   407c0:	e0bf9b15 	stw	r2,-404(fp)

  printf("Completed\n\n\n");
   407c4:	01000174 	movhi	r4,5
   407c8:	21340404 	addi	r4,r4,-12272
   407cc:	0040f4c0 	call	40f4c <puts>


  /* Fast software CRC based on a lookup table implementation */
  crcInit();
   407d0:	004046c0 	call	4046c <crcInit>
  printf("Running the optimized software CRC\n");
   407d4:	01000174 	movhi	r4,5
   407d8:	21340704 	addi	r4,r4,-12260
   407dc:	0040f4c0 	call	40f4c <puts>
  printf("----------------------------------\n");
   407e0:	01000174 	movhi	r4,5
   407e4:	21341004 	addi	r4,r4,-12224
   407e8:	0040f4c0 	call	40f4c <puts>
  sw_fast_timeA = alt_timestamp();
   407ec:	004bc6c0 	call	4bc6c <alt_timestamp>
   407f0:	e0bf9c15 	stw	r2,-400(fp)
  for(buffer_counter = 0; buffer_counter < NUMBER_OF_BUFFERS; buffer_counter++)
   407f4:	e03f9715 	stw	zero,-420(fp)
   407f8:	00001306 	br	40848 <main+0x25c>
  {
    sw_fast_results[buffer_counter] = crcFast(data_buffer_region[buffer_counter], BUFFER_SIZE);
   407fc:	e0bf9717 	ldw	r2,-420(fp)
   40800:	1006923a 	slli	r3,r2,8
   40804:	00800174 	movhi	r2,5
   40808:	1083ff04 	addi	r2,r2,4092
   4080c:	1885883a 	add	r2,r3,r2
   40810:	1009883a 	mov	r4,r2
   40814:	01404004 	movi	r5,256
   40818:	00405280 	call	40528 <crcFast>
   4081c:	1007883a 	mov	r3,r2
   40820:	e0bf9717 	ldw	r2,-420(fp)
   40824:	1085883a 	add	r2,r2,r2
   40828:	1085883a 	add	r2,r2,r2
   4082c:	e17f9704 	addi	r5,fp,-420
   40830:	2885883a 	add	r2,r5,r2
   40834:	10802904 	addi	r2,r2,164
   40838:	10c00015 	stw	r3,0(r2)
  /* Fast software CRC based on a lookup table implementation */
  crcInit();
  printf("Running the optimized software CRC\n");
  printf("----------------------------------\n");
  sw_fast_timeA = alt_timestamp();
  for(buffer_counter = 0; buffer_counter < NUMBER_OF_BUFFERS; buffer_counter++)
   4083c:	e0bf9717 	ldw	r2,-420(fp)
   40840:	10800044 	addi	r2,r2,1
   40844:	e0bf9715 	stw	r2,-420(fp)
   40848:	e0bf9717 	ldw	r2,-420(fp)
   4084c:	10800830 	cmpltui	r2,r2,32
   40850:	103fea1e 	bne	r2,zero,407fc <main+0x210>
  {
    sw_fast_results[buffer_counter] = crcFast(data_buffer_region[buffer_counter], BUFFER_SIZE);
  }
 sw_fast_timeB = alt_timestamp();
   40854:	004bc6c0 	call	4bc6c <alt_timestamp>
   40858:	e0bf9d15 	stw	r2,-396(fp)
  printf("Completed\n\n\n");
   4085c:	01000174 	movhi	r4,5
   40860:	21340404 	addi	r4,r4,-12272
   40864:	0040f4c0 	call	40f4c <puts>


  /* Custom instruction CRC */
  printf("Running the custom instruction CRC\n");
   40868:	01000174 	movhi	r4,5
   4086c:	21341904 	addi	r4,r4,-12188
   40870:	0040f4c0 	call	40f4c <puts>
  printf("----------------------------------\n");
   40874:	01000174 	movhi	r4,5
   40878:	21341004 	addi	r4,r4,-12224
   4087c:	0040f4c0 	call	40f4c <puts>
 ci_timeA = alt_timestamp();
   40880:	004bc6c0 	call	4bc6c <alt_timestamp>
   40884:	e0bf9e15 	stw	r2,-392(fp)
  for(buffer_counter = 0; buffer_counter < NUMBER_OF_BUFFERS; buffer_counter++)
   40888:	e03f9715 	stw	zero,-420(fp)
   4088c:	00001306 	br	408dc <main+0x2f0>
  {
    ci_results[buffer_counter] = crcCI(data_buffer_region[buffer_counter], BUFFER_SIZE);
   40890:	e0bf9717 	ldw	r2,-420(fp)
   40894:	1006923a 	slli	r3,r2,8
   40898:	00800174 	movhi	r2,5
   4089c:	1083ff04 	addi	r2,r2,4092
   408a0:	1885883a 	add	r2,r3,r2
   408a4:	1009883a 	mov	r4,r2
   408a8:	01404004 	movi	r5,256
   408ac:	00401f40 	call	401f4 <crcCI>
   408b0:	1007883a 	mov	r3,r2
   408b4:	e0bf9717 	ldw	r2,-420(fp)
   408b8:	1085883a 	add	r2,r2,r2
   408bc:	1085883a 	add	r2,r2,r2
   408c0:	e13f9704 	addi	r4,fp,-420
   408c4:	2085883a 	add	r2,r4,r2
   408c8:	10804904 	addi	r2,r2,292
   408cc:	10c00015 	stw	r3,0(r2)

  /* Custom instruction CRC */
  printf("Running the custom instruction CRC\n");
  printf("----------------------------------\n");
 ci_timeA = alt_timestamp();
  for(buffer_counter = 0; buffer_counter < NUMBER_OF_BUFFERS; buffer_counter++)
   408d0:	e0bf9717 	ldw	r2,-420(fp)
   408d4:	10800044 	addi	r2,r2,1
   408d8:	e0bf9715 	stw	r2,-420(fp)
   408dc:	e0bf9717 	ldw	r2,-420(fp)
   408e0:	10800830 	cmpltui	r2,r2,32
   408e4:	103fea1e 	bne	r2,zero,40890 <main+0x2a4>
  {
    ci_results[buffer_counter] = crcCI(data_buffer_region[buffer_counter], BUFFER_SIZE);
  }
  ci_timeB = alt_timestamp();
   408e8:	004bc6c0 	call	4bc6c <alt_timestamp>
   408ec:	e0bf9f15 	stw	r2,-388(fp)
  printf("Completed\n\n\n");
   408f0:	01000174 	movhi	r4,5
   408f4:	21340404 	addi	r4,r4,-12272
   408f8:	0040f4c0 	call	40f4c <puts>

  /* Validation of results */  
  printf("Validating the CRC results from all implementations\n");
   408fc:	01000174 	movhi	r4,5
   40900:	21342204 	addi	r4,r4,-12152
   40904:	0040f4c0 	call	40f4c <puts>
  printf("----------------------------------------------------\n");
   40908:	01000174 	movhi	r4,5
   4090c:	21342f04 	addi	r4,r4,-12100
   40910:	0040f4c0 	call	40f4c <puts>
  for(buffer_counter = 0; buffer_counter < NUMBER_OF_BUFFERS; buffer_counter++)
   40914:	e03f9715 	stw	zero,-420(fp)
   40918:	00004106 	br	40a20 <main+0x434>
  {
    /* Test every combination of results to make sure they are consistant */
    if((sw_slow_results[buffer_counter] != ci_results[buffer_counter]) | 
   4091c:	e0bf9717 	ldw	r2,-420(fp)
   40920:	1085883a 	add	r2,r2,r2
   40924:	1085883a 	add	r2,r2,r2
   40928:	e17f9704 	addi	r5,fp,-420
   4092c:	2885883a 	add	r2,r5,r2
   40930:	10800904 	addi	r2,r2,36
   40934:	10c00017 	ldw	r3,0(r2)
   40938:	e0bf9717 	ldw	r2,-420(fp)
   4093c:	1085883a 	add	r2,r2,r2
   40940:	1085883a 	add	r2,r2,r2
   40944:	e13f9704 	addi	r4,fp,-420
   40948:	2085883a 	add	r2,r4,r2
   4094c:	10804904 	addi	r2,r2,292
   40950:	10800017 	ldw	r2,0(r2)
   40954:	1884c03a 	cmpne	r2,r3,r2
   40958:	1007883a 	mov	r3,r2
       (sw_fast_results[buffer_counter] != ci_results[buffer_counter]))
   4095c:	e0bf9717 	ldw	r2,-420(fp)
   40960:	1085883a 	add	r2,r2,r2
   40964:	1085883a 	add	r2,r2,r2
   40968:	e17f9704 	addi	r5,fp,-420
   4096c:	2885883a 	add	r2,r5,r2
   40970:	10802904 	addi	r2,r2,164
   40974:	11000017 	ldw	r4,0(r2)
   40978:	e0bf9717 	ldw	r2,-420(fp)
   4097c:	1085883a 	add	r2,r2,r2
   40980:	1085883a 	add	r2,r2,r2
   40984:	e17f9704 	addi	r5,fp,-420
   40988:	2885883a 	add	r2,r5,r2
   4098c:	10804904 	addi	r2,r2,292
   40990:	10800017 	ldw	r2,0(r2)
  printf("Validating the CRC results from all implementations\n");
  printf("----------------------------------------------------\n");
  for(buffer_counter = 0; buffer_counter < NUMBER_OF_BUFFERS; buffer_counter++)
  {
    /* Test every combination of results to make sure they are consistant */
    if((sw_slow_results[buffer_counter] != ci_results[buffer_counter]) | 
   40994:	2084c03a 	cmpne	r2,r4,r2
   40998:	1884b03a 	or	r2,r3,r2
   4099c:	10803fcc 	andi	r2,r2,255
   409a0:	10001c26 	beq	r2,zero,40a14 <main+0x428>
       (sw_fast_results[buffer_counter] != ci_results[buffer_counter]))
    {
      printf("FAILURE!  Software CRC = 0x%lx, Optimized Software CRC = 0x%lx, Custom Instruction CRC = 0x%lx,\n",
   409a4:	e0bf9717 	ldw	r2,-420(fp)
   409a8:	1085883a 	add	r2,r2,r2
   409ac:	1085883a 	add	r2,r2,r2
   409b0:	e0ff9704 	addi	r3,fp,-420
   409b4:	1885883a 	add	r2,r3,r2
   409b8:	10800904 	addi	r2,r2,36
   409bc:	11400017 	ldw	r5,0(r2)
   409c0:	e0bf9717 	ldw	r2,-420(fp)
   409c4:	1085883a 	add	r2,r2,r2
   409c8:	1085883a 	add	r2,r2,r2
   409cc:	e13f9704 	addi	r4,fp,-420
   409d0:	2085883a 	add	r2,r4,r2
   409d4:	10802904 	addi	r2,r2,164
   409d8:	10c00017 	ldw	r3,0(r2)
   409dc:	e0bf9717 	ldw	r2,-420(fp)
   409e0:	1085883a 	add	r2,r2,r2
   409e4:	1085883a 	add	r2,r2,r2
   409e8:	e13f9704 	addi	r4,fp,-420
   409ec:	2085883a 	add	r2,r4,r2
   409f0:	10804904 	addi	r2,r2,292
   409f4:	10800017 	ldw	r2,0(r2)
   409f8:	01000174 	movhi	r4,5
   409fc:	21343d04 	addi	r4,r4,-12044
   40a00:	180d883a 	mov	r6,r3
   40a04:	100f883a 	mov	r7,r2
   40a08:	0040e8c0 	call	40e8c <printf>
      sw_slow_results[buffer_counter], sw_fast_results[buffer_counter], ci_results[buffer_counter]);       
      exit(1);     
   40a0c:	01000044 	movi	r4,1
   40a10:	0040e280 	call	40e28 <exit>
  printf("Completed\n\n\n");

  /* Validation of results */  
  printf("Validating the CRC results from all implementations\n");
  printf("----------------------------------------------------\n");
  for(buffer_counter = 0; buffer_counter < NUMBER_OF_BUFFERS; buffer_counter++)
   40a14:	e0bf9717 	ldw	r2,-420(fp)
   40a18:	10800044 	addi	r2,r2,1
   40a1c:	e0bf9715 	stw	r2,-420(fp)
   40a20:	e0bf9717 	ldw	r2,-420(fp)
   40a24:	10800830 	cmpltui	r2,r2,32
   40a28:	103fbc1e 	bne	r2,zero,4091c <main+0x330>
      printf("FAILURE!  Software CRC = 0x%lx, Optimized Software CRC = 0x%lx, Custom Instruction CRC = 0x%lx,\n",
      sw_slow_results[buffer_counter], sw_fast_results[buffer_counter], ci_results[buffer_counter]);       
      exit(1);     
    }
  }
  printf("All CRC implementations produced the same results\n\n\n");
   40a2c:	01000174 	movhi	r4,5
   40a30:	21345604 	addi	r4,r4,-11944
   40a34:	0040f4c0 	call	40f4c <puts>


  // Report processing times
  printf("Processing time for each implementation\n");
   40a38:	01000174 	movhi	r4,5
   40a3c:	21346304 	addi	r4,r4,-11892
   40a40:	0040f4c0 	call	40f4c <puts>
  printf("---------------------------------------\n");
   40a44:	01000174 	movhi	r4,5
   40a48:	21346d04 	addi	r4,r4,-11852
   40a4c:	0040f4c0 	call	40f4c <puts>
  printf("Software CRC = %.2lu ms\n", 1000*((unsigned long)(sw_slow_timeB-sw_slow_timeA))/((unsigned long)alt_timestamp_freq()));
   40a50:	e0ff9b17 	ldw	r3,-404(fp)
   40a54:	e0bf9a17 	ldw	r2,-408(fp)
   40a58:	1885c83a 	sub	r2,r3,r2
   40a5c:	1009883a 	mov	r4,r2
   40a60:	0140fa04 	movi	r5,1000
   40a64:	0040e000 	call	40e00 <__mulsi3>
   40a68:	1021883a 	mov	r16,r2
   40a6c:	004bcfc0 	call	4bcfc <alt_timestamp_freq>
   40a70:	8009883a 	mov	r4,r16
   40a74:	100b883a 	mov	r5,r2
   40a78:	0040df00 	call	40df0 <__udivsi3>
   40a7c:	01000174 	movhi	r4,5
   40a80:	21347704 	addi	r4,r4,-11812
   40a84:	100b883a 	mov	r5,r2
   40a88:	0040e8c0 	call	40e8c <printf>
  printf("Optimized software CRC = %.2lu ms\n", 1000*((unsigned long)(sw_fast_timeB-sw_fast_timeA))/((unsigned long)alt_timestamp_freq()));
   40a8c:	e0ff9d17 	ldw	r3,-396(fp)
   40a90:	e0bf9c17 	ldw	r2,-400(fp)
   40a94:	1885c83a 	sub	r2,r3,r2
   40a98:	1009883a 	mov	r4,r2
   40a9c:	0140fa04 	movi	r5,1000
   40aa0:	0040e000 	call	40e00 <__mulsi3>
   40aa4:	1021883a 	mov	r16,r2
   40aa8:	004bcfc0 	call	4bcfc <alt_timestamp_freq>
   40aac:	8009883a 	mov	r4,r16
   40ab0:	100b883a 	mov	r5,r2
   40ab4:	0040df00 	call	40df0 <__udivsi3>
   40ab8:	01000174 	movhi	r4,5
   40abc:	21347e04 	addi	r4,r4,-11784
   40ac0:	100b883a 	mov	r5,r2
   40ac4:	0040e8c0 	call	40e8c <printf>
  printf("Custom instruction CRC = %.2lu ms\n\n\n", 1000*((unsigned long)(ci_timeB-ci_timeA))/((unsigned long)alt_timestamp_freq()));
   40ac8:	e0ff9f17 	ldw	r3,-388(fp)
   40acc:	e0bf9e17 	ldw	r2,-392(fp)
   40ad0:	1885c83a 	sub	r2,r3,r2
   40ad4:	1009883a 	mov	r4,r2
   40ad8:	0140fa04 	movi	r5,1000
   40adc:	0040e000 	call	40e00 <__mulsi3>
   40ae0:	1021883a 	mov	r16,r2
   40ae4:	004bcfc0 	call	4bcfc <alt_timestamp_freq>
   40ae8:	8009883a 	mov	r4,r16
   40aec:	100b883a 	mov	r5,r2
   40af0:	0040df00 	call	40df0 <__udivsi3>
   40af4:	01000174 	movhi	r4,5
   40af8:	21348704 	addi	r4,r4,-11748
   40afc:	100b883a 	mov	r5,r2
   40b00:	0040e8c0 	call	40e8c <printf>

  printf("Processing throughput for each implementation\n"); // throughput = total bits / (time(s) * 1000000)
   40b04:	01000174 	movhi	r4,5
   40b08:	21349104 	addi	r4,r4,-11708
   40b0c:	0040f4c0 	call	40f4c <puts>
  printf("---------------------------------------------\n");
   40b10:	01000174 	movhi	r4,5
   40b14:	21349d04 	addi	r4,r4,-11660
   40b18:	0040f4c0 	call	40f4c <puts>
  printf("Software CRC = %.2lu Mbps\n", (8 * NUMBER_OF_BUFFERS * BUFFER_SIZE)/(1000000*(unsigned long)(sw_slow_timeB-sw_slow_timeA)/((unsigned long)alt_timestamp_freq())));
   40b1c:	e0ff9b17 	ldw	r3,-404(fp)
   40b20:	e0bf9a17 	ldw	r2,-408(fp)
   40b24:	1885c83a 	sub	r2,r3,r2
   40b28:	1009883a 	mov	r4,r2
   40b2c:	014003f4 	movhi	r5,15
   40b30:	29509004 	addi	r5,r5,16960
   40b34:	0040e000 	call	40e00 <__mulsi3>
   40b38:	1021883a 	mov	r16,r2
   40b3c:	004bcfc0 	call	4bcfc <alt_timestamp_freq>
   40b40:	8009883a 	mov	r4,r16
   40b44:	100b883a 	mov	r5,r2
   40b48:	0040df00 	call	40df0 <__udivsi3>
   40b4c:	01000074 	movhi	r4,1
   40b50:	100b883a 	mov	r5,r2
   40b54:	0040df00 	call	40df0 <__udivsi3>
   40b58:	01000174 	movhi	r4,5
   40b5c:	2134a904 	addi	r4,r4,-11612
   40b60:	100b883a 	mov	r5,r2
   40b64:	0040e8c0 	call	40e8c <printf>
  printf("Optimized software CRC = %.2lu Mbps\n", (8 * NUMBER_OF_BUFFERS * BUFFER_SIZE)/(1000000*(unsigned long)(sw_fast_timeB-sw_fast_timeA)/((unsigned long)alt_timestamp_freq())));
   40b68:	e0ff9d17 	ldw	r3,-396(fp)
   40b6c:	e0bf9c17 	ldw	r2,-400(fp)
   40b70:	1885c83a 	sub	r2,r3,r2
   40b74:	1009883a 	mov	r4,r2
   40b78:	014003f4 	movhi	r5,15
   40b7c:	29509004 	addi	r5,r5,16960
   40b80:	0040e000 	call	40e00 <__mulsi3>
   40b84:	1021883a 	mov	r16,r2
   40b88:	004bcfc0 	call	4bcfc <alt_timestamp_freq>
   40b8c:	8009883a 	mov	r4,r16
   40b90:	100b883a 	mov	r5,r2
   40b94:	0040df00 	call	40df0 <__udivsi3>
   40b98:	01000074 	movhi	r4,1
   40b9c:	100b883a 	mov	r5,r2
   40ba0:	0040df00 	call	40df0 <__udivsi3>
   40ba4:	01000174 	movhi	r4,5
   40ba8:	2134b004 	addi	r4,r4,-11584
   40bac:	100b883a 	mov	r5,r2
   40bb0:	0040e8c0 	call	40e8c <printf>
  printf("Custom instruction CRC = %.2lu Mbps\n\n\n", (8 * NUMBER_OF_BUFFERS * BUFFER_SIZE)/(1000000*(unsigned long)(ci_timeB-ci_timeA)/((unsigned long)alt_timestamp_freq())));
   40bb4:	e0ff9f17 	ldw	r3,-388(fp)
   40bb8:	e0bf9e17 	ldw	r2,-392(fp)
   40bbc:	1885c83a 	sub	r2,r3,r2
   40bc0:	1009883a 	mov	r4,r2
   40bc4:	014003f4 	movhi	r5,15
   40bc8:	29509004 	addi	r5,r5,16960
   40bcc:	0040e000 	call	40e00 <__mulsi3>
   40bd0:	1021883a 	mov	r16,r2
   40bd4:	004bcfc0 	call	4bcfc <alt_timestamp_freq>
   40bd8:	8009883a 	mov	r4,r16
   40bdc:	100b883a 	mov	r5,r2
   40be0:	0040df00 	call	40df0 <__udivsi3>
   40be4:	01000074 	movhi	r4,1
   40be8:	100b883a 	mov	r5,r2
   40bec:	0040df00 	call	40df0 <__udivsi3>
   40bf0:	01000174 	movhi	r4,5
   40bf4:	2134ba04 	addi	r4,r4,-11544
   40bf8:	100b883a 	mov	r5,r2
   40bfc:	0040e8c0 	call	40e8c <printf>

  printf("Speedup ratio\n");
   40c00:	01000174 	movhi	r4,5
   40c04:	2134c404 	addi	r4,r4,-11504
   40c08:	0040f4c0 	call	40f4c <puts>
  printf("-------------\n");
   40c0c:	01000174 	movhi	r4,5
   40c10:	2134c804 	addi	r4,r4,-11488
   40c14:	0040f4c0 	call	40f4c <puts>
  printf("Custom instruction CRC vs software CRC = %lu\n", ((unsigned long)(sw_slow_timeB-sw_slow_timeA))/((unsigned long)(ci_timeB-ci_timeA)));
   40c18:	e0ff9b17 	ldw	r3,-404(fp)
   40c1c:	e0bf9a17 	ldw	r2,-408(fp)
   40c20:	1887c83a 	sub	r3,r3,r2
   40c24:	e13f9f17 	ldw	r4,-388(fp)
   40c28:	e0bf9e17 	ldw	r2,-392(fp)
   40c2c:	2085c83a 	sub	r2,r4,r2
   40c30:	1809883a 	mov	r4,r3
   40c34:	100b883a 	mov	r5,r2
   40c38:	0040df00 	call	40df0 <__udivsi3>
   40c3c:	01000174 	movhi	r4,5
   40c40:	2134cc04 	addi	r4,r4,-11472
   40c44:	100b883a 	mov	r5,r2
   40c48:	0040e8c0 	call	40e8c <printf>
  printf("Custom instruction CRC vs optimized software CRC = %lu\n", ((unsigned long)(sw_fast_timeB-sw_fast_timeA))/((unsigned long)(ci_timeB-ci_timeA)));
   40c4c:	e0ff9d17 	ldw	r3,-396(fp)
   40c50:	e0bf9c17 	ldw	r2,-400(fp)
   40c54:	1887c83a 	sub	r3,r3,r2
   40c58:	e13f9f17 	ldw	r4,-388(fp)
   40c5c:	e0bf9e17 	ldw	r2,-392(fp)
   40c60:	2085c83a 	sub	r2,r4,r2
   40c64:	1809883a 	mov	r4,r3
   40c68:	100b883a 	mov	r5,r2
   40c6c:	0040df00 	call	40df0 <__udivsi3>
   40c70:	01000174 	movhi	r4,5
   40c74:	2134d804 	addi	r4,r4,-11424
   40c78:	100b883a 	mov	r5,r2
   40c7c:	0040e8c0 	call	40e8c <printf>
  printf("Optimized software CRC vs software CRC= %lu\n", ((unsigned long)(sw_slow_timeB-sw_slow_timeA))/((unsigned long)(sw_fast_timeB-sw_fast_timeA)));
   40c80:	e0ff9b17 	ldw	r3,-404(fp)
   40c84:	e0bf9a17 	ldw	r2,-408(fp)
   40c88:	1887c83a 	sub	r3,r3,r2
   40c8c:	e13f9d17 	ldw	r4,-396(fp)
   40c90:	e0bf9c17 	ldw	r2,-400(fp)
   40c94:	2085c83a 	sub	r2,r4,r2
   40c98:	1809883a 	mov	r4,r3
   40c9c:	100b883a 	mov	r5,r2
   40ca0:	0040df00 	call	40df0 <__udivsi3>
   40ca4:	01000174 	movhi	r4,5
   40ca8:	2134e604 	addi	r4,r4,-11368
   40cac:	100b883a 	mov	r5,r2
   40cb0:	0040e8c0 	call	40e8c <printf>
  return 0;
   40cb4:	0005883a 	mov	r2,zero
}
   40cb8:	e037883a 	mov	sp,fp
   40cbc:	dfc00217 	ldw	ra,8(sp)
   40cc0:	df000117 	ldw	fp,4(sp)
   40cc4:	dc000017 	ldw	r16,0(sp)
   40cc8:	dec00304 	addi	sp,sp,12
   40ccc:	f800283a 	ret

00040cd0 <udivmodsi4>:
   40cd0:	2005883a 	mov	r2,r4
   40cd4:	2900182e 	bgeu	r5,r4,40d38 <udivmodsi4+0x68>
   40cd8:	28001716 	blt	r5,zero,40d38 <udivmodsi4+0x68>
   40cdc:	01000804 	movi	r4,32
   40ce0:	00c00044 	movi	r3,1
   40ce4:	00000206 	br	40cf0 <udivmodsi4+0x20>
   40ce8:	20001126 	beq	r4,zero,40d30 <udivmodsi4+0x60>
   40cec:	28000516 	blt	r5,zero,40d04 <udivmodsi4+0x34>
   40cf0:	294b883a 	add	r5,r5,r5
   40cf4:	213fffc4 	addi	r4,r4,-1
   40cf8:	18c7883a 	add	r3,r3,r3
   40cfc:	28bffa36 	bltu	r5,r2,40ce8 <udivmodsi4+0x18>
   40d00:	18000b26 	beq	r3,zero,40d30 <udivmodsi4+0x60>
   40d04:	0009883a 	mov	r4,zero
   40d08:	11400236 	bltu	r2,r5,40d14 <udivmodsi4+0x44>
   40d0c:	1145c83a 	sub	r2,r2,r5
   40d10:	20c8b03a 	or	r4,r4,r3
   40d14:	1806d07a 	srli	r3,r3,1
   40d18:	280ad07a 	srli	r5,r5,1
   40d1c:	183ffa1e 	bne	r3,zero,40d08 <udivmodsi4+0x38>
   40d20:	3000021e 	bne	r6,zero,40d2c <udivmodsi4+0x5c>
   40d24:	2005883a 	mov	r2,r4
   40d28:	f800283a 	ret
   40d2c:	f800283a 	ret
   40d30:	0009883a 	mov	r4,zero
   40d34:	003ffa06 	br	40d20 <udivmodsi4+0x50>
   40d38:	00c00044 	movi	r3,1
   40d3c:	0009883a 	mov	r4,zero
   40d40:	003ff106 	br	40d08 <udivmodsi4+0x38>

00040d44 <__divsi3>:
   40d44:	defffe04 	addi	sp,sp,-8
   40d48:	dfc00115 	stw	ra,4(sp)
   40d4c:	dc000015 	stw	r16,0(sp)
   40d50:	20000a16 	blt	r4,zero,40d7c <__divsi3+0x38>
   40d54:	0021883a 	mov	r16,zero
   40d58:	28000b16 	blt	r5,zero,40d88 <__divsi3+0x44>
   40d5c:	000d883a 	mov	r6,zero
   40d60:	0040cd00 	call	40cd0 <udivmodsi4>
   40d64:	80000126 	beq	r16,zero,40d6c <__divsi3+0x28>
   40d68:	0085c83a 	sub	r2,zero,r2
   40d6c:	dfc00117 	ldw	ra,4(sp)
   40d70:	dc000017 	ldw	r16,0(sp)
   40d74:	dec00204 	addi	sp,sp,8
   40d78:	f800283a 	ret
   40d7c:	0109c83a 	sub	r4,zero,r4
   40d80:	04000044 	movi	r16,1
   40d84:	283ff50e 	bge	r5,zero,40d5c <__divsi3+0x18>
   40d88:	014bc83a 	sub	r5,zero,r5
   40d8c:	8400005c 	xori	r16,r16,1
   40d90:	003ff206 	br	40d5c <__divsi3+0x18>

00040d94 <__modsi3>:
   40d94:	deffff04 	addi	sp,sp,-4
   40d98:	dfc00015 	stw	ra,0(sp)
   40d9c:	20000516 	blt	r4,zero,40db4 <__modsi3+0x20>
   40da0:	28000c16 	blt	r5,zero,40dd4 <__modsi3+0x40>
   40da4:	01800044 	movi	r6,1
   40da8:	dfc00017 	ldw	ra,0(sp)
   40dac:	dec00104 	addi	sp,sp,4
   40db0:	0040cd01 	jmpi	40cd0 <udivmodsi4>
   40db4:	0109c83a 	sub	r4,zero,r4
   40db8:	28000b16 	blt	r5,zero,40de8 <__modsi3+0x54>
   40dbc:	01800044 	movi	r6,1
   40dc0:	0040cd00 	call	40cd0 <udivmodsi4>
   40dc4:	0085c83a 	sub	r2,zero,r2
   40dc8:	dfc00017 	ldw	ra,0(sp)
   40dcc:	dec00104 	addi	sp,sp,4
   40dd0:	f800283a 	ret
   40dd4:	014bc83a 	sub	r5,zero,r5
   40dd8:	01800044 	movi	r6,1
   40ddc:	dfc00017 	ldw	ra,0(sp)
   40de0:	dec00104 	addi	sp,sp,4
   40de4:	0040cd01 	jmpi	40cd0 <udivmodsi4>
   40de8:	014bc83a 	sub	r5,zero,r5
   40dec:	003ff306 	br	40dbc <__modsi3+0x28>

00040df0 <__udivsi3>:
   40df0:	000d883a 	mov	r6,zero
   40df4:	0040cd01 	jmpi	40cd0 <udivmodsi4>

00040df8 <__umodsi3>:
   40df8:	01800044 	movi	r6,1
   40dfc:	0040cd01 	jmpi	40cd0 <udivmodsi4>

00040e00 <__mulsi3>:
   40e00:	0005883a 	mov	r2,zero
   40e04:	20000726 	beq	r4,zero,40e24 <__mulsi3+0x24>
   40e08:	20c0004c 	andi	r3,r4,1
   40e0c:	2008d07a 	srli	r4,r4,1
   40e10:	18000126 	beq	r3,zero,40e18 <__mulsi3+0x18>
   40e14:	1145883a 	add	r2,r2,r5
   40e18:	294b883a 	add	r5,r5,r5
   40e1c:	203ffa1e 	bne	r4,zero,40e08 <__mulsi3+0x8>
   40e20:	f800283a 	ret
   40e24:	f800283a 	ret

00040e28 <exit>:
   40e28:	defffe04 	addi	sp,sp,-8
   40e2c:	000b883a 	mov	r5,zero
   40e30:	dc000015 	stw	r16,0(sp)
   40e34:	dfc00115 	stw	ra,4(sp)
   40e38:	2021883a 	mov	r16,r4
   40e3c:	00430340 	call	43034 <__call_exitprocs>
   40e40:	00800174 	movhi	r2,5
   40e44:	10bc4104 	addi	r2,r2,-3836
   40e48:	11000017 	ldw	r4,0(r2)
   40e4c:	20800f17 	ldw	r2,60(r4)
   40e50:	10000126 	beq	r2,zero,40e58 <exit+0x30>
   40e54:	103ee83a 	callr	r2
   40e58:	8009883a 	mov	r4,r16
   40e5c:	004a6ec0 	call	4a6ec <_exit>

00040e60 <_printf_r>:
   40e60:	defffd04 	addi	sp,sp,-12
   40e64:	dfc00015 	stw	ra,0(sp)
   40e68:	d9800115 	stw	r6,4(sp)
   40e6c:	d9c00215 	stw	r7,8(sp)
   40e70:	280d883a 	mov	r6,r5
   40e74:	21400217 	ldw	r5,8(r4)
   40e78:	d9c00104 	addi	r7,sp,4
   40e7c:	00410200 	call	41020 <___vfprintf_internal_r>
   40e80:	dfc00017 	ldw	ra,0(sp)
   40e84:	dec00304 	addi	sp,sp,12
   40e88:	f800283a 	ret

00040e8c <printf>:
   40e8c:	defffc04 	addi	sp,sp,-16
   40e90:	dfc00015 	stw	ra,0(sp)
   40e94:	d9400115 	stw	r5,4(sp)
   40e98:	d9800215 	stw	r6,8(sp)
   40e9c:	d9c00315 	stw	r7,12(sp)
   40ea0:	00800174 	movhi	r2,5
   40ea4:	10bc4204 	addi	r2,r2,-3832
   40ea8:	10800017 	ldw	r2,0(r2)
   40eac:	200b883a 	mov	r5,r4
   40eb0:	d9800104 	addi	r6,sp,4
   40eb4:	11000217 	ldw	r4,8(r2)
   40eb8:	0042e9c0 	call	42e9c <__vfprintf_internal>
   40ebc:	dfc00017 	ldw	ra,0(sp)
   40ec0:	dec00404 	addi	sp,sp,16
   40ec4:	f800283a 	ret

00040ec8 <_puts_r>:
   40ec8:	defff604 	addi	sp,sp,-40
   40ecc:	dc400815 	stw	r17,32(sp)
   40ed0:	2023883a 	mov	r17,r4
   40ed4:	2809883a 	mov	r4,r5
   40ed8:	dc000715 	stw	r16,28(sp)
   40edc:	dfc00915 	stw	ra,36(sp)
   40ee0:	2821883a 	mov	r16,r5
   40ee4:	0040f600 	call	40f60 <strlen>
   40ee8:	10c00044 	addi	r3,r2,1
   40eec:	d8800115 	stw	r2,4(sp)
   40ef0:	89400217 	ldw	r5,8(r17)
   40ef4:	00800174 	movhi	r2,5
   40ef8:	10b4f304 	addi	r2,r2,-11316
   40efc:	d8800215 	stw	r2,8(sp)
   40f00:	00800044 	movi	r2,1
   40f04:	d8800315 	stw	r2,12(sp)
   40f08:	8809883a 	mov	r4,r17
   40f0c:	00800084 	movi	r2,2
   40f10:	d9800404 	addi	r6,sp,16
   40f14:	dc000015 	stw	r16,0(sp)
   40f18:	d8c00615 	stw	r3,24(sp)
   40f1c:	dec00415 	stw	sp,16(sp)
   40f20:	d8800515 	stw	r2,20(sp)
   40f24:	004533c0 	call	4533c <__sfvwrite_r>
   40f28:	1000061e 	bne	r2,zero,40f44 <_puts_r+0x7c>
   40f2c:	00800284 	movi	r2,10
   40f30:	dfc00917 	ldw	ra,36(sp)
   40f34:	dc400817 	ldw	r17,32(sp)
   40f38:	dc000717 	ldw	r16,28(sp)
   40f3c:	dec00a04 	addi	sp,sp,40
   40f40:	f800283a 	ret
   40f44:	00bfffc4 	movi	r2,-1
   40f48:	003ff906 	br	40f30 <_puts_r+0x68>

00040f4c <puts>:
   40f4c:	00800174 	movhi	r2,5
   40f50:	10bc4204 	addi	r2,r2,-3832
   40f54:	200b883a 	mov	r5,r4
   40f58:	11000017 	ldw	r4,0(r2)
   40f5c:	0040ec81 	jmpi	40ec8 <_puts_r>

00040f60 <strlen>:
   40f60:	208000cc 	andi	r2,r4,3
   40f64:	10001f1e 	bne	r2,zero,40fe4 <strlen+0x84>
   40f68:	20800017 	ldw	r2,0(r4)
   40f6c:	01ffbff4 	movhi	r7,65279
   40f70:	39ffbfc4 	addi	r7,r7,-257
   40f74:	01a02074 	movhi	r6,32897
   40f78:	31a02004 	addi	r6,r6,-32640
   40f7c:	11c7883a 	add	r3,r2,r7
   40f80:	0084303a 	nor	r2,zero,r2
   40f84:	1886703a 	and	r3,r3,r2
   40f88:	1986703a 	and	r3,r3,r6
   40f8c:	2005883a 	mov	r2,r4
   40f90:	1800101e 	bne	r3,zero,40fd4 <strlen+0x74>
   40f94:	10800104 	addi	r2,r2,4
   40f98:	10c00017 	ldw	r3,0(r2)
   40f9c:	19cb883a 	add	r5,r3,r7
   40fa0:	00c6303a 	nor	r3,zero,r3
   40fa4:	28c6703a 	and	r3,r5,r3
   40fa8:	1986703a 	and	r3,r3,r6
   40fac:	1800091e 	bne	r3,zero,40fd4 <strlen+0x74>
   40fb0:	10800104 	addi	r2,r2,4
   40fb4:	10c00017 	ldw	r3,0(r2)
   40fb8:	19cb883a 	add	r5,r3,r7
   40fbc:	00c6303a 	nor	r3,zero,r3
   40fc0:	28c6703a 	and	r3,r5,r3
   40fc4:	1986703a 	and	r3,r3,r6
   40fc8:	183ff226 	beq	r3,zero,40f94 <strlen+0x34>
   40fcc:	00000106 	br	40fd4 <strlen+0x74>
   40fd0:	10800044 	addi	r2,r2,1
   40fd4:	10c00007 	ldb	r3,0(r2)
   40fd8:	183ffd1e 	bne	r3,zero,40fd0 <strlen+0x70>
   40fdc:	1105c83a 	sub	r2,r2,r4
   40fe0:	f800283a 	ret
   40fe4:	2005883a 	mov	r2,r4
   40fe8:	003ffa06 	br	40fd4 <strlen+0x74>

00040fec <__sprint_r>:
   40fec:	30800217 	ldw	r2,8(r6)
   40ff0:	defffe04 	addi	sp,sp,-8
   40ff4:	dc000015 	stw	r16,0(sp)
   40ff8:	dfc00115 	stw	ra,4(sp)
   40ffc:	3021883a 	mov	r16,r6
   41000:	10000226 	beq	r2,zero,4100c <__sprint_r+0x20>
   41004:	004533c0 	call	4533c <__sfvwrite_r>
   41008:	80000215 	stw	zero,8(r16)
   4100c:	80000115 	stw	zero,4(r16)
   41010:	dfc00117 	ldw	ra,4(sp)
   41014:	dc000017 	ldw	r16,0(sp)
   41018:	dec00204 	addi	sp,sp,8
   4101c:	f800283a 	ret

00041020 <___vfprintf_internal_r>:
   41020:	defeb904 	addi	sp,sp,-1308
   41024:	dc013d15 	stw	r16,1268(sp)
   41028:	d9013015 	stw	r4,1216(sp)
   4102c:	dfc14615 	stw	ra,1304(sp)
   41030:	df014515 	stw	fp,1300(sp)
   41034:	ddc14415 	stw	r23,1296(sp)
   41038:	dd814315 	stw	r22,1292(sp)
   4103c:	dd414215 	stw	r21,1288(sp)
   41040:	dd014115 	stw	r20,1284(sp)
   41044:	dcc14015 	stw	r19,1280(sp)
   41048:	dc813f15 	stw	r18,1276(sp)
   4104c:	dc413e15 	stw	r17,1272(sp)
   41050:	d9412915 	stw	r5,1188(sp)
   41054:	3021883a 	mov	r16,r6
   41058:	d9c12d15 	stw	r7,1204(sp)
   4105c:	0045a280 	call	45a28 <_localeconv_r>
   41060:	10800017 	ldw	r2,0(r2)
   41064:	d9013017 	ldw	r4,1216(sp)
   41068:	d8013315 	stw	zero,1228(sp)
   4106c:	d8813715 	stw	r2,1244(sp)
   41070:	d8013415 	stw	zero,1232(sp)
   41074:	20000226 	beq	r4,zero,41080 <___vfprintf_internal_r+0x60>
   41078:	20800e17 	ldw	r2,56(r4)
   4107c:	10014b26 	beq	r2,zero,415ac <___vfprintf_internal_r+0x58c>
   41080:	d8c12917 	ldw	r3,1188(sp)
   41084:	1880030b 	ldhu	r2,12(r3)
   41088:	10c0020c 	andi	r3,r2,8
   4108c:	18ffffcc 	andi	r3,r3,65535
   41090:	18e0001c 	xori	r3,r3,32768
   41094:	18e00004 	addi	r3,r3,-32768
   41098:	1800ed26 	beq	r3,zero,41450 <___vfprintf_internal_r+0x430>
   4109c:	d9012917 	ldw	r4,1188(sp)
   410a0:	20c00417 	ldw	r3,16(r4)
   410a4:	1800ea26 	beq	r3,zero,41450 <___vfprintf_internal_r+0x430>
   410a8:	1100068c 	andi	r4,r2,26
   410ac:	00c00284 	movi	r3,10
   410b0:	20c0f026 	beq	r4,r3,41474 <___vfprintf_internal_r+0x454>
   410b4:	d9010dc4 	addi	r4,sp,1079
   410b8:	d8810e04 	addi	r2,sp,1080
   410bc:	dc413017 	ldw	r17,1216(sp)
   410c0:	d8c00404 	addi	r3,sp,16
   410c4:	d9012615 	stw	r4,1176(sp)
   410c8:	1109c83a 	sub	r4,r2,r4
   410cc:	d8812715 	stw	r2,1180(sp)
   410d0:	d8c11b15 	stw	r3,1132(sp)
   410d4:	d8011d15 	stw	zero,1140(sp)
   410d8:	d8011c15 	stw	zero,1136(sp)
   410dc:	802b883a 	mov	r21,r16
   410e0:	d8013215 	stw	zero,1224(sp)
   410e4:	d8013615 	stw	zero,1240(sp)
   410e8:	d8013515 	stw	zero,1236(sp)
   410ec:	d8012c15 	stw	zero,1200(sp)
   410f0:	1813883a 	mov	r9,r3
   410f4:	d9013915 	stw	r4,1252(sp)
   410f8:	a8800007 	ldb	r2,0(r21)
   410fc:	1002f326 	beq	r2,zero,41ccc <___vfprintf_internal_r+0xcac>
   41100:	00c00944 	movi	r3,37
   41104:	a825883a 	mov	r18,r21
   41108:	10c0021e 	bne	r2,r3,41114 <___vfprintf_internal_r+0xf4>
   4110c:	00001406 	br	41160 <___vfprintf_internal_r+0x140>
   41110:	10c00326 	beq	r2,r3,41120 <___vfprintf_internal_r+0x100>
   41114:	94800044 	addi	r18,r18,1
   41118:	90800007 	ldb	r2,0(r18)
   4111c:	103ffc1e 	bne	r2,zero,41110 <___vfprintf_internal_r+0xf0>
   41120:	9561c83a 	sub	r16,r18,r21
   41124:	80000e26 	beq	r16,zero,41160 <___vfprintf_internal_r+0x140>
   41128:	da011d17 	ldw	r8,1140(sp)
   4112c:	d8c11c17 	ldw	r3,1136(sp)
   41130:	4d400015 	stw	r21,0(r9)
   41134:	4c000115 	stw	r16,4(r9)
   41138:	4411883a 	add	r8,r8,r16
   4113c:	18c00044 	addi	r3,r3,1
   41140:	da011d15 	stw	r8,1140(sp)
   41144:	d8c11c15 	stw	r3,1136(sp)
   41148:	008001c4 	movi	r2,7
   4114c:	10c11016 	blt	r2,r3,41590 <___vfprintf_internal_r+0x570>
   41150:	4a400204 	addi	r9,r9,8
   41154:	d8812c17 	ldw	r2,1200(sp)
   41158:	1405883a 	add	r2,r2,r16
   4115c:	d8812c15 	stw	r2,1200(sp)
   41160:	90800007 	ldb	r2,0(r18)
   41164:	1000ee26 	beq	r2,zero,41520 <___vfprintf_internal_r+0x500>
   41168:	95400044 	addi	r21,r18,1
   4116c:	94800047 	ldb	r18,1(r18)
   41170:	073fffc4 	movi	fp,-1
   41174:	e007883a 	mov	r3,fp
   41178:	d8012585 	stb	zero,1174(sp)
   4117c:	d8012e15 	stw	zero,1208(sp)
   41180:	0021883a 	mov	r16,zero
   41184:	05001604 	movi	r20,88
   41188:	04c00244 	movi	r19,9
   4118c:	4839883a 	mov	fp,r9
   41190:	ad400044 	addi	r21,r21,1
   41194:	90bff804 	addi	r2,r18,-32
   41198:	a080462e 	bgeu	r20,r2,412b4 <___vfprintf_internal_r+0x294>
   4119c:	e013883a 	mov	r9,fp
   411a0:	9000df26 	beq	r18,zero,41520 <___vfprintf_internal_r+0x500>
   411a4:	00c00044 	movi	r3,1
   411a8:	d8c12815 	stw	r3,1184(sp)
   411ac:	dc810405 	stb	r18,1040(sp)
   411b0:	d8012585 	stb	zero,1174(sp)
   411b4:	d8c12b15 	stw	r3,1196(sp)
   411b8:	dcc10404 	addi	r19,sp,1040
   411bc:	d8013115 	stw	zero,1220(sp)
   411c0:	80c0008c 	andi	r3,r16,2
   411c4:	d8c12a15 	stw	r3,1192(sp)
   411c8:	18000326 	beq	r3,zero,411d8 <___vfprintf_internal_r+0x1b8>
   411cc:	d8c12817 	ldw	r3,1184(sp)
   411d0:	18c00084 	addi	r3,r3,2
   411d4:	d8c12815 	stw	r3,1184(sp)
   411d8:	80c0210c 	andi	r3,r16,132
   411dc:	d8c12f15 	stw	r3,1212(sp)
   411e0:	1802251e 	bne	r3,zero,41a78 <___vfprintf_internal_r+0xa58>
   411e4:	d9012e17 	ldw	r4,1208(sp)
   411e8:	d8c12817 	ldw	r3,1184(sp)
   411ec:	20edc83a 	sub	r22,r4,r3
   411f0:	0582210e 	bge	zero,r22,41a78 <___vfprintf_internal_r+0xa58>
   411f4:	02800404 	movi	r10,16
   411f8:	da011d17 	ldw	r8,1140(sp)
   411fc:	d8c11c17 	ldw	r3,1136(sp)
   41200:	05c00174 	movhi	r23,5
   41204:	bdf50484 	addi	r23,r23,-11246
   41208:	5580200e 	bge	r10,r22,4128c <___vfprintf_internal_r+0x26c>
   4120c:	dc813815 	stw	r18,1248(sp)
   41210:	5039883a 	mov	fp,r10
   41214:	b825883a 	mov	r18,r23
   41218:	050001c4 	movi	r20,7
   4121c:	b02f883a 	mov	r23,r22
   41220:	802d883a 	mov	r22,r16
   41224:	dc012917 	ldw	r16,1188(sp)
   41228:	00000306 	br	41238 <___vfprintf_internal_r+0x218>
   4122c:	bdfffc04 	addi	r23,r23,-16
   41230:	4a400204 	addi	r9,r9,8
   41234:	e5c0110e 	bge	fp,r23,4127c <___vfprintf_internal_r+0x25c>
   41238:	4c800015 	stw	r18,0(r9)
   4123c:	4f000115 	stw	fp,4(r9)
   41240:	42000404 	addi	r8,r8,16
   41244:	18c00044 	addi	r3,r3,1
   41248:	da011d15 	stw	r8,1140(sp)
   4124c:	d8c11c15 	stw	r3,1136(sp)
   41250:	a0fff60e 	bge	r20,r3,4122c <___vfprintf_internal_r+0x20c>
   41254:	8809883a 	mov	r4,r17
   41258:	800b883a 	mov	r5,r16
   4125c:	d9811b04 	addi	r6,sp,1132
   41260:	0040fec0 	call	40fec <__sprint_r>
   41264:	1000b41e 	bne	r2,zero,41538 <___vfprintf_internal_r+0x518>
   41268:	bdfffc04 	addi	r23,r23,-16
   4126c:	da011d17 	ldw	r8,1140(sp)
   41270:	d8c11c17 	ldw	r3,1136(sp)
   41274:	da400404 	addi	r9,sp,16
   41278:	e5ffef16 	blt	fp,r23,41238 <___vfprintf_internal_r+0x218>
   4127c:	b021883a 	mov	r16,r22
   41280:	b82d883a 	mov	r22,r23
   41284:	902f883a 	mov	r23,r18
   41288:	dc813817 	ldw	r18,1248(sp)
   4128c:	4dc00015 	stw	r23,0(r9)
   41290:	4d800115 	stw	r22,4(r9)
   41294:	4591883a 	add	r8,r8,r22
   41298:	18c00044 	addi	r3,r3,1
   4129c:	da011d15 	stw	r8,1140(sp)
   412a0:	d8c11c15 	stw	r3,1136(sp)
   412a4:	008001c4 	movi	r2,7
   412a8:	10c3fe16 	blt	r2,r3,422a4 <___vfprintf_internal_r+0x1284>
   412ac:	4a400204 	addi	r9,r9,8
   412b0:	0001f306 	br	41a80 <___vfprintf_internal_r+0xa60>
   412b4:	1085883a 	add	r2,r2,r2
   412b8:	1085883a 	add	r2,r2,r2
   412bc:	01000134 	movhi	r4,4
   412c0:	2104b404 	addi	r4,r4,4816
   412c4:	1105883a 	add	r2,r2,r4
   412c8:	10800017 	ldw	r2,0(r2)
   412cc:	1000683a 	jmp	r2
   412d0:	000419ac 	andhi	zero,zero,4198
   412d4:	0004119c 	xori	zero,zero,4166
   412d8:	0004119c 	xori	zero,zero,4166
   412dc:	000419c4 	movi	zero,4199
   412e0:	0004119c 	xori	zero,zero,4166
   412e4:	0004119c 	xori	zero,zero,4166
   412e8:	0004119c 	xori	zero,zero,4166
   412ec:	0004119c 	xori	zero,zero,4166
   412f0:	0004119c 	xori	zero,zero,4166
   412f4:	0004119c 	xori	zero,zero,4166
   412f8:	0004187c 	xorhi	zero,zero,4193
   412fc:	00041a10 	cmplti	zero,zero,4200
   41300:	0004119c 	xori	zero,zero,4166
   41304:	00041444 	movi	zero,4177
   41308:	000417e4 	muli	zero,zero,4191
   4130c:	0004119c 	xori	zero,zero,4166
   41310:	000419d0 	cmplti	zero,zero,4199
   41314:	000419dc 	xori	zero,zero,4199
   41318:	000419dc 	xori	zero,zero,4199
   4131c:	000419dc 	xori	zero,zero,4199
   41320:	000419dc 	xori	zero,zero,4199
   41324:	000419dc 	xori	zero,zero,4199
   41328:	000419dc 	xori	zero,zero,4199
   4132c:	000419dc 	xori	zero,zero,4199
   41330:	000419dc 	xori	zero,zero,4199
   41334:	000419dc 	xori	zero,zero,4199
   41338:	0004119c 	xori	zero,zero,4166
   4133c:	0004119c 	xori	zero,zero,4166
   41340:	0004119c 	xori	zero,zero,4166
   41344:	0004119c 	xori	zero,zero,4166
   41348:	0004119c 	xori	zero,zero,4166
   4134c:	0004119c 	xori	zero,zero,4166
   41350:	0004119c 	xori	zero,zero,4166
   41354:	0004119c 	xori	zero,zero,4166
   41358:	0004119c 	xori	zero,zero,4166
   4135c:	0004119c 	xori	zero,zero,4166
   41360:	000415b4 	movhi	zero,4182
   41364:	00041674 	movhi	zero,4185
   41368:	0004119c 	xori	zero,zero,4166
   4136c:	00041674 	movhi	zero,4185
   41370:	0004119c 	xori	zero,zero,4166
   41374:	0004119c 	xori	zero,zero,4166
   41378:	0004119c 	xori	zero,zero,4166
   4137c:	0004119c 	xori	zero,zero,4166
   41380:	00041708 	cmpgei	zero,zero,4188
   41384:	0004119c 	xori	zero,zero,4166
   41388:	0004119c 	xori	zero,zero,4166
   4138c:	00041714 	movui	zero,4188
   41390:	0004119c 	xori	zero,zero,4166
   41394:	0004119c 	xori	zero,zero,4166
   41398:	0004119c 	xori	zero,zero,4166
   4139c:	0004119c 	xori	zero,zero,4166
   413a0:	0004119c 	xori	zero,zero,4166
   413a4:	0004174c 	andi	zero,zero,4189
   413a8:	0004119c 	xori	zero,zero,4166
   413ac:	0004119c 	xori	zero,zero,4166
   413b0:	00041788 	cmpgei	zero,zero,4190
   413b4:	0004119c 	xori	zero,zero,4166
   413b8:	0004119c 	xori	zero,zero,4166
   413bc:	0004119c 	xori	zero,zero,4166
   413c0:	0004119c 	xori	zero,zero,4166
   413c4:	0004119c 	xori	zero,zero,4166
   413c8:	0004119c 	xori	zero,zero,4166
   413cc:	0004119c 	xori	zero,zero,4166
   413d0:	0004119c 	xori	zero,zero,4166
   413d4:	0004119c 	xori	zero,zero,4166
   413d8:	0004119c 	xori	zero,zero,4166
   413dc:	00041a20 	cmpeqi	zero,zero,4200
   413e0:	00041a54 	movui	zero,4201
   413e4:	00041674 	movhi	zero,4185
   413e8:	00041674 	movhi	zero,4185
   413ec:	00041674 	movhi	zero,4185
   413f0:	000419a0 	cmpeqi	zero,zero,4198
   413f4:	00041a54 	movui	zero,4201
   413f8:	0004119c 	xori	zero,zero,4166
   413fc:	0004119c 	xori	zero,zero,4166
   41400:	0004182c 	andhi	zero,zero,4192
   41404:	0004119c 	xori	zero,zero,4166
   41408:	00041844 	movi	zero,4193
   4140c:	00041a60 	cmpeqi	zero,zero,4201
   41410:	000418a4 	muli	zero,zero,4194
   41414:	000418f4 	movhi	zero,4195
   41418:	0004119c 	xori	zero,zero,4166
   4141c:	00041900 	call	4190 <__alt_mem_onchip_mem-0x3be70>
   41420:	0004119c 	xori	zero,zero,4166
   41424:	00041a6c 	andhi	zero,zero,4201
   41428:	0004119c 	xori	zero,zero,4166
   4142c:	0004119c 	xori	zero,zero,4166
   41430:	00041964 	muli	zero,zero,4197
   41434:	d9012e17 	ldw	r4,1208(sp)
   41438:	d8812d15 	stw	r2,1204(sp)
   4143c:	0109c83a 	sub	r4,zero,r4
   41440:	d9012e15 	stw	r4,1208(sp)
   41444:	84000114 	ori	r16,r16,4
   41448:	ac800007 	ldb	r18,0(r21)
   4144c:	003f5006 	br	41190 <___vfprintf_internal_r+0x170>
   41450:	d9013017 	ldw	r4,1216(sp)
   41454:	d9412917 	ldw	r5,1188(sp)
   41458:	0042ec00 	call	42ec0 <__swsetup_r>
   4145c:	10003d1e 	bne	r2,zero,41554 <___vfprintf_internal_r+0x534>
   41460:	d8c12917 	ldw	r3,1188(sp)
   41464:	1880030b 	ldhu	r2,12(r3)
   41468:	00c00284 	movi	r3,10
   4146c:	1100068c 	andi	r4,r2,26
   41470:	20ff101e 	bne	r4,r3,410b4 <___vfprintf_internal_r+0x94>
   41474:	d9012917 	ldw	r4,1188(sp)
   41478:	20c0038b 	ldhu	r3,14(r4)
   4147c:	193fffcc 	andi	r4,r3,65535
   41480:	2120001c 	xori	r4,r4,32768
   41484:	21200004 	addi	r4,r4,-32768
   41488:	203f0a16 	blt	r4,zero,410b4 <___vfprintf_internal_r+0x94>
   4148c:	d9012917 	ldw	r4,1188(sp)
   41490:	d9c12d17 	ldw	r7,1204(sp)
   41494:	10bfff4c 	andi	r2,r2,65533
   41498:	22800717 	ldw	r10,28(r4)
   4149c:	22400917 	ldw	r9,36(r4)
   414a0:	d9013017 	ldw	r4,1216(sp)
   414a4:	02010004 	movi	r8,1024
   414a8:	d881070d 	sth	r2,1052(sp)
   414ac:	d9410404 	addi	r5,sp,1040
   414b0:	d8800404 	addi	r2,sp,16
   414b4:	800d883a 	mov	r6,r16
   414b8:	d8c1078d 	sth	r3,1054(sp)
   414bc:	da810b15 	stw	r10,1068(sp)
   414c0:	da410d15 	stw	r9,1076(sp)
   414c4:	d8810415 	stw	r2,1040(sp)
   414c8:	d8810815 	stw	r2,1056(sp)
   414cc:	da010615 	stw	r8,1048(sp)
   414d0:	da010915 	stw	r8,1060(sp)
   414d4:	d8010a15 	stw	zero,1064(sp)
   414d8:	00410200 	call	41020 <___vfprintf_internal_r>
   414dc:	d8812c15 	stw	r2,1200(sp)
   414e0:	10000416 	blt	r2,zero,414f4 <___vfprintf_internal_r+0x4d4>
   414e4:	d9013017 	ldw	r4,1216(sp)
   414e8:	d9410404 	addi	r5,sp,1040
   414ec:	0044a2c0 	call	44a2c <_fflush_r>
   414f0:	1006501e 	bne	r2,zero,42e34 <___vfprintf_internal_r+0x1e14>
   414f4:	d881070b 	ldhu	r2,1052(sp)
   414f8:	1080100c 	andi	r2,r2,64
   414fc:	10bfffcc 	andi	r2,r2,65535
   41500:	10a0001c 	xori	r2,r2,32768
   41504:	10a00004 	addi	r2,r2,-32768
   41508:	10001426 	beq	r2,zero,4155c <___vfprintf_internal_r+0x53c>
   4150c:	d8c12917 	ldw	r3,1188(sp)
   41510:	1880030b 	ldhu	r2,12(r3)
   41514:	10801014 	ori	r2,r2,64
   41518:	1880030d 	sth	r2,12(r3)
   4151c:	00000f06 	br	4155c <___vfprintf_internal_r+0x53c>
   41520:	d8811d17 	ldw	r2,1140(sp)
   41524:	10000426 	beq	r2,zero,41538 <___vfprintf_internal_r+0x518>
   41528:	d9013017 	ldw	r4,1216(sp)
   4152c:	d9412917 	ldw	r5,1188(sp)
   41530:	d9811b04 	addi	r6,sp,1132
   41534:	0040fec0 	call	40fec <__sprint_r>
   41538:	d8c12917 	ldw	r3,1188(sp)
   4153c:	1880030b 	ldhu	r2,12(r3)
   41540:	1080100c 	andi	r2,r2,64
   41544:	10bfffcc 	andi	r2,r2,65535
   41548:	10a0001c 	xori	r2,r2,32768
   4154c:	10a00004 	addi	r2,r2,-32768
   41550:	10000226 	beq	r2,zero,4155c <___vfprintf_internal_r+0x53c>
   41554:	00bfffc4 	movi	r2,-1
   41558:	d8812c15 	stw	r2,1200(sp)
   4155c:	d8812c17 	ldw	r2,1200(sp)
   41560:	dfc14617 	ldw	ra,1304(sp)
   41564:	df014517 	ldw	fp,1300(sp)
   41568:	ddc14417 	ldw	r23,1296(sp)
   4156c:	dd814317 	ldw	r22,1292(sp)
   41570:	dd414217 	ldw	r21,1288(sp)
   41574:	dd014117 	ldw	r20,1284(sp)
   41578:	dcc14017 	ldw	r19,1280(sp)
   4157c:	dc813f17 	ldw	r18,1276(sp)
   41580:	dc413e17 	ldw	r17,1272(sp)
   41584:	dc013d17 	ldw	r16,1268(sp)
   41588:	dec14704 	addi	sp,sp,1308
   4158c:	f800283a 	ret
   41590:	d9412917 	ldw	r5,1188(sp)
   41594:	8809883a 	mov	r4,r17
   41598:	d9811b04 	addi	r6,sp,1132
   4159c:	0040fec0 	call	40fec <__sprint_r>
   415a0:	103fe51e 	bne	r2,zero,41538 <___vfprintf_internal_r+0x518>
   415a4:	da400404 	addi	r9,sp,16
   415a8:	003eea06 	br	41154 <___vfprintf_internal_r+0x134>
   415ac:	0044ce80 	call	44ce8 <__sinit>
   415b0:	003eb306 	br	41080 <___vfprintf_internal_r+0x60>
   415b4:	e013883a 	mov	r9,fp
   415b8:	84000414 	ori	r16,r16,16
   415bc:	1839883a 	mov	fp,r3
   415c0:	8080080c 	andi	r2,r16,32
   415c4:	10034426 	beq	r2,zero,422d8 <___vfprintf_internal_r+0x12b8>
   415c8:	d8c12d17 	ldw	r3,1204(sp)
   415cc:	18800117 	ldw	r2,4(r3)
   415d0:	1dc00017 	ldw	r23,0(r3)
   415d4:	18c00204 	addi	r3,r3,8
   415d8:	d8c12d15 	stw	r3,1204(sp)
   415dc:	102d883a 	mov	r22,r2
   415e0:	1003020e 	bge	r2,zero,421ec <___vfprintf_internal_r+0x11cc>
   415e4:	05efc83a 	sub	r23,zero,r23
   415e8:	b804c03a 	cmpne	r2,r23,zero
   415ec:	05adc83a 	sub	r22,zero,r22
   415f0:	b0adc83a 	sub	r22,r22,r2
   415f4:	00800b44 	movi	r2,45
   415f8:	d8812585 	stb	r2,1174(sp)
   415fc:	00c00044 	movi	r3,1
   41600:	bd84b03a 	or	r2,r23,r22
   41604:	e0000216 	blt	fp,zero,41610 <___vfprintf_internal_r+0x5f0>
   41608:	013fdfc4 	movi	r4,-129
   4160c:	8120703a 	and	r16,r16,r4
   41610:	1001cc1e 	bne	r2,zero,41d44 <___vfprintf_internal_r+0xd24>
   41614:	e001cb1e 	bne	fp,zero,41d44 <___vfprintf_internal_r+0xd24>
   41618:	18c03fcc 	andi	r3,r3,255
   4161c:	1802ca1e 	bne	r3,zero,42148 <___vfprintf_internal_r+0x1128>
   41620:	8080004c 	andi	r2,r16,1
   41624:	1002c826 	beq	r2,zero,42148 <___vfprintf_internal_r+0x1128>
   41628:	d8c13917 	ldw	r3,1252(sp)
   4162c:	00800c04 	movi	r2,48
   41630:	d8810dc5 	stb	r2,1079(sp)
   41634:	d8c12b15 	stw	r3,1196(sp)
   41638:	dcc10dc4 	addi	r19,sp,1079
   4163c:	d8812b17 	ldw	r2,1196(sp)
   41640:	d8812815 	stw	r2,1184(sp)
   41644:	1700010e 	bge	r2,fp,4164c <___vfprintf_internal_r+0x62c>
   41648:	df012815 	stw	fp,1184(sp)
   4164c:	d8812583 	ldbu	r2,1174(sp)
   41650:	df013115 	stw	fp,1220(sp)
   41654:	10803fcc 	andi	r2,r2,255
   41658:	1080201c 	xori	r2,r2,128
   4165c:	10bfe004 	addi	r2,r2,-128
   41660:	103ed726 	beq	r2,zero,411c0 <___vfprintf_internal_r+0x1a0>
   41664:	d8c12817 	ldw	r3,1184(sp)
   41668:	18c00044 	addi	r3,r3,1
   4166c:	d8c12815 	stw	r3,1184(sp)
   41670:	003ed306 	br	411c0 <___vfprintf_internal_r+0x1a0>
   41674:	8080020c 	andi	r2,r16,8
   41678:	e013883a 	mov	r9,fp
   4167c:	1839883a 	mov	fp,r3
   41680:	1003a626 	beq	r2,zero,4251c <___vfprintf_internal_r+0x14fc>
   41684:	d9012d17 	ldw	r4,1204(sp)
   41688:	25800017 	ldw	r22,0(r4)
   4168c:	25000117 	ldw	r20,4(r4)
   41690:	21000204 	addi	r4,r4,8
   41694:	d9012d15 	stw	r4,1204(sp)
   41698:	dd813315 	stw	r22,1228(sp)
   4169c:	dd013415 	stw	r20,1232(sp)
   416a0:	b009883a 	mov	r4,r22
   416a4:	a00b883a 	mov	r5,r20
   416a8:	da413c15 	stw	r9,1264(sp)
   416ac:	0047e740 	call	47e74 <__isinfd>
   416b0:	da413c17 	ldw	r9,1264(sp)
   416b4:	b009883a 	mov	r4,r22
   416b8:	a00b883a 	mov	r5,r20
   416bc:	10041d26 	beq	r2,zero,42734 <___vfprintf_internal_r+0x1714>
   416c0:	000d883a 	mov	r6,zero
   416c4:	000f883a 	mov	r7,zero
   416c8:	0049c480 	call	49c48 <__ltdf2>
   416cc:	da413c17 	ldw	r9,1264(sp)
   416d0:	1004da16 	blt	r2,zero,42a3c <___vfprintf_internal_r+0x1a1c>
   416d4:	d8812583 	ldbu	r2,1174(sp)
   416d8:	00c011c4 	movi	r3,71
   416dc:	1c83d116 	blt	r3,r18,42624 <___vfprintf_internal_r+0x1604>
   416e0:	04c00174 	movhi	r19,5
   416e4:	9cf4f404 	addi	r19,r19,-11312
   416e8:	00c000c4 	movi	r3,3
   416ec:	d8c12815 	stw	r3,1184(sp)
   416f0:	00ffdfc4 	movi	r3,-129
   416f4:	80e0703a 	and	r16,r16,r3
   416f8:	d8c12817 	ldw	r3,1184(sp)
   416fc:	d8013115 	stw	zero,1220(sp)
   41700:	d8c12b15 	stw	r3,1196(sp)
   41704:	003fd306 	br	41654 <___vfprintf_internal_r+0x634>
   41708:	84000214 	ori	r16,r16,8
   4170c:	ac800007 	ldb	r18,0(r21)
   41710:	003e9f06 	br	41190 <___vfprintf_internal_r+0x170>
   41714:	e013883a 	mov	r9,fp
   41718:	84000414 	ori	r16,r16,16
   4171c:	1839883a 	mov	fp,r3
   41720:	8080080c 	andi	r2,r16,32
   41724:	10031d26 	beq	r2,zero,4239c <___vfprintf_internal_r+0x137c>
   41728:	d8812d17 	ldw	r2,1204(sp)
   4172c:	0007883a 	mov	r3,zero
   41730:	15c00017 	ldw	r23,0(r2)
   41734:	15800117 	ldw	r22,4(r2)
   41738:	10800204 	addi	r2,r2,8
   4173c:	d8812d15 	stw	r2,1204(sp)
   41740:	d8012585 	stb	zero,1174(sp)
   41744:	bd84b03a 	or	r2,r23,r22
   41748:	003fae06 	br	41604 <___vfprintf_internal_r+0x5e4>
   4174c:	e013883a 	mov	r9,fp
   41750:	84000414 	ori	r16,r16,16
   41754:	1839883a 	mov	fp,r3
   41758:	8080080c 	andi	r2,r16,32
   4175c:	1002e726 	beq	r2,zero,422fc <___vfprintf_internal_r+0x12dc>
   41760:	d8c12d17 	ldw	r3,1204(sp)
   41764:	d9012d17 	ldw	r4,1204(sp)
   41768:	1dc00017 	ldw	r23,0(r3)
   4176c:	1d800117 	ldw	r22,4(r3)
   41770:	21000204 	addi	r4,r4,8
   41774:	00c00044 	movi	r3,1
   41778:	d9012d15 	stw	r4,1204(sp)
   4177c:	bd84b03a 	or	r2,r23,r22
   41780:	d8012585 	stb	zero,1174(sp)
   41784:	003f9f06 	br	41604 <___vfprintf_internal_r+0x5e4>
   41788:	e013883a 	mov	r9,fp
   4178c:	1839883a 	mov	fp,r3
   41790:	00c00174 	movhi	r3,5
   41794:	18f4f804 	addi	r3,r3,-11296
   41798:	d8c13615 	stw	r3,1240(sp)
   4179c:	8080080c 	andi	r2,r16,32
   417a0:	10007726 	beq	r2,zero,41980 <___vfprintf_internal_r+0x960>
   417a4:	d9012d17 	ldw	r4,1204(sp)
   417a8:	25c00017 	ldw	r23,0(r4)
   417ac:	25800117 	ldw	r22,4(r4)
   417b0:	21000204 	addi	r4,r4,8
   417b4:	d9012d15 	stw	r4,1204(sp)
   417b8:	8080004c 	andi	r2,r16,1
   417bc:	1002c226 	beq	r2,zero,422c8 <___vfprintf_internal_r+0x12a8>
   417c0:	bd84b03a 	or	r2,r23,r22
   417c4:	10035d26 	beq	r2,zero,4253c <___vfprintf_internal_r+0x151c>
   417c8:	00c00c04 	movi	r3,48
   417cc:	d8c12505 	stb	r3,1172(sp)
   417d0:	dc812545 	stb	r18,1173(sp)
   417d4:	84000094 	ori	r16,r16,2
   417d8:	00c00084 	movi	r3,2
   417dc:	d8012585 	stb	zero,1174(sp)
   417e0:	003f8806 	br	41604 <___vfprintf_internal_r+0x5e4>
   417e4:	ac800007 	ldb	r18,0(r21)
   417e8:	00c00a84 	movi	r3,42
   417ec:	adc00044 	addi	r23,r21,1
   417f0:	90c57526 	beq	r18,r3,42dc8 <___vfprintf_internal_r+0x1da8>
   417f4:	95bff404 	addi	r22,r18,-48
   417f8:	0009883a 	mov	r4,zero
   417fc:	9d84ff36 	bltu	r19,r22,42bfc <___vfprintf_internal_r+0x1bdc>
   41800:	01400284 	movi	r5,10
   41804:	0040e000 	call	40e00 <__mulsi3>
   41808:	bc800007 	ldb	r18,0(r23)
   4180c:	b089883a 	add	r4,r22,r2
   41810:	bdc00044 	addi	r23,r23,1
   41814:	95bff404 	addi	r22,r18,-48
   41818:	9dbff92e 	bgeu	r19,r22,41800 <___vfprintf_internal_r+0x7e0>
   4181c:	2007883a 	mov	r3,r4
   41820:	20044316 	blt	r4,zero,42930 <___vfprintf_internal_r+0x1910>
   41824:	b82b883a 	mov	r21,r23
   41828:	003e5a06 	br	41194 <___vfprintf_internal_r+0x174>
   4182c:	ac800007 	ldb	r18,0(r21)
   41830:	01001b04 	movi	r4,108
   41834:	a805883a 	mov	r2,r21
   41838:	91045526 	beq	r18,r4,42990 <___vfprintf_internal_r+0x1970>
   4183c:	84000414 	ori	r16,r16,16
   41840:	003e5306 	br	41190 <___vfprintf_internal_r+0x170>
   41844:	8080080c 	andi	r2,r16,32
   41848:	e013883a 	mov	r9,fp
   4184c:	10034026 	beq	r2,zero,42550 <___vfprintf_internal_r+0x1530>
   41850:	d9012d17 	ldw	r4,1204(sp)
   41854:	20800017 	ldw	r2,0(r4)
   41858:	d9012c17 	ldw	r4,1200(sp)
   4185c:	2007d7fa 	srai	r3,r4,31
   41860:	d9012d17 	ldw	r4,1204(sp)
   41864:	10c00115 	stw	r3,4(r2)
   41868:	21000104 	addi	r4,r4,4
   4186c:	d9012d15 	stw	r4,1204(sp)
   41870:	d9012c17 	ldw	r4,1200(sp)
   41874:	11000015 	stw	r4,0(r2)
   41878:	003e1f06 	br	410f8 <___vfprintf_internal_r+0xd8>
   4187c:	d9012d17 	ldw	r4,1204(sp)
   41880:	21000017 	ldw	r4,0(r4)
   41884:	d9012e15 	stw	r4,1208(sp)
   41888:	d9012d17 	ldw	r4,1204(sp)
   4188c:	20800104 	addi	r2,r4,4
   41890:	d9012e17 	ldw	r4,1208(sp)
   41894:	203ee716 	blt	r4,zero,41434 <___vfprintf_internal_r+0x414>
   41898:	d8812d15 	stw	r2,1204(sp)
   4189c:	ac800007 	ldb	r18,0(r21)
   418a0:	003e3b06 	br	41190 <___vfprintf_internal_r+0x170>
   418a4:	e013883a 	mov	r9,fp
   418a8:	1839883a 	mov	fp,r3
   418ac:	d8c12d17 	ldw	r3,1204(sp)
   418b0:	00800c04 	movi	r2,48
   418b4:	01000174 	movhi	r4,5
   418b8:	2134fd04 	addi	r4,r4,-11276
   418bc:	1dc00017 	ldw	r23,0(r3)
   418c0:	18c00104 	addi	r3,r3,4
   418c4:	d8812505 	stb	r2,1172(sp)
   418c8:	00801e04 	movi	r2,120
   418cc:	d8812545 	stb	r2,1173(sp)
   418d0:	d8c12d15 	stw	r3,1204(sp)
   418d4:	002d883a 	mov	r22,zero
   418d8:	84000094 	ori	r16,r16,2
   418dc:	d9013615 	stw	r4,1240(sp)
   418e0:	00c00084 	movi	r3,2
   418e4:	04801e04 	movi	r18,120
   418e8:	b805883a 	mov	r2,r23
   418ec:	d8012585 	stb	zero,1174(sp)
   418f0:	003f4406 	br	41604 <___vfprintf_internal_r+0x5e4>
   418f4:	84000814 	ori	r16,r16,32
   418f8:	ac800007 	ldb	r18,0(r21)
   418fc:	003e2406 	br	41190 <___vfprintf_internal_r+0x170>
   41900:	d8812d17 	ldw	r2,1204(sp)
   41904:	d8012585 	stb	zero,1174(sp)
   41908:	e013883a 	mov	r9,fp
   4190c:	14c00017 	ldw	r19,0(r2)
   41910:	1839883a 	mov	fp,r3
   41914:	15c00104 	addi	r23,r2,4
   41918:	98045526 	beq	r19,zero,42a70 <___vfprintf_internal_r+0x1a50>
   4191c:	9809883a 	mov	r4,r19
   41920:	18043116 	blt	r3,zero,429e8 <___vfprintf_internal_r+0x19c8>
   41924:	000b883a 	mov	r5,zero
   41928:	180d883a 	mov	r6,r3
   4192c:	da413c15 	stw	r9,1264(sp)
   41930:	00463880 	call	46388 <memchr>
   41934:	da413c17 	ldw	r9,1264(sp)
   41938:	10047a26 	beq	r2,zero,42b24 <___vfprintf_internal_r+0x1b04>
   4193c:	14c5c83a 	sub	r2,r2,r19
   41940:	d8812b15 	stw	r2,1196(sp)
   41944:	e083d40e 	bge	fp,r2,42898 <___vfprintf_internal_r+0x1878>
   41948:	df012815 	stw	fp,1184(sp)
   4194c:	e004e416 	blt	fp,zero,42ce0 <___vfprintf_internal_r+0x1cc0>
   41950:	d8812583 	ldbu	r2,1174(sp)
   41954:	df012b15 	stw	fp,1196(sp)
   41958:	ddc12d15 	stw	r23,1204(sp)
   4195c:	d8013115 	stw	zero,1220(sp)
   41960:	003f3c06 	br	41654 <___vfprintf_internal_r+0x634>
   41964:	00800174 	movhi	r2,5
   41968:	10b4fd04 	addi	r2,r2,-11276
   4196c:	d8813615 	stw	r2,1240(sp)
   41970:	8080080c 	andi	r2,r16,32
   41974:	e013883a 	mov	r9,fp
   41978:	1839883a 	mov	fp,r3
   4197c:	103f891e 	bne	r2,zero,417a4 <___vfprintf_internal_r+0x784>
   41980:	8080040c 	andi	r2,r16,16
   41984:	1002c326 	beq	r2,zero,42494 <___vfprintf_internal_r+0x1474>
   41988:	d8812d17 	ldw	r2,1204(sp)
   4198c:	002d883a 	mov	r22,zero
   41990:	15c00017 	ldw	r23,0(r2)
   41994:	10800104 	addi	r2,r2,4
   41998:	d8812d15 	stw	r2,1204(sp)
   4199c:	003f8606 	br	417b8 <___vfprintf_internal_r+0x798>
   419a0:	84001014 	ori	r16,r16,64
   419a4:	ac800007 	ldb	r18,0(r21)
   419a8:	003df906 	br	41190 <___vfprintf_internal_r+0x170>
   419ac:	d8812587 	ldb	r2,1174(sp)
   419b0:	1002e51e 	bne	r2,zero,42548 <___vfprintf_internal_r+0x1528>
   419b4:	00800804 	movi	r2,32
   419b8:	d8812585 	stb	r2,1174(sp)
   419bc:	ac800007 	ldb	r18,0(r21)
   419c0:	003df306 	br	41190 <___vfprintf_internal_r+0x170>
   419c4:	84000054 	ori	r16,r16,1
   419c8:	ac800007 	ldb	r18,0(r21)
   419cc:	003df006 	br	41190 <___vfprintf_internal_r+0x170>
   419d0:	84002014 	ori	r16,r16,128
   419d4:	ac800007 	ldb	r18,0(r21)
   419d8:	003ded06 	br	41190 <___vfprintf_internal_r+0x170>
   419dc:	0009883a 	mov	r4,zero
   419e0:	95bff404 	addi	r22,r18,-48
   419e4:	182f883a 	mov	r23,r3
   419e8:	01400284 	movi	r5,10
   419ec:	0040e000 	call	40e00 <__mulsi3>
   419f0:	ac800007 	ldb	r18,0(r21)
   419f4:	1589883a 	add	r4,r2,r22
   419f8:	ad400044 	addi	r21,r21,1
   419fc:	95bff404 	addi	r22,r18,-48
   41a00:	9dbff92e 	bgeu	r19,r22,419e8 <___vfprintf_internal_r+0x9c8>
   41a04:	b807883a 	mov	r3,r23
   41a08:	d9012e15 	stw	r4,1208(sp)
   41a0c:	003de106 	br	41194 <___vfprintf_internal_r+0x174>
   41a10:	00800ac4 	movi	r2,43
   41a14:	d8812585 	stb	r2,1174(sp)
   41a18:	ac800007 	ldb	r18,0(r21)
   41a1c:	003ddc06 	br	41190 <___vfprintf_internal_r+0x170>
   41a20:	d8c12d17 	ldw	r3,1204(sp)
   41a24:	d9012d17 	ldw	r4,1204(sp)
   41a28:	e013883a 	mov	r9,fp
   41a2c:	18800017 	ldw	r2,0(r3)
   41a30:	21000104 	addi	r4,r4,4
   41a34:	00c00044 	movi	r3,1
   41a38:	d8c12815 	stw	r3,1184(sp)
   41a3c:	d8012585 	stb	zero,1174(sp)
   41a40:	d8810405 	stb	r2,1040(sp)
   41a44:	d9012d15 	stw	r4,1204(sp)
   41a48:	d8c12b15 	stw	r3,1196(sp)
   41a4c:	dcc10404 	addi	r19,sp,1040
   41a50:	003dda06 	br	411bc <___vfprintf_internal_r+0x19c>
   41a54:	e013883a 	mov	r9,fp
   41a58:	1839883a 	mov	fp,r3
   41a5c:	003ed806 	br	415c0 <___vfprintf_internal_r+0x5a0>
   41a60:	e013883a 	mov	r9,fp
   41a64:	1839883a 	mov	fp,r3
   41a68:	003f2d06 	br	41720 <___vfprintf_internal_r+0x700>
   41a6c:	e013883a 	mov	r9,fp
   41a70:	1839883a 	mov	fp,r3
   41a74:	003f3806 	br	41758 <___vfprintf_internal_r+0x738>
   41a78:	da011d17 	ldw	r8,1140(sp)
   41a7c:	d8c11c17 	ldw	r3,1136(sp)
   41a80:	d8812587 	ldb	r2,1174(sp)
   41a84:	10000b26 	beq	r2,zero,41ab4 <___vfprintf_internal_r+0xa94>
   41a88:	d8812584 	addi	r2,sp,1174
   41a8c:	48800015 	stw	r2,0(r9)
   41a90:	00800044 	movi	r2,1
   41a94:	48800115 	stw	r2,4(r9)
   41a98:	4091883a 	add	r8,r8,r2
   41a9c:	1887883a 	add	r3,r3,r2
   41aa0:	da011d15 	stw	r8,1140(sp)
   41aa4:	d8c11c15 	stw	r3,1136(sp)
   41aa8:	008001c4 	movi	r2,7
   41aac:	10c18e16 	blt	r2,r3,420e8 <___vfprintf_internal_r+0x10c8>
   41ab0:	4a400204 	addi	r9,r9,8
   41ab4:	d9012a17 	ldw	r4,1192(sp)
   41ab8:	20000b26 	beq	r4,zero,41ae8 <___vfprintf_internal_r+0xac8>
   41abc:	d8812504 	addi	r2,sp,1172
   41ac0:	48800015 	stw	r2,0(r9)
   41ac4:	00800084 	movi	r2,2
   41ac8:	48800115 	stw	r2,4(r9)
   41acc:	4091883a 	add	r8,r8,r2
   41ad0:	18c00044 	addi	r3,r3,1
   41ad4:	da011d15 	stw	r8,1140(sp)
   41ad8:	d8c11c15 	stw	r3,1136(sp)
   41adc:	008001c4 	movi	r2,7
   41ae0:	10c17816 	blt	r2,r3,420c4 <___vfprintf_internal_r+0x10a4>
   41ae4:	4a400204 	addi	r9,r9,8
   41ae8:	d9012f17 	ldw	r4,1212(sp)
   41aec:	00802004 	movi	r2,128
   41af0:	2080fc26 	beq	r4,r2,41ee4 <___vfprintf_internal_r+0xec4>
   41af4:	d8813117 	ldw	r2,1220(sp)
   41af8:	d9012b17 	ldw	r4,1196(sp)
   41afc:	112fc83a 	sub	r23,r2,r4
   41b00:	05c02a0e 	bge	zero,r23,41bac <___vfprintf_internal_r+0xb8c>
   41b04:	07000404 	movi	fp,16
   41b08:	05000174 	movhi	r20,5
   41b0c:	a5350884 	addi	r20,r20,-11230
   41b10:	e5c01d0e 	bge	fp,r23,41b88 <___vfprintf_internal_r+0xb68>
   41b14:	dc812a15 	stw	r18,1192(sp)
   41b18:	058001c4 	movi	r22,7
   41b1c:	a025883a 	mov	r18,r20
   41b20:	8029883a 	mov	r20,r16
   41b24:	dc012917 	ldw	r16,1188(sp)
   41b28:	00000306 	br	41b38 <___vfprintf_internal_r+0xb18>
   41b2c:	bdfffc04 	addi	r23,r23,-16
   41b30:	4a400204 	addi	r9,r9,8
   41b34:	e5c0110e 	bge	fp,r23,41b7c <___vfprintf_internal_r+0xb5c>
   41b38:	4c800015 	stw	r18,0(r9)
   41b3c:	4f000115 	stw	fp,4(r9)
   41b40:	42000404 	addi	r8,r8,16
   41b44:	18c00044 	addi	r3,r3,1
   41b48:	da011d15 	stw	r8,1140(sp)
   41b4c:	d8c11c15 	stw	r3,1136(sp)
   41b50:	b0fff60e 	bge	r22,r3,41b2c <___vfprintf_internal_r+0xb0c>
   41b54:	8809883a 	mov	r4,r17
   41b58:	800b883a 	mov	r5,r16
   41b5c:	d9811b04 	addi	r6,sp,1132
   41b60:	0040fec0 	call	40fec <__sprint_r>
   41b64:	103e741e 	bne	r2,zero,41538 <___vfprintf_internal_r+0x518>
   41b68:	bdfffc04 	addi	r23,r23,-16
   41b6c:	da011d17 	ldw	r8,1140(sp)
   41b70:	d8c11c17 	ldw	r3,1136(sp)
   41b74:	da400404 	addi	r9,sp,16
   41b78:	e5ffef16 	blt	fp,r23,41b38 <___vfprintf_internal_r+0xb18>
   41b7c:	a021883a 	mov	r16,r20
   41b80:	9029883a 	mov	r20,r18
   41b84:	dc812a17 	ldw	r18,1192(sp)
   41b88:	4d000015 	stw	r20,0(r9)
   41b8c:	4dc00115 	stw	r23,4(r9)
   41b90:	45d1883a 	add	r8,r8,r23
   41b94:	18c00044 	addi	r3,r3,1
   41b98:	da011d15 	stw	r8,1140(sp)
   41b9c:	d8c11c15 	stw	r3,1136(sp)
   41ba0:	008001c4 	movi	r2,7
   41ba4:	10c13e16 	blt	r2,r3,420a0 <___vfprintf_internal_r+0x1080>
   41ba8:	4a400204 	addi	r9,r9,8
   41bac:	8080400c 	andi	r2,r16,256
   41bb0:	1000831e 	bne	r2,zero,41dc0 <___vfprintf_internal_r+0xda0>
   41bb4:	d8812b17 	ldw	r2,1196(sp)
   41bb8:	4cc00015 	stw	r19,0(r9)
   41bbc:	48800115 	stw	r2,4(r9)
   41bc0:	4091883a 	add	r8,r8,r2
   41bc4:	18c00044 	addi	r3,r3,1
   41bc8:	da011d15 	stw	r8,1140(sp)
   41bcc:	d8c11c15 	stw	r3,1136(sp)
   41bd0:	008001c4 	movi	r2,7
   41bd4:	10c05316 	blt	r2,r3,41d24 <___vfprintf_internal_r+0xd04>
   41bd8:	4a400204 	addi	r9,r9,8
   41bdc:	8400010c 	andi	r16,r16,4
   41be0:	80002e26 	beq	r16,zero,41c9c <___vfprintf_internal_r+0xc7c>
   41be4:	d8812e17 	ldw	r2,1208(sp)
   41be8:	d8c12817 	ldw	r3,1184(sp)
   41bec:	10e1c83a 	sub	r16,r2,r3
   41bf0:	04002a0e 	bge	zero,r16,41c9c <___vfprintf_internal_r+0xc7c>
   41bf4:	04800404 	movi	r18,16
   41bf8:	d8c11c17 	ldw	r3,1136(sp)
   41bfc:	05c00174 	movhi	r23,5
   41c00:	bdf50484 	addi	r23,r23,-11246
   41c04:	9400170e 	bge	r18,r16,41c64 <___vfprintf_internal_r+0xc44>
   41c08:	04c001c4 	movi	r19,7
   41c0c:	dd012917 	ldw	r20,1188(sp)
   41c10:	00000306 	br	41c20 <___vfprintf_internal_r+0xc00>
   41c14:	843ffc04 	addi	r16,r16,-16
   41c18:	4a400204 	addi	r9,r9,8
   41c1c:	9400110e 	bge	r18,r16,41c64 <___vfprintf_internal_r+0xc44>
   41c20:	4dc00015 	stw	r23,0(r9)
   41c24:	4c800115 	stw	r18,4(r9)
   41c28:	42000404 	addi	r8,r8,16
   41c2c:	18c00044 	addi	r3,r3,1
   41c30:	da011d15 	stw	r8,1140(sp)
   41c34:	d8c11c15 	stw	r3,1136(sp)
   41c38:	98fff60e 	bge	r19,r3,41c14 <___vfprintf_internal_r+0xbf4>
   41c3c:	8809883a 	mov	r4,r17
   41c40:	a00b883a 	mov	r5,r20
   41c44:	d9811b04 	addi	r6,sp,1132
   41c48:	0040fec0 	call	40fec <__sprint_r>
   41c4c:	103e3a1e 	bne	r2,zero,41538 <___vfprintf_internal_r+0x518>
   41c50:	843ffc04 	addi	r16,r16,-16
   41c54:	da011d17 	ldw	r8,1140(sp)
   41c58:	d8c11c17 	ldw	r3,1136(sp)
   41c5c:	da400404 	addi	r9,sp,16
   41c60:	943fef16 	blt	r18,r16,41c20 <___vfprintf_internal_r+0xc00>
   41c64:	4dc00015 	stw	r23,0(r9)
   41c68:	4c000115 	stw	r16,4(r9)
   41c6c:	8211883a 	add	r8,r16,r8
   41c70:	18c00044 	addi	r3,r3,1
   41c74:	da011d15 	stw	r8,1140(sp)
   41c78:	d8c11c15 	stw	r3,1136(sp)
   41c7c:	008001c4 	movi	r2,7
   41c80:	10c0060e 	bge	r2,r3,41c9c <___vfprintf_internal_r+0xc7c>
   41c84:	d9412917 	ldw	r5,1188(sp)
   41c88:	8809883a 	mov	r4,r17
   41c8c:	d9811b04 	addi	r6,sp,1132
   41c90:	0040fec0 	call	40fec <__sprint_r>
   41c94:	103e281e 	bne	r2,zero,41538 <___vfprintf_internal_r+0x518>
   41c98:	da011d17 	ldw	r8,1140(sp)
   41c9c:	dd012817 	ldw	r20,1184(sp)
   41ca0:	d9012e17 	ldw	r4,1208(sp)
   41ca4:	a100010e 	bge	r20,r4,41cac <___vfprintf_internal_r+0xc8c>
   41ca8:	2029883a 	mov	r20,r4
   41cac:	d8812c17 	ldw	r2,1200(sp)
   41cb0:	1505883a 	add	r2,r2,r20
   41cb4:	d8812c15 	stw	r2,1200(sp)
   41cb8:	4000b91e 	bne	r8,zero,41fa0 <___vfprintf_internal_r+0xf80>
   41cbc:	d8011c15 	stw	zero,1136(sp)
   41cc0:	a8800007 	ldb	r2,0(r21)
   41cc4:	da400404 	addi	r9,sp,16
   41cc8:	103d0d1e 	bne	r2,zero,41100 <___vfprintf_internal_r+0xe0>
   41ccc:	a825883a 	mov	r18,r21
   41cd0:	003d2306 	br	41160 <___vfprintf_internal_r+0x140>
   41cd4:	d9412917 	ldw	r5,1188(sp)
   41cd8:	8809883a 	mov	r4,r17
   41cdc:	d9811b04 	addi	r6,sp,1132
   41ce0:	0040fec0 	call	40fec <__sprint_r>
   41ce4:	103e141e 	bne	r2,zero,41538 <___vfprintf_internal_r+0x518>
   41ce8:	da011d17 	ldw	r8,1140(sp)
   41cec:	da400404 	addi	r9,sp,16
   41cf0:	8080004c 	andi	r2,r16,1
   41cf4:	103fb926 	beq	r2,zero,41bdc <___vfprintf_internal_r+0xbbc>
   41cf8:	d8c11c17 	ldw	r3,1136(sp)
   41cfc:	d9013717 	ldw	r4,1244(sp)
   41d00:	00800044 	movi	r2,1
   41d04:	48800115 	stw	r2,4(r9)
   41d08:	49000015 	stw	r4,0(r9)
   41d0c:	4091883a 	add	r8,r8,r2
   41d10:	1887883a 	add	r3,r3,r2
   41d14:	da011d15 	stw	r8,1140(sp)
   41d18:	d8c11c15 	stw	r3,1136(sp)
   41d1c:	008001c4 	movi	r2,7
   41d20:	10ffad0e 	bge	r2,r3,41bd8 <___vfprintf_internal_r+0xbb8>
   41d24:	d9412917 	ldw	r5,1188(sp)
   41d28:	8809883a 	mov	r4,r17
   41d2c:	d9811b04 	addi	r6,sp,1132
   41d30:	0040fec0 	call	40fec <__sprint_r>
   41d34:	103e001e 	bne	r2,zero,41538 <___vfprintf_internal_r+0x518>
   41d38:	da400404 	addi	r9,sp,16
   41d3c:	da011d17 	ldw	r8,1140(sp)
   41d40:	003fa606 	br	41bdc <___vfprintf_internal_r+0xbbc>
   41d44:	18803fcc 	andi	r2,r3,255
   41d48:	00c00044 	movi	r3,1
   41d4c:	10c10126 	beq	r2,r3,42154 <___vfprintf_internal_r+0x1134>
   41d50:	00c00084 	movi	r3,2
   41d54:	10c0ed26 	beq	r2,r3,4210c <___vfprintf_internal_r+0x10ec>
   41d58:	d8c10dc4 	addi	r3,sp,1079
   41d5c:	b808d0fa 	srli	r4,r23,3
   41d60:	b00a977a 	slli	r5,r22,29
   41d64:	b02cd0fa 	srli	r22,r22,3
   41d68:	bdc001cc 	andi	r23,r23,7
   41d6c:	b8800c04 	addi	r2,r23,48
   41d70:	292eb03a 	or	r23,r5,r4
   41d74:	18800005 	stb	r2,0(r3)
   41d78:	bd88b03a 	or	r4,r23,r22
   41d7c:	1827883a 	mov	r19,r3
   41d80:	18ffffc4 	addi	r3,r3,-1
   41d84:	203ff51e 	bne	r4,zero,41d5c <___vfprintf_internal_r+0xd3c>
   41d88:	8100004c 	andi	r4,r16,1
   41d8c:	980b883a 	mov	r5,r19
   41d90:	20000726 	beq	r4,zero,41db0 <___vfprintf_internal_r+0xd90>
   41d94:	10803fcc 	andi	r2,r2,255
   41d98:	1080201c 	xori	r2,r2,128
   41d9c:	10bfe004 	addi	r2,r2,-128
   41da0:	01000c04 	movi	r4,48
   41da4:	11000226 	beq	r2,r4,41db0 <___vfprintf_internal_r+0xd90>
   41da8:	1827883a 	mov	r19,r3
   41dac:	293fffc5 	stb	r4,-1(r5)
   41db0:	d8812717 	ldw	r2,1180(sp)
   41db4:	14c5c83a 	sub	r2,r2,r19
   41db8:	d8812b15 	stw	r2,1196(sp)
   41dbc:	003e1f06 	br	4163c <___vfprintf_internal_r+0x61c>
   41dc0:	00801944 	movi	r2,101
   41dc4:	14807c0e 	bge	r2,r18,41fb8 <___vfprintf_internal_r+0xf98>
   41dc8:	d9013317 	ldw	r4,1228(sp)
   41dcc:	d9413417 	ldw	r5,1232(sp)
   41dd0:	000d883a 	mov	r6,zero
   41dd4:	000f883a 	mov	r7,zero
   41dd8:	d8c13b15 	stw	r3,1260(sp)
   41ddc:	da013a15 	stw	r8,1256(sp)
   41de0:	da413c15 	stw	r9,1264(sp)
   41de4:	0049ac80 	call	49ac8 <__eqdf2>
   41de8:	d8c13b17 	ldw	r3,1260(sp)
   41dec:	da013a17 	ldw	r8,1256(sp)
   41df0:	da413c17 	ldw	r9,1264(sp)
   41df4:	1001001e 	bne	r2,zero,421f8 <___vfprintf_internal_r+0x11d8>
   41df8:	00800174 	movhi	r2,5
   41dfc:	10b50404 	addi	r2,r2,-11248
   41e00:	48800015 	stw	r2,0(r9)
   41e04:	00800044 	movi	r2,1
   41e08:	48800115 	stw	r2,4(r9)
   41e0c:	4091883a 	add	r8,r8,r2
   41e10:	1887883a 	add	r3,r3,r2
   41e14:	da011d15 	stw	r8,1140(sp)
   41e18:	d8c11c15 	stw	r3,1136(sp)
   41e1c:	008001c4 	movi	r2,7
   41e20:	10c20316 	blt	r2,r3,42630 <___vfprintf_internal_r+0x1610>
   41e24:	4a400204 	addi	r9,r9,8
   41e28:	d8812417 	ldw	r2,1168(sp)
   41e2c:	d8c13217 	ldw	r3,1224(sp)
   41e30:	10c00216 	blt	r2,r3,41e3c <___vfprintf_internal_r+0xe1c>
   41e34:	8080004c 	andi	r2,r16,1
   41e38:	103f6826 	beq	r2,zero,41bdc <___vfprintf_internal_r+0xbbc>
   41e3c:	d8c11c17 	ldw	r3,1136(sp)
   41e40:	d9013717 	ldw	r4,1244(sp)
   41e44:	00800044 	movi	r2,1
   41e48:	48800115 	stw	r2,4(r9)
   41e4c:	49000015 	stw	r4,0(r9)
   41e50:	4091883a 	add	r8,r8,r2
   41e54:	1887883a 	add	r3,r3,r2
   41e58:	da011d15 	stw	r8,1140(sp)
   41e5c:	d8c11c15 	stw	r3,1136(sp)
   41e60:	008001c4 	movi	r2,7
   41e64:	10c2ce16 	blt	r2,r3,429a0 <___vfprintf_internal_r+0x1980>
   41e68:	4a400204 	addi	r9,r9,8
   41e6c:	d8813217 	ldw	r2,1224(sp)
   41e70:	14bfffc4 	addi	r18,r2,-1
   41e74:	04bf590e 	bge	zero,r18,41bdc <___vfprintf_internal_r+0xbbc>
   41e78:	04c00404 	movi	r19,16
   41e7c:	d8c11c17 	ldw	r3,1136(sp)
   41e80:	05000174 	movhi	r20,5
   41e84:	a5350884 	addi	r20,r20,-11230
   41e88:	9c818a0e 	bge	r19,r18,424b4 <___vfprintf_internal_r+0x1494>
   41e8c:	058001c4 	movi	r22,7
   41e90:	ddc12917 	ldw	r23,1188(sp)
   41e94:	00000306 	br	41ea4 <___vfprintf_internal_r+0xe84>
   41e98:	4a400204 	addi	r9,r9,8
   41e9c:	94bffc04 	addi	r18,r18,-16
   41ea0:	9c81840e 	bge	r19,r18,424b4 <___vfprintf_internal_r+0x1494>
   41ea4:	4d000015 	stw	r20,0(r9)
   41ea8:	4cc00115 	stw	r19,4(r9)
   41eac:	42000404 	addi	r8,r8,16
   41eb0:	18c00044 	addi	r3,r3,1
   41eb4:	da011d15 	stw	r8,1140(sp)
   41eb8:	d8c11c15 	stw	r3,1136(sp)
   41ebc:	b0fff60e 	bge	r22,r3,41e98 <___vfprintf_internal_r+0xe78>
   41ec0:	8809883a 	mov	r4,r17
   41ec4:	b80b883a 	mov	r5,r23
   41ec8:	d9811b04 	addi	r6,sp,1132
   41ecc:	0040fec0 	call	40fec <__sprint_r>
   41ed0:	103d991e 	bne	r2,zero,41538 <___vfprintf_internal_r+0x518>
   41ed4:	da011d17 	ldw	r8,1140(sp)
   41ed8:	d8c11c17 	ldw	r3,1136(sp)
   41edc:	da400404 	addi	r9,sp,16
   41ee0:	003fee06 	br	41e9c <___vfprintf_internal_r+0xe7c>
   41ee4:	d8812e17 	ldw	r2,1208(sp)
   41ee8:	d9012817 	ldw	r4,1184(sp)
   41eec:	112fc83a 	sub	r23,r2,r4
   41ef0:	05ff000e 	bge	zero,r23,41af4 <___vfprintf_internal_r+0xad4>
   41ef4:	07000404 	movi	fp,16
   41ef8:	05000174 	movhi	r20,5
   41efc:	a5350884 	addi	r20,r20,-11230
   41f00:	e5c01d0e 	bge	fp,r23,41f78 <___vfprintf_internal_r+0xf58>
   41f04:	dc812a15 	stw	r18,1192(sp)
   41f08:	058001c4 	movi	r22,7
   41f0c:	a025883a 	mov	r18,r20
   41f10:	8029883a 	mov	r20,r16
   41f14:	dc012917 	ldw	r16,1188(sp)
   41f18:	00000306 	br	41f28 <___vfprintf_internal_r+0xf08>
   41f1c:	bdfffc04 	addi	r23,r23,-16
   41f20:	4a400204 	addi	r9,r9,8
   41f24:	e5c0110e 	bge	fp,r23,41f6c <___vfprintf_internal_r+0xf4c>
   41f28:	4c800015 	stw	r18,0(r9)
   41f2c:	4f000115 	stw	fp,4(r9)
   41f30:	42000404 	addi	r8,r8,16
   41f34:	18c00044 	addi	r3,r3,1
   41f38:	da011d15 	stw	r8,1140(sp)
   41f3c:	d8c11c15 	stw	r3,1136(sp)
   41f40:	b0fff60e 	bge	r22,r3,41f1c <___vfprintf_internal_r+0xefc>
   41f44:	8809883a 	mov	r4,r17
   41f48:	800b883a 	mov	r5,r16
   41f4c:	d9811b04 	addi	r6,sp,1132
   41f50:	0040fec0 	call	40fec <__sprint_r>
   41f54:	103d781e 	bne	r2,zero,41538 <___vfprintf_internal_r+0x518>
   41f58:	bdfffc04 	addi	r23,r23,-16
   41f5c:	da011d17 	ldw	r8,1140(sp)
   41f60:	d8c11c17 	ldw	r3,1136(sp)
   41f64:	da400404 	addi	r9,sp,16
   41f68:	e5ffef16 	blt	fp,r23,41f28 <___vfprintf_internal_r+0xf08>
   41f6c:	a021883a 	mov	r16,r20
   41f70:	9029883a 	mov	r20,r18
   41f74:	dc812a17 	ldw	r18,1192(sp)
   41f78:	4d000015 	stw	r20,0(r9)
   41f7c:	4dc00115 	stw	r23,4(r9)
   41f80:	45d1883a 	add	r8,r8,r23
   41f84:	18c00044 	addi	r3,r3,1
   41f88:	da011d15 	stw	r8,1140(sp)
   41f8c:	d8c11c15 	stw	r3,1136(sp)
   41f90:	008001c4 	movi	r2,7
   41f94:	10c13616 	blt	r2,r3,42470 <___vfprintf_internal_r+0x1450>
   41f98:	4a400204 	addi	r9,r9,8
   41f9c:	003ed506 	br	41af4 <___vfprintf_internal_r+0xad4>
   41fa0:	d9412917 	ldw	r5,1188(sp)
   41fa4:	8809883a 	mov	r4,r17
   41fa8:	d9811b04 	addi	r6,sp,1132
   41fac:	0040fec0 	call	40fec <__sprint_r>
   41fb0:	103f4226 	beq	r2,zero,41cbc <___vfprintf_internal_r+0xc9c>
   41fb4:	003d6006 	br	41538 <___vfprintf_internal_r+0x518>
   41fb8:	d9013217 	ldw	r4,1224(sp)
   41fbc:	00800044 	movi	r2,1
   41fc0:	4cc00015 	stw	r19,0(r9)
   41fc4:	1101000e 	bge	r2,r4,423c8 <___vfprintf_internal_r+0x13a8>
   41fc8:	00800044 	movi	r2,1
   41fcc:	48800115 	stw	r2,4(r9)
   41fd0:	4091883a 	add	r8,r8,r2
   41fd4:	1887883a 	add	r3,r3,r2
   41fd8:	da011d15 	stw	r8,1140(sp)
   41fdc:	d8c11c15 	stw	r3,1136(sp)
   41fe0:	008001c4 	movi	r2,7
   41fe4:	10c10c16 	blt	r2,r3,42418 <___vfprintf_internal_r+0x13f8>
   41fe8:	4a400204 	addi	r9,r9,8
   41fec:	d8813717 	ldw	r2,1244(sp)
   41ff0:	48800015 	stw	r2,0(r9)
   41ff4:	00800044 	movi	r2,1
   41ff8:	48800115 	stw	r2,4(r9)
   41ffc:	4091883a 	add	r8,r8,r2
   42000:	1887883a 	add	r3,r3,r2
   42004:	da011d15 	stw	r8,1140(sp)
   42008:	d8c11c15 	stw	r3,1136(sp)
   4200c:	008001c4 	movi	r2,7
   42010:	10c10a16 	blt	r2,r3,4243c <___vfprintf_internal_r+0x141c>
   42014:	4c800204 	addi	r18,r9,8
   42018:	d9013317 	ldw	r4,1228(sp)
   4201c:	d9413417 	ldw	r5,1232(sp)
   42020:	000d883a 	mov	r6,zero
   42024:	000f883a 	mov	r7,zero
   42028:	d8c13b15 	stw	r3,1260(sp)
   4202c:	da013a15 	stw	r8,1256(sp)
   42030:	0049b240 	call	49b24 <__nedf2>
   42034:	d8c13b17 	ldw	r3,1260(sp)
   42038:	da013a17 	ldw	r8,1256(sp)
   4203c:	1000ba26 	beq	r2,zero,42328 <___vfprintf_internal_r+0x1308>
   42040:	d9013217 	ldw	r4,1224(sp)
   42044:	9cc00044 	addi	r19,r19,1
   42048:	94c00015 	stw	r19,0(r18)
   4204c:	20bfffc4 	addi	r2,r4,-1
   42050:	90800115 	stw	r2,4(r18)
   42054:	4091883a 	add	r8,r8,r2
   42058:	18c00044 	addi	r3,r3,1
   4205c:	da011d15 	stw	r8,1140(sp)
   42060:	d8c11c15 	stw	r3,1136(sp)
   42064:	008001c4 	movi	r2,7
   42068:	10c0e216 	blt	r2,r3,423f4 <___vfprintf_internal_r+0x13d4>
   4206c:	94800204 	addi	r18,r18,8
   42070:	d9013517 	ldw	r4,1236(sp)
   42074:	d8811fc4 	addi	r2,sp,1151
   42078:	90800015 	stw	r2,0(r18)
   4207c:	91000115 	stw	r4,4(r18)
   42080:	4111883a 	add	r8,r8,r4
   42084:	18c00044 	addi	r3,r3,1
   42088:	da011d15 	stw	r8,1140(sp)
   4208c:	d8c11c15 	stw	r3,1136(sp)
   42090:	008001c4 	movi	r2,7
   42094:	10ff2316 	blt	r2,r3,41d24 <___vfprintf_internal_r+0xd04>
   42098:	92400204 	addi	r9,r18,8
   4209c:	003ecf06 	br	41bdc <___vfprintf_internal_r+0xbbc>
   420a0:	d9412917 	ldw	r5,1188(sp)
   420a4:	8809883a 	mov	r4,r17
   420a8:	d9811b04 	addi	r6,sp,1132
   420ac:	0040fec0 	call	40fec <__sprint_r>
   420b0:	103d211e 	bne	r2,zero,41538 <___vfprintf_internal_r+0x518>
   420b4:	da011d17 	ldw	r8,1140(sp)
   420b8:	d8c11c17 	ldw	r3,1136(sp)
   420bc:	da400404 	addi	r9,sp,16
   420c0:	003eba06 	br	41bac <___vfprintf_internal_r+0xb8c>
   420c4:	d9412917 	ldw	r5,1188(sp)
   420c8:	8809883a 	mov	r4,r17
   420cc:	d9811b04 	addi	r6,sp,1132
   420d0:	0040fec0 	call	40fec <__sprint_r>
   420d4:	103d181e 	bne	r2,zero,41538 <___vfprintf_internal_r+0x518>
   420d8:	da011d17 	ldw	r8,1140(sp)
   420dc:	d8c11c17 	ldw	r3,1136(sp)
   420e0:	da400404 	addi	r9,sp,16
   420e4:	003e8006 	br	41ae8 <___vfprintf_internal_r+0xac8>
   420e8:	d9412917 	ldw	r5,1188(sp)
   420ec:	8809883a 	mov	r4,r17
   420f0:	d9811b04 	addi	r6,sp,1132
   420f4:	0040fec0 	call	40fec <__sprint_r>
   420f8:	103d0f1e 	bne	r2,zero,41538 <___vfprintf_internal_r+0x518>
   420fc:	da011d17 	ldw	r8,1140(sp)
   42100:	d8c11c17 	ldw	r3,1136(sp)
   42104:	da400404 	addi	r9,sp,16
   42108:	003e6a06 	br	41ab4 <___vfprintf_internal_r+0xa94>
   4210c:	d9413617 	ldw	r5,1240(sp)
   42110:	d8810dc4 	addi	r2,sp,1079
   42114:	b8c003cc 	andi	r3,r23,15
   42118:	b008973a 	slli	r4,r22,28
   4211c:	28c7883a 	add	r3,r5,r3
   42120:	b82ed13a 	srli	r23,r23,4
   42124:	18c00003 	ldbu	r3,0(r3)
   42128:	b02cd13a 	srli	r22,r22,4
   4212c:	25eeb03a 	or	r23,r4,r23
   42130:	10c00005 	stb	r3,0(r2)
   42134:	bd86b03a 	or	r3,r23,r22
   42138:	1027883a 	mov	r19,r2
   4213c:	10bfffc4 	addi	r2,r2,-1
   42140:	183ff41e 	bne	r3,zero,42114 <___vfprintf_internal_r+0x10f4>
   42144:	003f1a06 	br	41db0 <___vfprintf_internal_r+0xd90>
   42148:	d8012b15 	stw	zero,1196(sp)
   4214c:	dcc10e04 	addi	r19,sp,1080
   42150:	003d3a06 	br	4163c <___vfprintf_internal_r+0x61c>
   42154:	b0025426 	beq	r22,zero,42aa8 <___vfprintf_internal_r+0x1a88>
   42158:	b807883a 	mov	r3,r23
   4215c:	d8810dc4 	addi	r2,sp,1079
   42160:	882f883a 	mov	r23,r17
   42164:	04c00244 	movi	r19,9
   42168:	8023883a 	mov	r17,r16
   4216c:	da412815 	stw	r9,1184(sp)
   42170:	1821883a 	mov	r16,r3
   42174:	8009883a 	mov	r4,r16
   42178:	b00b883a 	mov	r5,r22
   4217c:	01800284 	movi	r6,10
   42180:	000f883a 	mov	r7,zero
   42184:	1029883a 	mov	r20,r2
   42188:	0048c000 	call	48c00 <__umoddi3>
   4218c:	10800c04 	addi	r2,r2,48
   42190:	8009883a 	mov	r4,r16
   42194:	b00b883a 	mov	r5,r22
   42198:	a0800005 	stb	r2,0(r20)
   4219c:	01800284 	movi	r6,10
   421a0:	000f883a 	mov	r7,zero
   421a4:	00485b00 	call	485b0 <__udivdi3>
   421a8:	1021883a 	mov	r16,r2
   421ac:	182d883a 	mov	r22,r3
   421b0:	a0bfffc4 	addi	r2,r20,-1
   421b4:	183fef1e 	bne	r3,zero,42174 <___vfprintf_internal_r+0x1154>
   421b8:	9c3fee36 	bltu	r19,r16,42174 <___vfprintf_internal_r+0x1154>
   421bc:	da412817 	ldw	r9,1184(sp)
   421c0:	8005883a 	mov	r2,r16
   421c4:	8821883a 	mov	r16,r17
   421c8:	b823883a 	mov	r17,r23
   421cc:	102f883a 	mov	r23,r2
   421d0:	d8812717 	ldw	r2,1180(sp)
   421d4:	a4ffffc4 	addi	r19,r20,-1
   421d8:	bdc00c04 	addi	r23,r23,48
   421dc:	14c5c83a 	sub	r2,r2,r19
   421e0:	a5ffffc5 	stb	r23,-1(r20)
   421e4:	d8812b15 	stw	r2,1196(sp)
   421e8:	003d1406 	br	4163c <___vfprintf_internal_r+0x61c>
   421ec:	00c00044 	movi	r3,1
   421f0:	bd84b03a 	or	r2,r23,r22
   421f4:	003d0306 	br	41604 <___vfprintf_internal_r+0x5e4>
   421f8:	dc812417 	ldw	r18,1168(sp)
   421fc:	0481140e 	bge	zero,r18,42650 <___vfprintf_internal_r+0x1630>
   42200:	d9013217 	ldw	r4,1224(sp)
   42204:	4cc00015 	stw	r19,0(r9)
   42208:	9100ec16 	blt	r18,r4,425bc <___vfprintf_internal_r+0x159c>
   4220c:	49000115 	stw	r4,4(r9)
   42210:	4111883a 	add	r8,r8,r4
   42214:	18c00044 	addi	r3,r3,1
   42218:	da011d15 	stw	r8,1140(sp)
   4221c:	d8c11c15 	stw	r3,1136(sp)
   42220:	008001c4 	movi	r2,7
   42224:	10c23616 	blt	r2,r3,42b00 <___vfprintf_internal_r+0x1ae0>
   42228:	4a400204 	addi	r9,r9,8
   4222c:	d8813217 	ldw	r2,1224(sp)
   42230:	90a5c83a 	sub	r18,r18,r2
   42234:	04beae0e 	bge	zero,r18,41cf0 <___vfprintf_internal_r+0xcd0>
   42238:	04c00404 	movi	r19,16
   4223c:	d8c11c17 	ldw	r3,1136(sp)
   42240:	05000174 	movhi	r20,5
   42244:	a5350884 	addi	r20,r20,-11230
   42248:	9c81dd0e 	bge	r19,r18,429c0 <___vfprintf_internal_r+0x19a0>
   4224c:	058001c4 	movi	r22,7
   42250:	ddc12917 	ldw	r23,1188(sp)
   42254:	00000306 	br	42264 <___vfprintf_internal_r+0x1244>
   42258:	4a400204 	addi	r9,r9,8
   4225c:	94bffc04 	addi	r18,r18,-16
   42260:	9c81d70e 	bge	r19,r18,429c0 <___vfprintf_internal_r+0x19a0>
   42264:	4d000015 	stw	r20,0(r9)
   42268:	4cc00115 	stw	r19,4(r9)
   4226c:	42000404 	addi	r8,r8,16
   42270:	18c00044 	addi	r3,r3,1
   42274:	da011d15 	stw	r8,1140(sp)
   42278:	d8c11c15 	stw	r3,1136(sp)
   4227c:	b0fff60e 	bge	r22,r3,42258 <___vfprintf_internal_r+0x1238>
   42280:	8809883a 	mov	r4,r17
   42284:	b80b883a 	mov	r5,r23
   42288:	d9811b04 	addi	r6,sp,1132
   4228c:	0040fec0 	call	40fec <__sprint_r>
   42290:	103ca91e 	bne	r2,zero,41538 <___vfprintf_internal_r+0x518>
   42294:	da011d17 	ldw	r8,1140(sp)
   42298:	d8c11c17 	ldw	r3,1136(sp)
   4229c:	da400404 	addi	r9,sp,16
   422a0:	003fee06 	br	4225c <___vfprintf_internal_r+0x123c>
   422a4:	d9412917 	ldw	r5,1188(sp)
   422a8:	8809883a 	mov	r4,r17
   422ac:	d9811b04 	addi	r6,sp,1132
   422b0:	0040fec0 	call	40fec <__sprint_r>
   422b4:	103ca01e 	bne	r2,zero,41538 <___vfprintf_internal_r+0x518>
   422b8:	da011d17 	ldw	r8,1140(sp)
   422bc:	d8c11c17 	ldw	r3,1136(sp)
   422c0:	da400404 	addi	r9,sp,16
   422c4:	003dee06 	br	41a80 <___vfprintf_internal_r+0xa60>
   422c8:	00c00084 	movi	r3,2
   422cc:	bd84b03a 	or	r2,r23,r22
   422d0:	d8012585 	stb	zero,1174(sp)
   422d4:	003ccb06 	br	41604 <___vfprintf_internal_r+0x5e4>
   422d8:	8080040c 	andi	r2,r16,16
   422dc:	1000ae26 	beq	r2,zero,42598 <___vfprintf_internal_r+0x1578>
   422e0:	d9012d17 	ldw	r4,1204(sp)
   422e4:	25c00017 	ldw	r23,0(r4)
   422e8:	21000104 	addi	r4,r4,4
   422ec:	d9012d15 	stw	r4,1204(sp)
   422f0:	b82dd7fa 	srai	r22,r23,31
   422f4:	b005883a 	mov	r2,r22
   422f8:	003cb906 	br	415e0 <___vfprintf_internal_r+0x5c0>
   422fc:	8080040c 	andi	r2,r16,16
   42300:	10007026 	beq	r2,zero,424c4 <___vfprintf_internal_r+0x14a4>
   42304:	d8812d17 	ldw	r2,1204(sp)
   42308:	002d883a 	mov	r22,zero
   4230c:	00c00044 	movi	r3,1
   42310:	15c00017 	ldw	r23,0(r2)
   42314:	10800104 	addi	r2,r2,4
   42318:	d8812d15 	stw	r2,1204(sp)
   4231c:	d8012585 	stb	zero,1174(sp)
   42320:	b805883a 	mov	r2,r23
   42324:	003cb706 	br	41604 <___vfprintf_internal_r+0x5e4>
   42328:	d8813217 	ldw	r2,1224(sp)
   4232c:	14ffffc4 	addi	r19,r2,-1
   42330:	04ff4f0e 	bge	zero,r19,42070 <___vfprintf_internal_r+0x1050>
   42334:	05800404 	movi	r22,16
   42338:	05000174 	movhi	r20,5
   4233c:	a5350884 	addi	r20,r20,-11230
   42340:	b4c0470e 	bge	r22,r19,42460 <___vfprintf_internal_r+0x1440>
   42344:	05c001c4 	movi	r23,7
   42348:	df012917 	ldw	fp,1188(sp)
   4234c:	00000306 	br	4235c <___vfprintf_internal_r+0x133c>
   42350:	94800204 	addi	r18,r18,8
   42354:	9cfffc04 	addi	r19,r19,-16
   42358:	b4c0410e 	bge	r22,r19,42460 <___vfprintf_internal_r+0x1440>
   4235c:	95000015 	stw	r20,0(r18)
   42360:	95800115 	stw	r22,4(r18)
   42364:	42000404 	addi	r8,r8,16
   42368:	18c00044 	addi	r3,r3,1
   4236c:	da011d15 	stw	r8,1140(sp)
   42370:	d8c11c15 	stw	r3,1136(sp)
   42374:	b8fff60e 	bge	r23,r3,42350 <___vfprintf_internal_r+0x1330>
   42378:	8809883a 	mov	r4,r17
   4237c:	e00b883a 	mov	r5,fp
   42380:	d9811b04 	addi	r6,sp,1132
   42384:	0040fec0 	call	40fec <__sprint_r>
   42388:	103c6b1e 	bne	r2,zero,41538 <___vfprintf_internal_r+0x518>
   4238c:	da011d17 	ldw	r8,1140(sp)
   42390:	d8c11c17 	ldw	r3,1136(sp)
   42394:	dc800404 	addi	r18,sp,16
   42398:	003fee06 	br	42354 <___vfprintf_internal_r+0x1334>
   4239c:	8080040c 	andi	r2,r16,16
   423a0:	10005326 	beq	r2,zero,424f0 <___vfprintf_internal_r+0x14d0>
   423a4:	d8c12d17 	ldw	r3,1204(sp)
   423a8:	002d883a 	mov	r22,zero
   423ac:	1dc00017 	ldw	r23,0(r3)
   423b0:	18c00104 	addi	r3,r3,4
   423b4:	d8c12d15 	stw	r3,1204(sp)
   423b8:	b805883a 	mov	r2,r23
   423bc:	0007883a 	mov	r3,zero
   423c0:	d8012585 	stb	zero,1174(sp)
   423c4:	003c8f06 	br	41604 <___vfprintf_internal_r+0x5e4>
   423c8:	8088703a 	and	r4,r16,r2
   423cc:	203efe1e 	bne	r4,zero,41fc8 <___vfprintf_internal_r+0xfa8>
   423d0:	48800115 	stw	r2,4(r9)
   423d4:	42000044 	addi	r8,r8,1
   423d8:	18c00044 	addi	r3,r3,1
   423dc:	da011d15 	stw	r8,1140(sp)
   423e0:	d8c11c15 	stw	r3,1136(sp)
   423e4:	008001c4 	movi	r2,7
   423e8:	10c00216 	blt	r2,r3,423f4 <___vfprintf_internal_r+0x13d4>
   423ec:	4c800204 	addi	r18,r9,8
   423f0:	003f1f06 	br	42070 <___vfprintf_internal_r+0x1050>
   423f4:	d9412917 	ldw	r5,1188(sp)
   423f8:	8809883a 	mov	r4,r17
   423fc:	d9811b04 	addi	r6,sp,1132
   42400:	0040fec0 	call	40fec <__sprint_r>
   42404:	103c4c1e 	bne	r2,zero,41538 <___vfprintf_internal_r+0x518>
   42408:	dc800404 	addi	r18,sp,16
   4240c:	da011d17 	ldw	r8,1140(sp)
   42410:	d8c11c17 	ldw	r3,1136(sp)
   42414:	003f1606 	br	42070 <___vfprintf_internal_r+0x1050>
   42418:	d9412917 	ldw	r5,1188(sp)
   4241c:	8809883a 	mov	r4,r17
   42420:	d9811b04 	addi	r6,sp,1132
   42424:	0040fec0 	call	40fec <__sprint_r>
   42428:	103c431e 	bne	r2,zero,41538 <___vfprintf_internal_r+0x518>
   4242c:	da011d17 	ldw	r8,1140(sp)
   42430:	d8c11c17 	ldw	r3,1136(sp)
   42434:	da400404 	addi	r9,sp,16
   42438:	003eec06 	br	41fec <___vfprintf_internal_r+0xfcc>
   4243c:	d9412917 	ldw	r5,1188(sp)
   42440:	8809883a 	mov	r4,r17
   42444:	d9811b04 	addi	r6,sp,1132
   42448:	0040fec0 	call	40fec <__sprint_r>
   4244c:	103c3a1e 	bne	r2,zero,41538 <___vfprintf_internal_r+0x518>
   42450:	da011d17 	ldw	r8,1140(sp)
   42454:	d8c11c17 	ldw	r3,1136(sp)
   42458:	dc800404 	addi	r18,sp,16
   4245c:	003eee06 	br	42018 <___vfprintf_internal_r+0xff8>
   42460:	95000015 	stw	r20,0(r18)
   42464:	94c00115 	stw	r19,4(r18)
   42468:	44d1883a 	add	r8,r8,r19
   4246c:	003efa06 	br	42058 <___vfprintf_internal_r+0x1038>
   42470:	d9412917 	ldw	r5,1188(sp)
   42474:	8809883a 	mov	r4,r17
   42478:	d9811b04 	addi	r6,sp,1132
   4247c:	0040fec0 	call	40fec <__sprint_r>
   42480:	103c2d1e 	bne	r2,zero,41538 <___vfprintf_internal_r+0x518>
   42484:	da011d17 	ldw	r8,1140(sp)
   42488:	d8c11c17 	ldw	r3,1136(sp)
   4248c:	da400404 	addi	r9,sp,16
   42490:	003d9806 	br	41af4 <___vfprintf_internal_r+0xad4>
   42494:	8080100c 	andi	r2,r16,64
   42498:	10011626 	beq	r2,zero,428f4 <___vfprintf_internal_r+0x18d4>
   4249c:	d8c12d17 	ldw	r3,1204(sp)
   424a0:	002d883a 	mov	r22,zero
   424a4:	1dc0000b 	ldhu	r23,0(r3)
   424a8:	18c00104 	addi	r3,r3,4
   424ac:	d8c12d15 	stw	r3,1204(sp)
   424b0:	003cc106 	br	417b8 <___vfprintf_internal_r+0x798>
   424b4:	4d000015 	stw	r20,0(r9)
   424b8:	4c800115 	stw	r18,4(r9)
   424bc:	4491883a 	add	r8,r8,r18
   424c0:	003dc006 	br	41bc4 <___vfprintf_internal_r+0xba4>
   424c4:	8080100c 	andi	r2,r16,64
   424c8:	10010126 	beq	r2,zero,428d0 <___vfprintf_internal_r+0x18b0>
   424cc:	d8c12d17 	ldw	r3,1204(sp)
   424d0:	002d883a 	mov	r22,zero
   424d4:	1dc0000b 	ldhu	r23,0(r3)
   424d8:	18c00104 	addi	r3,r3,4
   424dc:	d8c12d15 	stw	r3,1204(sp)
   424e0:	b805883a 	mov	r2,r23
   424e4:	00c00044 	movi	r3,1
   424e8:	d8012585 	stb	zero,1174(sp)
   424ec:	003c4506 	br	41604 <___vfprintf_internal_r+0x5e4>
   424f0:	8080100c 	andi	r2,r16,64
   424f4:	10010526 	beq	r2,zero,4290c <___vfprintf_internal_r+0x18ec>
   424f8:	d9012d17 	ldw	r4,1204(sp)
   424fc:	002d883a 	mov	r22,zero
   42500:	0007883a 	mov	r3,zero
   42504:	25c0000b 	ldhu	r23,0(r4)
   42508:	21000104 	addi	r4,r4,4
   4250c:	d9012d15 	stw	r4,1204(sp)
   42510:	b805883a 	mov	r2,r23
   42514:	d8012585 	stb	zero,1174(sp)
   42518:	003c3a06 	br	41604 <___vfprintf_internal_r+0x5e4>
   4251c:	d8812d17 	ldw	r2,1204(sp)
   42520:	15800017 	ldw	r22,0(r2)
   42524:	15000117 	ldw	r20,4(r2)
   42528:	10800204 	addi	r2,r2,8
   4252c:	d8812d15 	stw	r2,1204(sp)
   42530:	dd813315 	stw	r22,1228(sp)
   42534:	dd013415 	stw	r20,1232(sp)
   42538:	003c5906 	br	416a0 <___vfprintf_internal_r+0x680>
   4253c:	00c00084 	movi	r3,2
   42540:	d8012585 	stb	zero,1174(sp)
   42544:	003c2f06 	br	41604 <___vfprintf_internal_r+0x5e4>
   42548:	ac800007 	ldb	r18,0(r21)
   4254c:	003b1006 	br	41190 <___vfprintf_internal_r+0x170>
   42550:	8080040c 	andi	r2,r16,16
   42554:	1000091e 	bne	r2,zero,4257c <___vfprintf_internal_r+0x155c>
   42558:	8400100c 	andi	r16,r16,64
   4255c:	80000726 	beq	r16,zero,4257c <___vfprintf_internal_r+0x155c>
   42560:	d8c12d17 	ldw	r3,1204(sp)
   42564:	d9012c17 	ldw	r4,1200(sp)
   42568:	18800017 	ldw	r2,0(r3)
   4256c:	18c00104 	addi	r3,r3,4
   42570:	d8c12d15 	stw	r3,1204(sp)
   42574:	1100000d 	sth	r4,0(r2)
   42578:	003adf06 	br	410f8 <___vfprintf_internal_r+0xd8>
   4257c:	d8c12d17 	ldw	r3,1204(sp)
   42580:	d9012c17 	ldw	r4,1200(sp)
   42584:	18800017 	ldw	r2,0(r3)
   42588:	18c00104 	addi	r3,r3,4
   4258c:	d8c12d15 	stw	r3,1204(sp)
   42590:	11000015 	stw	r4,0(r2)
   42594:	003ad806 	br	410f8 <___vfprintf_internal_r+0xd8>
   42598:	8080100c 	andi	r2,r16,64
   4259c:	1000c526 	beq	r2,zero,428b4 <___vfprintf_internal_r+0x1894>
   425a0:	d8812d17 	ldw	r2,1204(sp)
   425a4:	15c0000f 	ldh	r23,0(r2)
   425a8:	10800104 	addi	r2,r2,4
   425ac:	d8812d15 	stw	r2,1204(sp)
   425b0:	b82dd7fa 	srai	r22,r23,31
   425b4:	b005883a 	mov	r2,r22
   425b8:	003c0906 	br	415e0 <___vfprintf_internal_r+0x5c0>
   425bc:	4c800115 	stw	r18,4(r9)
   425c0:	9211883a 	add	r8,r18,r8
   425c4:	18c00044 	addi	r3,r3,1
   425c8:	da011d15 	stw	r8,1140(sp)
   425cc:	d8c11c15 	stw	r3,1136(sp)
   425d0:	008001c4 	movi	r2,7
   425d4:	10c14016 	blt	r2,r3,42ad8 <___vfprintf_internal_r+0x1ab8>
   425d8:	4a400204 	addi	r9,r9,8
   425dc:	d8813717 	ldw	r2,1244(sp)
   425e0:	9ca7883a 	add	r19,r19,r18
   425e4:	48800015 	stw	r2,0(r9)
   425e8:	00800044 	movi	r2,1
   425ec:	48800115 	stw	r2,4(r9)
   425f0:	4091883a 	add	r8,r8,r2
   425f4:	1887883a 	add	r3,r3,r2
   425f8:	da011d15 	stw	r8,1140(sp)
   425fc:	d8c11c15 	stw	r3,1136(sp)
   42600:	008001c4 	movi	r2,7
   42604:	10c12c16 	blt	r2,r3,42ab8 <___vfprintf_internal_r+0x1a98>
   42608:	4a400204 	addi	r9,r9,8
   4260c:	d9013217 	ldw	r4,1224(sp)
   42610:	da011d17 	ldw	r8,1140(sp)
   42614:	d8c11c17 	ldw	r3,1136(sp)
   42618:	24a5c83a 	sub	r18,r4,r18
   4261c:	4cc00015 	stw	r19,0(r9)
   42620:	003fa506 	br	424b8 <___vfprintf_internal_r+0x1498>
   42624:	04c00174 	movhi	r19,5
   42628:	9cf4f504 	addi	r19,r19,-11308
   4262c:	003c2e06 	br	416e8 <___vfprintf_internal_r+0x6c8>
   42630:	d9412917 	ldw	r5,1188(sp)
   42634:	8809883a 	mov	r4,r17
   42638:	d9811b04 	addi	r6,sp,1132
   4263c:	0040fec0 	call	40fec <__sprint_r>
   42640:	103bbd1e 	bne	r2,zero,41538 <___vfprintf_internal_r+0x518>
   42644:	da011d17 	ldw	r8,1140(sp)
   42648:	da400404 	addi	r9,sp,16
   4264c:	003df606 	br	41e28 <___vfprintf_internal_r+0xe08>
   42650:	00800174 	movhi	r2,5
   42654:	10b50404 	addi	r2,r2,-11248
   42658:	48800015 	stw	r2,0(r9)
   4265c:	00800044 	movi	r2,1
   42660:	48800115 	stw	r2,4(r9)
   42664:	4091883a 	add	r8,r8,r2
   42668:	1887883a 	add	r3,r3,r2
   4266c:	da011d15 	stw	r8,1140(sp)
   42670:	d8c11c15 	stw	r3,1136(sp)
   42674:	008001c4 	movi	r2,7
   42678:	10c0bc16 	blt	r2,r3,4296c <___vfprintf_internal_r+0x194c>
   4267c:	4a400204 	addi	r9,r9,8
   42680:	9000041e 	bne	r18,zero,42694 <___vfprintf_internal_r+0x1674>
   42684:	d8c13217 	ldw	r3,1224(sp)
   42688:	1800021e 	bne	r3,zero,42694 <___vfprintf_internal_r+0x1674>
   4268c:	8080004c 	andi	r2,r16,1
   42690:	103d5226 	beq	r2,zero,41bdc <___vfprintf_internal_r+0xbbc>
   42694:	d8c11c17 	ldw	r3,1136(sp)
   42698:	d9013717 	ldw	r4,1244(sp)
   4269c:	00800044 	movi	r2,1
   426a0:	48800115 	stw	r2,4(r9)
   426a4:	49000015 	stw	r4,0(r9)
   426a8:	4091883a 	add	r8,r8,r2
   426ac:	1887883a 	add	r3,r3,r2
   426b0:	da011d15 	stw	r8,1140(sp)
   426b4:	d8c11c15 	stw	r3,1136(sp)
   426b8:	008001c4 	movi	r2,7
   426bc:	10c14516 	blt	r2,r3,42bd4 <___vfprintf_internal_r+0x1bb4>
   426c0:	4a400204 	addi	r9,r9,8
   426c4:	04a5c83a 	sub	r18,zero,r18
   426c8:	0480d70e 	bge	zero,r18,42a28 <___vfprintf_internal_r+0x1a08>
   426cc:	05800404 	movi	r22,16
   426d0:	05000174 	movhi	r20,5
   426d4:	a5350884 	addi	r20,r20,-11230
   426d8:	b480db0e 	bge	r22,r18,42a48 <___vfprintf_internal_r+0x1a28>
   426dc:	05c001c4 	movi	r23,7
   426e0:	df012917 	ldw	fp,1188(sp)
   426e4:	00000306 	br	426f4 <___vfprintf_internal_r+0x16d4>
   426e8:	4a400204 	addi	r9,r9,8
   426ec:	94bffc04 	addi	r18,r18,-16
   426f0:	b480d50e 	bge	r22,r18,42a48 <___vfprintf_internal_r+0x1a28>
   426f4:	4d000015 	stw	r20,0(r9)
   426f8:	4d800115 	stw	r22,4(r9)
   426fc:	42000404 	addi	r8,r8,16
   42700:	18c00044 	addi	r3,r3,1
   42704:	da011d15 	stw	r8,1140(sp)
   42708:	d8c11c15 	stw	r3,1136(sp)
   4270c:	b8fff60e 	bge	r23,r3,426e8 <___vfprintf_internal_r+0x16c8>
   42710:	8809883a 	mov	r4,r17
   42714:	e00b883a 	mov	r5,fp
   42718:	d9811b04 	addi	r6,sp,1132
   4271c:	0040fec0 	call	40fec <__sprint_r>
   42720:	103b851e 	bne	r2,zero,41538 <___vfprintf_internal_r+0x518>
   42724:	da011d17 	ldw	r8,1140(sp)
   42728:	d8c11c17 	ldw	r3,1136(sp)
   4272c:	da400404 	addi	r9,sp,16
   42730:	003fee06 	br	426ec <___vfprintf_internal_r+0x16cc>
   42734:	da413c15 	stw	r9,1264(sp)
   42738:	0047eac0 	call	47eac <__isnand>
   4273c:	da413c17 	ldw	r9,1264(sp)
   42740:	10007e1e 	bne	r2,zero,4293c <___vfprintf_internal_r+0x191c>
   42744:	00bfffc4 	movi	r2,-1
   42748:	e0816a26 	beq	fp,r2,42cf4 <___vfprintf_internal_r+0x1cd4>
   4274c:	008019c4 	movi	r2,103
   42750:	90816526 	beq	r18,r2,42ce8 <___vfprintf_internal_r+0x1cc8>
   42754:	008011c4 	movi	r2,71
   42758:	90816326 	beq	r18,r2,42ce8 <___vfprintf_internal_r+0x1cc8>
   4275c:	80c04014 	ori	r3,r16,256
   42760:	d8c12a15 	stw	r3,1192(sp)
   42764:	a0016516 	blt	r20,zero,42cfc <___vfprintf_internal_r+0x1cdc>
   42768:	d8012f05 	stb	zero,1212(sp)
   4276c:	00801984 	movi	r2,102
   42770:	9080f226 	beq	r18,r2,42b3c <___vfprintf_internal_r+0x1b1c>
   42774:	00801184 	movi	r2,70
   42778:	9080f026 	beq	r18,r2,42b3c <___vfprintf_internal_r+0x1b1c>
   4277c:	00801944 	movi	r2,101
   42780:	90818d26 	beq	r18,r2,42db8 <___vfprintf_internal_r+0x1d98>
   42784:	00801144 	movi	r2,69
   42788:	90818b26 	beq	r18,r2,42db8 <___vfprintf_internal_r+0x1d98>
   4278c:	e02f883a 	mov	r23,fp
   42790:	d8812404 	addi	r2,sp,1168
   42794:	d8800115 	stw	r2,4(sp)
   42798:	d8812304 	addi	r2,sp,1164
   4279c:	d8800215 	stw	r2,8(sp)
   427a0:	d8812204 	addi	r2,sp,1160
   427a4:	ddc00015 	stw	r23,0(sp)
   427a8:	d8800315 	stw	r2,12(sp)
   427ac:	8809883a 	mov	r4,r17
   427b0:	b00b883a 	mov	r5,r22
   427b4:	a00d883a 	mov	r6,r20
   427b8:	01c00084 	movi	r7,2
   427bc:	da413c15 	stw	r9,1264(sp)
   427c0:	00434100 	call	43410 <_dtoa_r>
   427c4:	1027883a 	mov	r19,r2
   427c8:	008019c4 	movi	r2,103
   427cc:	da413c17 	ldw	r9,1264(sp)
   427d0:	9081951e 	bne	r18,r2,42e28 <___vfprintf_internal_r+0x1e08>
   427d4:	8080004c 	andi	r2,r16,1
   427d8:	10017926 	beq	r2,zero,42dc0 <___vfprintf_internal_r+0x1da0>
   427dc:	00801184 	movi	r2,70
   427e0:	9dc7883a 	add	r3,r19,r23
   427e4:	9080e626 	beq	r18,r2,42b80 <___vfprintf_internal_r+0x1b60>
   427e8:	b009883a 	mov	r4,r22
   427ec:	a00b883a 	mov	r5,r20
   427f0:	000d883a 	mov	r6,zero
   427f4:	000f883a 	mov	r7,zero
   427f8:	d8c13b15 	stw	r3,1260(sp)
   427fc:	da413c15 	stw	r9,1264(sp)
   42800:	0049ac80 	call	49ac8 <__eqdf2>
   42804:	d8c13b17 	ldw	r3,1260(sp)
   42808:	da413c17 	ldw	r9,1264(sp)
   4280c:	10000726 	beq	r2,zero,4282c <___vfprintf_internal_r+0x180c>
   42810:	d8812217 	ldw	r2,1160(sp)
   42814:	10c18a2e 	bgeu	r2,r3,42e40 <___vfprintf_internal_r+0x1e20>
   42818:	01000c04 	movi	r4,48
   4281c:	11000005 	stb	r4,0(r2)
   42820:	10800044 	addi	r2,r2,1
   42824:	d8812215 	stw	r2,1160(sp)
   42828:	10fffc1e 	bne	r2,r3,4281c <___vfprintf_internal_r+0x17fc>
   4282c:	1cc7c83a 	sub	r3,r3,r19
   42830:	d8c13215 	stw	r3,1224(sp)
   42834:	008019c4 	movi	r2,103
   42838:	9080fa26 	beq	r18,r2,42c24 <___vfprintf_internal_r+0x1c04>
   4283c:	008011c4 	movi	r2,71
   42840:	9080f826 	beq	r18,r2,42c24 <___vfprintf_internal_r+0x1c04>
   42844:	00801984 	movi	r2,102
   42848:	90818e1e 	bne	r18,r2,42e84 <___vfprintf_internal_r+0x1e64>
   4284c:	d8812417 	ldw	r2,1168(sp)
   42850:	d8812b15 	stw	r2,1196(sp)
   42854:	00817c0e 	bge	zero,r2,42e48 <___vfprintf_internal_r+0x1e28>
   42858:	e000021e 	bne	fp,zero,42864 <___vfprintf_internal_r+0x1844>
   4285c:	8400004c 	andi	r16,r16,1
   42860:	80000426 	beq	r16,zero,42874 <___vfprintf_internal_r+0x1854>
   42864:	d8812b17 	ldw	r2,1196(sp)
   42868:	e2000044 	addi	r8,fp,1
   4286c:	1205883a 	add	r2,r2,r8
   42870:	d8812b15 	stw	r2,1196(sp)
   42874:	d8812815 	stw	r2,1184(sp)
   42878:	10010b16 	blt	r2,zero,42ca8 <___vfprintf_internal_r+0x1c88>
   4287c:	ddc12f07 	ldb	r23,1212(sp)
   42880:	b800e426 	beq	r23,zero,42c14 <___vfprintf_internal_r+0x1bf4>
   42884:	00800b44 	movi	r2,45
   42888:	d8812585 	stb	r2,1174(sp)
   4288c:	dc012a17 	ldw	r16,1192(sp)
   42890:	d8013115 	stw	zero,1220(sp)
   42894:	003b7306 	br	41664 <___vfprintf_internal_r+0x644>
   42898:	d8812b17 	ldw	r2,1196(sp)
   4289c:	d8812815 	stw	r2,1184(sp)
   428a0:	10005716 	blt	r2,zero,42a00 <___vfprintf_internal_r+0x19e0>
   428a4:	d8812583 	ldbu	r2,1174(sp)
   428a8:	ddc12d15 	stw	r23,1204(sp)
   428ac:	d8013115 	stw	zero,1220(sp)
   428b0:	003b6806 	br	41654 <___vfprintf_internal_r+0x634>
   428b4:	d8c12d17 	ldw	r3,1204(sp)
   428b8:	1dc00017 	ldw	r23,0(r3)
   428bc:	18c00104 	addi	r3,r3,4
   428c0:	d8c12d15 	stw	r3,1204(sp)
   428c4:	b82dd7fa 	srai	r22,r23,31
   428c8:	b005883a 	mov	r2,r22
   428cc:	003b4406 	br	415e0 <___vfprintf_internal_r+0x5c0>
   428d0:	d9012d17 	ldw	r4,1204(sp)
   428d4:	002d883a 	mov	r22,zero
   428d8:	00c00044 	movi	r3,1
   428dc:	25c00017 	ldw	r23,0(r4)
   428e0:	21000104 	addi	r4,r4,4
   428e4:	d9012d15 	stw	r4,1204(sp)
   428e8:	b805883a 	mov	r2,r23
   428ec:	d8012585 	stb	zero,1174(sp)
   428f0:	003b4406 	br	41604 <___vfprintf_internal_r+0x5e4>
   428f4:	d9012d17 	ldw	r4,1204(sp)
   428f8:	002d883a 	mov	r22,zero
   428fc:	25c00017 	ldw	r23,0(r4)
   42900:	21000104 	addi	r4,r4,4
   42904:	d9012d15 	stw	r4,1204(sp)
   42908:	003bab06 	br	417b8 <___vfprintf_internal_r+0x798>
   4290c:	d8812d17 	ldw	r2,1204(sp)
   42910:	002d883a 	mov	r22,zero
   42914:	0007883a 	mov	r3,zero
   42918:	15c00017 	ldw	r23,0(r2)
   4291c:	10800104 	addi	r2,r2,4
   42920:	d8812d15 	stw	r2,1204(sp)
   42924:	d8012585 	stb	zero,1174(sp)
   42928:	b805883a 	mov	r2,r23
   4292c:	003b3506 	br	41604 <___vfprintf_internal_r+0x5e4>
   42930:	00ffffc4 	movi	r3,-1
   42934:	b82b883a 	mov	r21,r23
   42938:	003a1606 	br	41194 <___vfprintf_internal_r+0x174>
   4293c:	008011c4 	movi	r2,71
   42940:	1480b116 	blt	r2,r18,42c08 <___vfprintf_internal_r+0x1be8>
   42944:	04c00174 	movhi	r19,5
   42948:	9cf4f604 	addi	r19,r19,-11304
   4294c:	00c000c4 	movi	r3,3
   42950:	00bfdfc4 	movi	r2,-129
   42954:	80a0703a 	and	r16,r16,r2
   42958:	d8c12815 	stw	r3,1184(sp)
   4295c:	d8812583 	ldbu	r2,1174(sp)
   42960:	d8c12b15 	stw	r3,1196(sp)
   42964:	d8013115 	stw	zero,1220(sp)
   42968:	003b3a06 	br	41654 <___vfprintf_internal_r+0x634>
   4296c:	d9412917 	ldw	r5,1188(sp)
   42970:	8809883a 	mov	r4,r17
   42974:	d9811b04 	addi	r6,sp,1132
   42978:	0040fec0 	call	40fec <__sprint_r>
   4297c:	103aee1e 	bne	r2,zero,41538 <___vfprintf_internal_r+0x518>
   42980:	dc812417 	ldw	r18,1168(sp)
   42984:	da011d17 	ldw	r8,1140(sp)
   42988:	da400404 	addi	r9,sp,16
   4298c:	003f3c06 	br	42680 <___vfprintf_internal_r+0x1660>
   42990:	ad400044 	addi	r21,r21,1
   42994:	84000814 	ori	r16,r16,32
   42998:	14800047 	ldb	r18,1(r2)
   4299c:	0039fc06 	br	41190 <___vfprintf_internal_r+0x170>
   429a0:	d9412917 	ldw	r5,1188(sp)
   429a4:	8809883a 	mov	r4,r17
   429a8:	d9811b04 	addi	r6,sp,1132
   429ac:	0040fec0 	call	40fec <__sprint_r>
   429b0:	103ae11e 	bne	r2,zero,41538 <___vfprintf_internal_r+0x518>
   429b4:	da011d17 	ldw	r8,1140(sp)
   429b8:	da400404 	addi	r9,sp,16
   429bc:	003d2b06 	br	41e6c <___vfprintf_internal_r+0xe4c>
   429c0:	4d000015 	stw	r20,0(r9)
   429c4:	4c800115 	stw	r18,4(r9)
   429c8:	4491883a 	add	r8,r8,r18
   429cc:	18c00044 	addi	r3,r3,1
   429d0:	da011d15 	stw	r8,1140(sp)
   429d4:	d8c11c15 	stw	r3,1136(sp)
   429d8:	008001c4 	movi	r2,7
   429dc:	10fcbd16 	blt	r2,r3,41cd4 <___vfprintf_internal_r+0xcb4>
   429e0:	4a400204 	addi	r9,r9,8
   429e4:	003cc206 	br	41cf0 <___vfprintf_internal_r+0xcd0>
   429e8:	da413c15 	stw	r9,1264(sp)
   429ec:	0040f600 	call	40f60 <strlen>
   429f0:	d8812b15 	stw	r2,1196(sp)
   429f4:	d8812815 	stw	r2,1184(sp)
   429f8:	da413c17 	ldw	r9,1264(sp)
   429fc:	103fa90e 	bge	r2,zero,428a4 <___vfprintf_internal_r+0x1884>
   42a00:	d8012815 	stw	zero,1184(sp)
   42a04:	003fa706 	br	428a4 <___vfprintf_internal_r+0x1884>
   42a08:	d9412917 	ldw	r5,1188(sp)
   42a0c:	8809883a 	mov	r4,r17
   42a10:	d9811b04 	addi	r6,sp,1132
   42a14:	0040fec0 	call	40fec <__sprint_r>
   42a18:	103ac71e 	bne	r2,zero,41538 <___vfprintf_internal_r+0x518>
   42a1c:	da011d17 	ldw	r8,1140(sp)
   42a20:	d8c11c17 	ldw	r3,1136(sp)
   42a24:	da400404 	addi	r9,sp,16
   42a28:	d8813217 	ldw	r2,1224(sp)
   42a2c:	4cc00015 	stw	r19,0(r9)
   42a30:	48800115 	stw	r2,4(r9)
   42a34:	4091883a 	add	r8,r8,r2
   42a38:	003c6206 	br	41bc4 <___vfprintf_internal_r+0xba4>
   42a3c:	00800b44 	movi	r2,45
   42a40:	d8812585 	stb	r2,1174(sp)
   42a44:	003b2406 	br	416d8 <___vfprintf_internal_r+0x6b8>
   42a48:	4d000015 	stw	r20,0(r9)
   42a4c:	4c800115 	stw	r18,4(r9)
   42a50:	4491883a 	add	r8,r8,r18
   42a54:	18c00044 	addi	r3,r3,1
   42a58:	da011d15 	stw	r8,1140(sp)
   42a5c:	d8c11c15 	stw	r3,1136(sp)
   42a60:	008001c4 	movi	r2,7
   42a64:	10ffe816 	blt	r2,r3,42a08 <___vfprintf_internal_r+0x19e8>
   42a68:	4a400204 	addi	r9,r9,8
   42a6c:	003fee06 	br	42a28 <___vfprintf_internal_r+0x1a08>
   42a70:	d8c12b15 	stw	r3,1196(sp)
   42a74:	00800184 	movi	r2,6
   42a78:	10c0062e 	bgeu	r2,r3,42a94 <___vfprintf_internal_r+0x1a74>
   42a7c:	d8812b15 	stw	r2,1196(sp)
   42a80:	d8812815 	stw	r2,1184(sp)
   42a84:	ddc12d15 	stw	r23,1204(sp)
   42a88:	04c00174 	movhi	r19,5
   42a8c:	9cf50204 	addi	r19,r19,-11256
   42a90:	0039ca06 	br	411bc <___vfprintf_internal_r+0x19c>
   42a94:	d8812b17 	ldw	r2,1196(sp)
   42a98:	d8812815 	stw	r2,1184(sp)
   42a9c:	103ff90e 	bge	r2,zero,42a84 <___vfprintf_internal_r+0x1a64>
   42aa0:	d8012815 	stw	zero,1184(sp)
   42aa4:	003ff706 	br	42a84 <___vfprintf_internal_r+0x1a64>
   42aa8:	00800244 	movi	r2,9
   42aac:	15fdaa36 	bltu	r2,r23,42158 <___vfprintf_internal_r+0x1138>
   42ab0:	dd010e04 	addi	r20,sp,1080
   42ab4:	003dc606 	br	421d0 <___vfprintf_internal_r+0x11b0>
   42ab8:	d9412917 	ldw	r5,1188(sp)
   42abc:	8809883a 	mov	r4,r17
   42ac0:	d9811b04 	addi	r6,sp,1132
   42ac4:	0040fec0 	call	40fec <__sprint_r>
   42ac8:	103a9b1e 	bne	r2,zero,41538 <___vfprintf_internal_r+0x518>
   42acc:	dc812417 	ldw	r18,1168(sp)
   42ad0:	da400404 	addi	r9,sp,16
   42ad4:	003ecd06 	br	4260c <___vfprintf_internal_r+0x15ec>
   42ad8:	d9412917 	ldw	r5,1188(sp)
   42adc:	8809883a 	mov	r4,r17
   42ae0:	d9811b04 	addi	r6,sp,1132
   42ae4:	0040fec0 	call	40fec <__sprint_r>
   42ae8:	103a931e 	bne	r2,zero,41538 <___vfprintf_internal_r+0x518>
   42aec:	dc812417 	ldw	r18,1168(sp)
   42af0:	da011d17 	ldw	r8,1140(sp)
   42af4:	d8c11c17 	ldw	r3,1136(sp)
   42af8:	da400404 	addi	r9,sp,16
   42afc:	003eb706 	br	425dc <___vfprintf_internal_r+0x15bc>
   42b00:	d9412917 	ldw	r5,1188(sp)
   42b04:	8809883a 	mov	r4,r17
   42b08:	d9811b04 	addi	r6,sp,1132
   42b0c:	0040fec0 	call	40fec <__sprint_r>
   42b10:	103a891e 	bne	r2,zero,41538 <___vfprintf_internal_r+0x518>
   42b14:	dc812417 	ldw	r18,1168(sp)
   42b18:	da011d17 	ldw	r8,1140(sp)
   42b1c:	da400404 	addi	r9,sp,16
   42b20:	003dc206 	br	4222c <___vfprintf_internal_r+0x120c>
   42b24:	df012815 	stw	fp,1184(sp)
   42b28:	d8812583 	ldbu	r2,1174(sp)
   42b2c:	df012b15 	stw	fp,1196(sp)
   42b30:	ddc12d15 	stw	r23,1204(sp)
   42b34:	d8013115 	stw	zero,1220(sp)
   42b38:	003ac606 	br	41654 <___vfprintf_internal_r+0x634>
   42b3c:	d8812404 	addi	r2,sp,1168
   42b40:	d8800115 	stw	r2,4(sp)
   42b44:	d8812304 	addi	r2,sp,1164
   42b48:	d8800215 	stw	r2,8(sp)
   42b4c:	d8812204 	addi	r2,sp,1160
   42b50:	df000015 	stw	fp,0(sp)
   42b54:	d8800315 	stw	r2,12(sp)
   42b58:	8809883a 	mov	r4,r17
   42b5c:	b00b883a 	mov	r5,r22
   42b60:	a00d883a 	mov	r6,r20
   42b64:	01c000c4 	movi	r7,3
   42b68:	da413c15 	stw	r9,1264(sp)
   42b6c:	00434100 	call	43410 <_dtoa_r>
   42b70:	da413c17 	ldw	r9,1264(sp)
   42b74:	1027883a 	mov	r19,r2
   42b78:	1707883a 	add	r3,r2,fp
   42b7c:	e02f883a 	mov	r23,fp
   42b80:	99000007 	ldb	r4,0(r19)
   42b84:	00800c04 	movi	r2,48
   42b88:	20800326 	beq	r4,r2,42b98 <___vfprintf_internal_r+0x1b78>
   42b8c:	da812417 	ldw	r10,1168(sp)
   42b90:	1a87883a 	add	r3,r3,r10
   42b94:	003f1406 	br	427e8 <___vfprintf_internal_r+0x17c8>
   42b98:	b009883a 	mov	r4,r22
   42b9c:	a00b883a 	mov	r5,r20
   42ba0:	000d883a 	mov	r6,zero
   42ba4:	000f883a 	mov	r7,zero
   42ba8:	d8c13b15 	stw	r3,1260(sp)
   42bac:	da413c15 	stw	r9,1264(sp)
   42bb0:	0049b240 	call	49b24 <__nedf2>
   42bb4:	d8c13b17 	ldw	r3,1260(sp)
   42bb8:	da413c17 	ldw	r9,1264(sp)
   42bbc:	103ff326 	beq	r2,zero,42b8c <___vfprintf_internal_r+0x1b6c>
   42bc0:	00800044 	movi	r2,1
   42bc4:	15d5c83a 	sub	r10,r2,r23
   42bc8:	da812415 	stw	r10,1168(sp)
   42bcc:	1a87883a 	add	r3,r3,r10
   42bd0:	003f0506 	br	427e8 <___vfprintf_internal_r+0x17c8>
   42bd4:	d9412917 	ldw	r5,1188(sp)
   42bd8:	8809883a 	mov	r4,r17
   42bdc:	d9811b04 	addi	r6,sp,1132
   42be0:	0040fec0 	call	40fec <__sprint_r>
   42be4:	103a541e 	bne	r2,zero,41538 <___vfprintf_internal_r+0x518>
   42be8:	dc812417 	ldw	r18,1168(sp)
   42bec:	da011d17 	ldw	r8,1140(sp)
   42bf0:	d8c11c17 	ldw	r3,1136(sp)
   42bf4:	da400404 	addi	r9,sp,16
   42bf8:	003eb206 	br	426c4 <___vfprintf_internal_r+0x16a4>
   42bfc:	b82b883a 	mov	r21,r23
   42c00:	0007883a 	mov	r3,zero
   42c04:	00396306 	br	41194 <___vfprintf_internal_r+0x174>
   42c08:	04c00174 	movhi	r19,5
   42c0c:	9cf4f704 	addi	r19,r19,-11300
   42c10:	003f4e06 	br	4294c <___vfprintf_internal_r+0x192c>
   42c14:	d8812583 	ldbu	r2,1174(sp)
   42c18:	dc012a17 	ldw	r16,1192(sp)
   42c1c:	d8013115 	stw	zero,1220(sp)
   42c20:	003a8c06 	br	41654 <___vfprintf_internal_r+0x634>
   42c24:	d8812417 	ldw	r2,1168(sp)
   42c28:	d8812b15 	stw	r2,1196(sp)
   42c2c:	1029883a 	mov	r20,r2
   42c30:	00bfff44 	movi	r2,-3
   42c34:	a0800116 	blt	r20,r2,42c3c <___vfprintf_internal_r+0x1c1c>
   42c38:	e5001d0e 	bge	fp,r20,42cb0 <___vfprintf_internal_r+0x1c90>
   42c3c:	94bfff84 	addi	r18,r18,-2
   42c40:	a53fffc4 	addi	r20,r20,-1
   42c44:	dd012415 	stw	r20,1168(sp)
   42c48:	dc811fc5 	stb	r18,1151(sp)
   42c4c:	a0007216 	blt	r20,zero,42e18 <___vfprintf_internal_r+0x1df8>
   42c50:	00800ac4 	movi	r2,43
   42c54:	d8812005 	stb	r2,1152(sp)
   42c58:	00800244 	movi	r2,9
   42c5c:	15003516 	blt	r2,r20,42d34 <___vfprintf_internal_r+0x1d14>
   42c60:	00800c04 	movi	r2,48
   42c64:	a5000c04 	addi	r20,r20,48
   42c68:	d8812045 	stb	r2,1153(sp)
   42c6c:	dd012085 	stb	r20,1154(sp)
   42c70:	d8c120c4 	addi	r3,sp,1155
   42c74:	d8811fc4 	addi	r2,sp,1151
   42c78:	1885c83a 	sub	r2,r3,r2
   42c7c:	d8c13217 	ldw	r3,1224(sp)
   42c80:	d8813515 	stw	r2,1236(sp)
   42c84:	1885883a 	add	r2,r3,r2
   42c88:	d8812b15 	stw	r2,1196(sp)
   42c8c:	00800044 	movi	r2,1
   42c90:	10c0580e 	bge	r2,r3,42df4 <___vfprintf_internal_r+0x1dd4>
   42c94:	d8812b17 	ldw	r2,1196(sp)
   42c98:	10800044 	addi	r2,r2,1
   42c9c:	d8812b15 	stw	r2,1196(sp)
   42ca0:	d8812815 	stw	r2,1184(sp)
   42ca4:	103ef50e 	bge	r2,zero,4287c <___vfprintf_internal_r+0x185c>
   42ca8:	d8012815 	stw	zero,1184(sp)
   42cac:	003ef306 	br	4287c <___vfprintf_internal_r+0x185c>
   42cb0:	d8812b17 	ldw	r2,1196(sp)
   42cb4:	d8c13217 	ldw	r3,1224(sp)
   42cb8:	10c01416 	blt	r2,r3,42d0c <___vfprintf_internal_r+0x1cec>
   42cbc:	8400004c 	andi	r16,r16,1
   42cc0:	80000326 	beq	r16,zero,42cd0 <___vfprintf_internal_r+0x1cb0>
   42cc4:	d8812b17 	ldw	r2,1196(sp)
   42cc8:	10800044 	addi	r2,r2,1
   42ccc:	d8812b15 	stw	r2,1196(sp)
   42cd0:	d8812815 	stw	r2,1184(sp)
   42cd4:	10001416 	blt	r2,zero,42d28 <___vfprintf_internal_r+0x1d08>
   42cd8:	048019c4 	movi	r18,103
   42cdc:	003ee706 	br	4287c <___vfprintf_internal_r+0x185c>
   42ce0:	d8012815 	stw	zero,1184(sp)
   42ce4:	003b1a06 	br	41950 <___vfprintf_internal_r+0x930>
   42ce8:	e03e9c1e 	bne	fp,zero,4275c <___vfprintf_internal_r+0x173c>
   42cec:	07000044 	movi	fp,1
   42cf0:	003e9a06 	br	4275c <___vfprintf_internal_r+0x173c>
   42cf4:	07000184 	movi	fp,6
   42cf8:	003e9806 	br	4275c <___vfprintf_internal_r+0x173c>
   42cfc:	00c00b44 	movi	r3,45
   42d00:	a520003c 	xorhi	r20,r20,32768
   42d04:	d8c12f05 	stb	r3,1212(sp)
   42d08:	003e9806 	br	4276c <___vfprintf_internal_r+0x174c>
   42d0c:	05003f0e 	bge	zero,r20,42e0c <___vfprintf_internal_r+0x1dec>
   42d10:	05000044 	movi	r20,1
   42d14:	d8c13217 	ldw	r3,1224(sp)
   42d18:	a0e9883a 	add	r20,r20,r3
   42d1c:	dd012b15 	stw	r20,1196(sp)
   42d20:	dd012815 	stw	r20,1184(sp)
   42d24:	a03fec0e 	bge	r20,zero,42cd8 <___vfprintf_internal_r+0x1cb8>
   42d28:	d8012815 	stw	zero,1184(sp)
   42d2c:	048019c4 	movi	r18,103
   42d30:	003ed206 	br	4287c <___vfprintf_internal_r+0x185c>
   42d34:	d8c11f84 	addi	r3,sp,1150
   42d38:	102f883a 	mov	r23,r2
   42d3c:	4839883a 	mov	fp,r9
   42d40:	a009883a 	mov	r4,r20
   42d44:	01400284 	movi	r5,10
   42d48:	182d883a 	mov	r22,r3
   42d4c:	0040d940 	call	40d94 <__modsi3>
   42d50:	10800c04 	addi	r2,r2,48
   42d54:	a009883a 	mov	r4,r20
   42d58:	b0800005 	stb	r2,0(r22)
   42d5c:	01400284 	movi	r5,10
   42d60:	0040d440 	call	40d44 <__divsi3>
   42d64:	1029883a 	mov	r20,r2
   42d68:	b0ffffc4 	addi	r3,r22,-1
   42d6c:	b8bff416 	blt	r23,r2,42d40 <___vfprintf_internal_r+0x1d20>
   42d70:	11400c04 	addi	r5,r2,48
   42d74:	b17fffc5 	stb	r5,-1(r22)
   42d78:	d8811fc4 	addi	r2,sp,1151
   42d7c:	e013883a 	mov	r9,fp
   42d80:	18803e2e 	bgeu	r3,r2,42e7c <___vfprintf_internal_r+0x1e5c>
   42d84:	b007883a 	mov	r3,r22
   42d88:	d9012044 	addi	r4,sp,1153
   42d8c:	00000206 	br	42d98 <___vfprintf_internal_r+0x1d78>
   42d90:	19400003 	ldbu	r5,0(r3)
   42d94:	18c00044 	addi	r3,r3,1
   42d98:	21400005 	stb	r5,0(r4)
   42d9c:	21000044 	addi	r4,r4,1
   42da0:	10fffb1e 	bne	r2,r3,42d90 <___vfprintf_internal_r+0x1d70>
   42da4:	d8c12004 	addi	r3,sp,1152
   42da8:	1d87c83a 	sub	r3,r3,r22
   42dac:	d9012044 	addi	r4,sp,1153
   42db0:	20c7883a 	add	r3,r4,r3
   42db4:	003fb006 	br	42c78 <___vfprintf_internal_r+0x1c58>
   42db8:	e5c00044 	addi	r23,fp,1
   42dbc:	003e7406 	br	42790 <___vfprintf_internal_r+0x1770>
   42dc0:	d8c12217 	ldw	r3,1160(sp)
   42dc4:	003e9906 	br	4282c <___vfprintf_internal_r+0x180c>
   42dc8:	d9012d17 	ldw	r4,1204(sp)
   42dcc:	ac800043 	ldbu	r18,1(r21)
   42dd0:	b82b883a 	mov	r21,r23
   42dd4:	20c00017 	ldw	r3,0(r4)
   42dd8:	20800104 	addi	r2,r4,4
   42ddc:	d8812d15 	stw	r2,1204(sp)
   42de0:	18002116 	blt	r3,zero,42e68 <___vfprintf_internal_r+0x1e48>
   42de4:	94803fcc 	andi	r18,r18,255
   42de8:	9480201c 	xori	r18,r18,128
   42dec:	94bfe004 	addi	r18,r18,-128
   42df0:	0038e706 	br	41190 <___vfprintf_internal_r+0x170>
   42df4:	80a0703a 	and	r16,r16,r2
   42df8:	803fa61e 	bne	r16,zero,42c94 <___vfprintf_internal_r+0x1c74>
   42dfc:	d8812b17 	ldw	r2,1196(sp)
   42e00:	d8812815 	stw	r2,1184(sp)
   42e04:	103e9d0e 	bge	r2,zero,4287c <___vfprintf_internal_r+0x185c>
   42e08:	003fa706 	br	42ca8 <___vfprintf_internal_r+0x1c88>
   42e0c:	00800084 	movi	r2,2
   42e10:	1529c83a 	sub	r20,r2,r20
   42e14:	003fbf06 	br	42d14 <___vfprintf_internal_r+0x1cf4>
   42e18:	00800b44 	movi	r2,45
   42e1c:	0529c83a 	sub	r20,zero,r20
   42e20:	d8812005 	stb	r2,1152(sp)
   42e24:	003f8c06 	br	42c58 <___vfprintf_internal_r+0x1c38>
   42e28:	008011c4 	movi	r2,71
   42e2c:	90be6926 	beq	r18,r2,427d4 <___vfprintf_internal_r+0x17b4>
   42e30:	003e6a06 	br	427dc <___vfprintf_internal_r+0x17bc>
   42e34:	00bfffc4 	movi	r2,-1
   42e38:	d8812c15 	stw	r2,1200(sp)
   42e3c:	0039ad06 	br	414f4 <___vfprintf_internal_r+0x4d4>
   42e40:	1007883a 	mov	r3,r2
   42e44:	003e7906 	br	4282c <___vfprintf_internal_r+0x180c>
   42e48:	e000021e 	bne	fp,zero,42e54 <___vfprintf_internal_r+0x1e34>
   42e4c:	8400004c 	andi	r16,r16,1
   42e50:	80000e26 	beq	r16,zero,42e8c <___vfprintf_internal_r+0x1e6c>
   42e54:	e7000084 	addi	fp,fp,2
   42e58:	df012b15 	stw	fp,1196(sp)
   42e5c:	df012815 	stw	fp,1184(sp)
   42e60:	e03e860e 	bge	fp,zero,4287c <___vfprintf_internal_r+0x185c>
   42e64:	003f9006 	br	42ca8 <___vfprintf_internal_r+0x1c88>
   42e68:	94803fcc 	andi	r18,r18,255
   42e6c:	9480201c 	xori	r18,r18,128
   42e70:	00ffffc4 	movi	r3,-1
   42e74:	94bfe004 	addi	r18,r18,-128
   42e78:	0038c506 	br	41190 <___vfprintf_internal_r+0x170>
   42e7c:	d8c12044 	addi	r3,sp,1153
   42e80:	003f7d06 	br	42c78 <___vfprintf_internal_r+0x1c58>
   42e84:	dd012417 	ldw	r20,1168(sp)
   42e88:	003f6d06 	br	42c40 <___vfprintf_internal_r+0x1c20>
   42e8c:	00c00044 	movi	r3,1
   42e90:	d8c12815 	stw	r3,1184(sp)
   42e94:	d8c12b15 	stw	r3,1196(sp)
   42e98:	003e7806 	br	4287c <___vfprintf_internal_r+0x185c>

00042e9c <__vfprintf_internal>:
   42e9c:	00800174 	movhi	r2,5
   42ea0:	10bc4204 	addi	r2,r2,-3832
   42ea4:	2007883a 	mov	r3,r4
   42ea8:	11000017 	ldw	r4,0(r2)
   42eac:	2805883a 	mov	r2,r5
   42eb0:	300f883a 	mov	r7,r6
   42eb4:	180b883a 	mov	r5,r3
   42eb8:	100d883a 	mov	r6,r2
   42ebc:	00410201 	jmpi	41020 <___vfprintf_internal_r>

00042ec0 <__swsetup_r>:
   42ec0:	00800174 	movhi	r2,5
   42ec4:	10bc4204 	addi	r2,r2,-3832
   42ec8:	10800017 	ldw	r2,0(r2)
   42ecc:	defffd04 	addi	sp,sp,-12
   42ed0:	dc400115 	stw	r17,4(sp)
   42ed4:	dc000015 	stw	r16,0(sp)
   42ed8:	dfc00215 	stw	ra,8(sp)
   42edc:	2023883a 	mov	r17,r4
   42ee0:	2821883a 	mov	r16,r5
   42ee4:	10000226 	beq	r2,zero,42ef0 <__swsetup_r+0x30>
   42ee8:	10c00e17 	ldw	r3,56(r2)
   42eec:	18003d26 	beq	r3,zero,42fe4 <__swsetup_r+0x124>
   42ef0:	8080030b 	ldhu	r2,12(r16)
   42ef4:	10c0020c 	andi	r3,r2,8
   42ef8:	18ffffcc 	andi	r3,r3,65535
   42efc:	18e0001c 	xori	r3,r3,32768
   42f00:	18e00004 	addi	r3,r3,-32768
   42f04:	18001226 	beq	r3,zero,42f50 <__swsetup_r+0x90>
   42f08:	80c00417 	ldw	r3,16(r16)
   42f0c:	18001f26 	beq	r3,zero,42f8c <__swsetup_r+0xcc>
   42f10:	1100004c 	andi	r4,r2,1
   42f14:	2000261e 	bne	r4,zero,42fb0 <__swsetup_r+0xf0>
   42f18:	1080008c 	andi	r2,r2,2
   42f1c:	10bfffcc 	andi	r2,r2,65535
   42f20:	10a0001c 	xori	r2,r2,32768
   42f24:	10a00004 	addi	r2,r2,-32768
   42f28:	1000311e 	bne	r2,zero,42ff0 <__swsetup_r+0x130>
   42f2c:	80800517 	ldw	r2,20(r16)
   42f30:	80800215 	stw	r2,8(r16)
   42f34:	18002326 	beq	r3,zero,42fc4 <__swsetup_r+0x104>
   42f38:	0005883a 	mov	r2,zero
   42f3c:	dfc00217 	ldw	ra,8(sp)
   42f40:	dc400117 	ldw	r17,4(sp)
   42f44:	dc000017 	ldw	r16,0(sp)
   42f48:	dec00304 	addi	sp,sp,12
   42f4c:	f800283a 	ret
   42f50:	10c0040c 	andi	r3,r2,16
   42f54:	18ffffcc 	andi	r3,r3,65535
   42f58:	18e0001c 	xori	r3,r3,32768
   42f5c:	18e00004 	addi	r3,r3,-32768
   42f60:	18001e26 	beq	r3,zero,42fdc <__swsetup_r+0x11c>
   42f64:	10c0010c 	andi	r3,r2,4
   42f68:	18ffffcc 	andi	r3,r3,65535
   42f6c:	18e0001c 	xori	r3,r3,32768
   42f70:	18e00004 	addi	r3,r3,-32768
   42f74:	1800211e 	bne	r3,zero,42ffc <__swsetup_r+0x13c>
   42f78:	80c00417 	ldw	r3,16(r16)
   42f7c:	11400214 	ori	r5,r2,8
   42f80:	8140030d 	sth	r5,12(r16)
   42f84:	2805883a 	mov	r2,r5
   42f88:	183fe11e 	bne	r3,zero,42f10 <__swsetup_r+0x50>
   42f8c:	1140a00c 	andi	r5,r2,640
   42f90:	01008004 	movi	r4,512
   42f94:	293fde26 	beq	r5,r4,42f10 <__swsetup_r+0x50>
   42f98:	8809883a 	mov	r4,r17
   42f9c:	800b883a 	mov	r5,r16
   42fa0:	0045a5c0 	call	45a5c <__smakebuf_r>
   42fa4:	8080030b 	ldhu	r2,12(r16)
   42fa8:	80c00417 	ldw	r3,16(r16)
   42fac:	003fd806 	br	42f10 <__swsetup_r+0x50>
   42fb0:	80800517 	ldw	r2,20(r16)
   42fb4:	80000215 	stw	zero,8(r16)
   42fb8:	0085c83a 	sub	r2,zero,r2
   42fbc:	80800615 	stw	r2,24(r16)
   42fc0:	183fdd1e 	bne	r3,zero,42f38 <__swsetup_r+0x78>
   42fc4:	8080030b 	ldhu	r2,12(r16)
   42fc8:	1080200c 	andi	r2,r2,128
   42fcc:	10bfffcc 	andi	r2,r2,65535
   42fd0:	10a0001c 	xori	r2,r2,32768
   42fd4:	10a00004 	addi	r2,r2,-32768
   42fd8:	103fd826 	beq	r2,zero,42f3c <__swsetup_r+0x7c>
   42fdc:	00bfffc4 	movi	r2,-1
   42fe0:	003fd606 	br	42f3c <__swsetup_r+0x7c>
   42fe4:	1009883a 	mov	r4,r2
   42fe8:	0044ce80 	call	44ce8 <__sinit>
   42fec:	003fc006 	br	42ef0 <__swsetup_r+0x30>
   42ff0:	0005883a 	mov	r2,zero
   42ff4:	80800215 	stw	r2,8(r16)
   42ff8:	003fce06 	br	42f34 <__swsetup_r+0x74>
   42ffc:	81400c17 	ldw	r5,48(r16)
   43000:	28000626 	beq	r5,zero,4301c <__swsetup_r+0x15c>
   43004:	80c01004 	addi	r3,r16,64
   43008:	28c00326 	beq	r5,r3,43018 <__swsetup_r+0x158>
   4300c:	8809883a 	mov	r4,r17
   43010:	004506c0 	call	4506c <_free_r>
   43014:	8080030b 	ldhu	r2,12(r16)
   43018:	80000c15 	stw	zero,48(r16)
   4301c:	80c00417 	ldw	r3,16(r16)
   43020:	013ff6c4 	movi	r4,-37
   43024:	2084703a 	and	r2,r4,r2
   43028:	80000115 	stw	zero,4(r16)
   4302c:	80c00015 	stw	r3,0(r16)
   43030:	003fd206 	br	42f7c <__swsetup_r+0xbc>

00043034 <__call_exitprocs>:
   43034:	00800174 	movhi	r2,5
   43038:	10bc4104 	addi	r2,r2,-3836
   4303c:	10800017 	ldw	r2,0(r2)
   43040:	defff304 	addi	sp,sp,-52
   43044:	df000b15 	stw	fp,44(sp)
   43048:	d8800015 	stw	r2,0(sp)
   4304c:	10805204 	addi	r2,r2,328
   43050:	dd400815 	stw	r21,32(sp)
   43054:	dfc00c15 	stw	ra,48(sp)
   43058:	ddc00a15 	stw	r23,40(sp)
   4305c:	dd800915 	stw	r22,36(sp)
   43060:	dd000715 	stw	r20,28(sp)
   43064:	dcc00615 	stw	r19,24(sp)
   43068:	dc800515 	stw	r18,20(sp)
   4306c:	dc400415 	stw	r17,16(sp)
   43070:	dc000315 	stw	r16,12(sp)
   43074:	d9000115 	stw	r4,4(sp)
   43078:	2839883a 	mov	fp,r5
   4307c:	d8800215 	stw	r2,8(sp)
   43080:	057fffc4 	movi	r21,-1
   43084:	d8800017 	ldw	r2,0(sp)
   43088:	ddc00217 	ldw	r23,8(sp)
   4308c:	14805217 	ldw	r18,328(r2)
   43090:	90001726 	beq	r18,zero,430f0 <__call_exitprocs+0xbc>
   43094:	94400117 	ldw	r17,4(r18)
   43098:	8c3fffc4 	addi	r16,r17,-1
   4309c:	80001116 	blt	r16,zero,430e4 <__call_exitprocs+0xb0>
   430a0:	8c400044 	addi	r17,r17,1
   430a4:	8427883a 	add	r19,r16,r16
   430a8:	8c63883a 	add	r17,r17,r17
   430ac:	95802204 	addi	r22,r18,136
   430b0:	9ce7883a 	add	r19,r19,r19
   430b4:	8c63883a 	add	r17,r17,r17
   430b8:	b4e7883a 	add	r19,r22,r19
   430bc:	9463883a 	add	r17,r18,r17
   430c0:	e0001726 	beq	fp,zero,43120 <__call_exitprocs+0xec>
   430c4:	8c87c83a 	sub	r3,r17,r18
   430c8:	b0c7883a 	add	r3,r22,r3
   430cc:	18c01e17 	ldw	r3,120(r3)
   430d0:	1f001326 	beq	r3,fp,43120 <__call_exitprocs+0xec>
   430d4:	843fffc4 	addi	r16,r16,-1
   430d8:	9cffff04 	addi	r19,r19,-4
   430dc:	8c7fff04 	addi	r17,r17,-4
   430e0:	857ff71e 	bne	r16,r21,430c0 <__call_exitprocs+0x8c>
   430e4:	00800034 	movhi	r2,0
   430e8:	10800004 	addi	r2,r2,0
   430ec:	10002a1e 	bne	r2,zero,43198 <__call_exitprocs+0x164>
   430f0:	dfc00c17 	ldw	ra,48(sp)
   430f4:	df000b17 	ldw	fp,44(sp)
   430f8:	ddc00a17 	ldw	r23,40(sp)
   430fc:	dd800917 	ldw	r22,36(sp)
   43100:	dd400817 	ldw	r21,32(sp)
   43104:	dd000717 	ldw	r20,28(sp)
   43108:	dcc00617 	ldw	r19,24(sp)
   4310c:	dc800517 	ldw	r18,20(sp)
   43110:	dc400417 	ldw	r17,16(sp)
   43114:	dc000317 	ldw	r16,12(sp)
   43118:	dec00d04 	addi	sp,sp,52
   4311c:	f800283a 	ret
   43120:	91000117 	ldw	r4,4(r18)
   43124:	88c00017 	ldw	r3,0(r17)
   43128:	213fffc4 	addi	r4,r4,-1
   4312c:	24001526 	beq	r4,r16,43184 <__call_exitprocs+0x150>
   43130:	88000015 	stw	zero,0(r17)
   43134:	183fe726 	beq	r3,zero,430d4 <__call_exitprocs+0xa0>
   43138:	00800044 	movi	r2,1
   4313c:	1408983a 	sll	r4,r2,r16
   43140:	91406217 	ldw	r5,392(r18)
   43144:	95000117 	ldw	r20,4(r18)
   43148:	214a703a 	and	r5,r4,r5
   4314c:	28000b26 	beq	r5,zero,4317c <__call_exitprocs+0x148>
   43150:	91406317 	ldw	r5,396(r18)
   43154:	2148703a 	and	r4,r4,r5
   43158:	20000c1e 	bne	r4,zero,4318c <__call_exitprocs+0x158>
   4315c:	99400017 	ldw	r5,0(r19)
   43160:	d9000117 	ldw	r4,4(sp)
   43164:	183ee83a 	callr	r3
   43168:	90c00117 	ldw	r3,4(r18)
   4316c:	1d3fc51e 	bne	r3,r20,43084 <__call_exitprocs+0x50>
   43170:	b8c00017 	ldw	r3,0(r23)
   43174:	1cbfd726 	beq	r3,r18,430d4 <__call_exitprocs+0xa0>
   43178:	003fc206 	br	43084 <__call_exitprocs+0x50>
   4317c:	183ee83a 	callr	r3
   43180:	003ff906 	br	43168 <__call_exitprocs+0x134>
   43184:	94000115 	stw	r16,4(r18)
   43188:	003fea06 	br	43134 <__call_exitprocs+0x100>
   4318c:	99000017 	ldw	r4,0(r19)
   43190:	183ee83a 	callr	r3
   43194:	003ff406 	br	43168 <__call_exitprocs+0x134>
   43198:	90c00117 	ldw	r3,4(r18)
   4319c:	1800071e 	bne	r3,zero,431bc <__call_exitprocs+0x188>
   431a0:	90c00017 	ldw	r3,0(r18)
   431a4:	18000926 	beq	r3,zero,431cc <__call_exitprocs+0x198>
   431a8:	9009883a 	mov	r4,r18
   431ac:	b8c00015 	stw	r3,0(r23)
   431b0:	00000000 	call	0 <__alt_mem_onchip_mem-0x40000>
   431b4:	bc800017 	ldw	r18,0(r23)
   431b8:	003fb506 	br	43090 <__call_exitprocs+0x5c>
   431bc:	90c00017 	ldw	r3,0(r18)
   431c0:	902f883a 	mov	r23,r18
   431c4:	1825883a 	mov	r18,r3
   431c8:	003fb106 	br	43090 <__call_exitprocs+0x5c>
   431cc:	0007883a 	mov	r3,zero
   431d0:	003ffb06 	br	431c0 <__call_exitprocs+0x18c>

000431d4 <quorem>:
   431d4:	defff204 	addi	sp,sp,-56
   431d8:	dd000815 	stw	r20,32(sp)
   431dc:	20800417 	ldw	r2,16(r4)
   431e0:	2d000417 	ldw	r20,16(r5)
   431e4:	dcc00715 	stw	r19,28(sp)
   431e8:	dfc00d15 	stw	ra,52(sp)
   431ec:	df000c15 	stw	fp,48(sp)
   431f0:	ddc00b15 	stw	r23,44(sp)
   431f4:	dd800a15 	stw	r22,40(sp)
   431f8:	dd400915 	stw	r21,36(sp)
   431fc:	dc800615 	stw	r18,24(sp)
   43200:	dc400515 	stw	r17,20(sp)
   43204:	dc000415 	stw	r16,16(sp)
   43208:	d9400015 	stw	r5,0(sp)
   4320c:	2027883a 	mov	r19,r4
   43210:	15007d16 	blt	r2,r20,43408 <quorem+0x234>
   43214:	a0800104 	addi	r2,r20,4
   43218:	1085883a 	add	r2,r2,r2
   4321c:	1085883a 	add	r2,r2,r2
   43220:	28ad883a 	add	r22,r5,r2
   43224:	2085883a 	add	r2,r4,r2
   43228:	10800017 	ldw	r2,0(r2)
   4322c:	b1400017 	ldw	r5,0(r22)
   43230:	a53fffc4 	addi	r20,r20,-1
   43234:	1009883a 	mov	r4,r2
   43238:	29400044 	addi	r5,r5,1
   4323c:	d8800115 	stw	r2,4(sp)
   43240:	0040df00 	call	40df0 <__udivsi3>
   43244:	1025883a 	mov	r18,r2
   43248:	d8800017 	ldw	r2,0(sp)
   4324c:	9f000504 	addi	fp,r19,20
   43250:	14000504 	addi	r16,r2,20
   43254:	90003626 	beq	r18,zero,43330 <quorem+0x15c>
   43258:	802b883a 	mov	r21,r16
   4325c:	e023883a 	mov	r17,fp
   43260:	0007883a 	mov	r3,zero
   43264:	002f883a 	mov	r23,zero
   43268:	a9800017 	ldw	r6,0(r21)
   4326c:	900b883a 	mov	r5,r18
   43270:	d8c00315 	stw	r3,12(sp)
   43274:	313fffcc 	andi	r4,r6,65535
   43278:	d9800215 	stw	r6,8(sp)
   4327c:	0040e000 	call	40e00 <__mulsi3>
   43280:	d9800217 	ldw	r6,8(sp)
   43284:	d8c00317 	ldw	r3,12(sp)
   43288:	900b883a 	mov	r5,r18
   4328c:	3008d43a 	srli	r4,r6,16
   43290:	1887883a 	add	r3,r3,r2
   43294:	d8c00315 	stw	r3,12(sp)
   43298:	0040e000 	call	40e00 <__mulsi3>
   4329c:	89400017 	ldw	r5,0(r17)
   432a0:	d8c00317 	ldw	r3,12(sp)
   432a4:	ad400104 	addi	r21,r21,4
   432a8:	293fffcc 	andi	r4,r5,65535
   432ac:	1810d43a 	srli	r8,r3,16
   432b0:	25c9883a 	add	r4,r4,r23
   432b4:	18ffffcc 	andi	r3,r3,65535
   432b8:	20c9c83a 	sub	r4,r4,r3
   432bc:	280cd43a 	srli	r6,r5,16
   432c0:	4085883a 	add	r2,r8,r2
   432c4:	2007d43a 	srai	r3,r4,16
   432c8:	117fffcc 	andi	r5,r2,65535
   432cc:	314bc83a 	sub	r5,r6,r5
   432d0:	28cb883a 	add	r5,r5,r3
   432d4:	8940008d 	sth	r5,2(r17)
   432d8:	8900000d 	sth	r4,0(r17)
   432dc:	1006d43a 	srli	r3,r2,16
   432e0:	282fd43a 	srai	r23,r5,16
   432e4:	8c400104 	addi	r17,r17,4
   432e8:	b57fdf2e 	bgeu	r22,r21,43268 <quorem+0x94>
   432ec:	d8c00117 	ldw	r3,4(sp)
   432f0:	18000f1e 	bne	r3,zero,43330 <quorem+0x15c>
   432f4:	a0800144 	addi	r2,r20,5
   432f8:	1085883a 	add	r2,r2,r2
   432fc:	1085883a 	add	r2,r2,r2
   43300:	9887883a 	add	r3,r19,r2
   43304:	18bfff04 	addi	r2,r3,-4
   43308:	e080082e 	bgeu	fp,r2,4332c <quorem+0x158>
   4330c:	18ffff17 	ldw	r3,-4(r3)
   43310:	18000326 	beq	r3,zero,43320 <quorem+0x14c>
   43314:	00000506 	br	4332c <quorem+0x158>
   43318:	10c00017 	ldw	r3,0(r2)
   4331c:	1800031e 	bne	r3,zero,4332c <quorem+0x158>
   43320:	10bfff04 	addi	r2,r2,-4
   43324:	a53fffc4 	addi	r20,r20,-1
   43328:	e0bffb36 	bltu	fp,r2,43318 <quorem+0x144>
   4332c:	9d000415 	stw	r20,16(r19)
   43330:	d9400017 	ldw	r5,0(sp)
   43334:	9809883a 	mov	r4,r19
   43338:	00471740 	call	47174 <__mcmp>
   4333c:	10002516 	blt	r2,zero,433d4 <quorem+0x200>
   43340:	94800044 	addi	r18,r18,1
   43344:	e007883a 	mov	r3,fp
   43348:	000d883a 	mov	r6,zero
   4334c:	18800017 	ldw	r2,0(r3)
   43350:	82000017 	ldw	r8,0(r16)
   43354:	84000104 	addi	r16,r16,4
   43358:	11ffffcc 	andi	r7,r2,65535
   4335c:	413fffcc 	andi	r4,r8,65535
   43360:	398d883a 	add	r6,r7,r6
   43364:	310fc83a 	sub	r7,r6,r4
   43368:	4010d43a 	srli	r8,r8,16
   4336c:	100cd43a 	srli	r6,r2,16
   43370:	3809d43a 	srai	r4,r7,16
   43374:	19c0000d 	sth	r7,0(r3)
   43378:	320dc83a 	sub	r6,r6,r8
   4337c:	310d883a 	add	r6,r6,r4
   43380:	1980008d 	sth	r6,2(r3)
   43384:	300dd43a 	srai	r6,r6,16
   43388:	18c00104 	addi	r3,r3,4
   4338c:	b43fef2e 	bgeu	r22,r16,4334c <quorem+0x178>
   43390:	a0800144 	addi	r2,r20,5
   43394:	1085883a 	add	r2,r2,r2
   43398:	1085883a 	add	r2,r2,r2
   4339c:	9885883a 	add	r2,r19,r2
   433a0:	10c00017 	ldw	r3,0(r2)
   433a4:	18000b1e 	bne	r3,zero,433d4 <quorem+0x200>
   433a8:	10ffff04 	addi	r3,r2,-4
   433ac:	e0c0082e 	bgeu	fp,r3,433d0 <quorem+0x1fc>
   433b0:	10bfff17 	ldw	r2,-4(r2)
   433b4:	10000326 	beq	r2,zero,433c4 <quorem+0x1f0>
   433b8:	00000506 	br	433d0 <quorem+0x1fc>
   433bc:	18800017 	ldw	r2,0(r3)
   433c0:	1000031e 	bne	r2,zero,433d0 <quorem+0x1fc>
   433c4:	18ffff04 	addi	r3,r3,-4
   433c8:	a53fffc4 	addi	r20,r20,-1
   433cc:	e0fffb36 	bltu	fp,r3,433bc <quorem+0x1e8>
   433d0:	9d000415 	stw	r20,16(r19)
   433d4:	9005883a 	mov	r2,r18
   433d8:	dfc00d17 	ldw	ra,52(sp)
   433dc:	df000c17 	ldw	fp,48(sp)
   433e0:	ddc00b17 	ldw	r23,44(sp)
   433e4:	dd800a17 	ldw	r22,40(sp)
   433e8:	dd400917 	ldw	r21,36(sp)
   433ec:	dd000817 	ldw	r20,32(sp)
   433f0:	dcc00717 	ldw	r19,28(sp)
   433f4:	dc800617 	ldw	r18,24(sp)
   433f8:	dc400517 	ldw	r17,20(sp)
   433fc:	dc000417 	ldw	r16,16(sp)
   43400:	dec00e04 	addi	sp,sp,56
   43404:	f800283a 	ret
   43408:	0005883a 	mov	r2,zero
   4340c:	003ff206 	br	433d8 <quorem+0x204>

00043410 <_dtoa_r>:
   43410:	20801017 	ldw	r2,64(r4)
   43414:	deffdf04 	addi	sp,sp,-132
   43418:	dcc01a15 	stw	r19,104(sp)
   4341c:	dc801915 	stw	r18,100(sp)
   43420:	dc401815 	stw	r17,96(sp)
   43424:	dc001715 	stw	r16,92(sp)
   43428:	dfc02015 	stw	ra,128(sp)
   4342c:	df001f15 	stw	fp,124(sp)
   43430:	ddc01e15 	stw	r23,120(sp)
   43434:	dd801d15 	stw	r22,116(sp)
   43438:	dd401c15 	stw	r21,112(sp)
   4343c:	dd001b15 	stw	r20,108(sp)
   43440:	d9400315 	stw	r5,12(sp)
   43444:	d9c00415 	stw	r7,16(sp)
   43448:	2021883a 	mov	r16,r4
   4344c:	3025883a 	mov	r18,r6
   43450:	dcc02317 	ldw	r19,140(sp)
   43454:	3023883a 	mov	r17,r6
   43458:	10000826 	beq	r2,zero,4347c <_dtoa_r+0x6c>
   4345c:	20c01117 	ldw	r3,68(r4)
   43460:	01800044 	movi	r6,1
   43464:	100b883a 	mov	r5,r2
   43468:	30cc983a 	sll	r6,r6,r3
   4346c:	10c00115 	stw	r3,4(r2)
   43470:	11800215 	stw	r6,8(r2)
   43474:	00468d00 	call	468d0 <_Bfree>
   43478:	80001015 	stw	zero,64(r16)
   4347c:	90002f16 	blt	r18,zero,4353c <_dtoa_r+0x12c>
   43480:	98000015 	stw	zero,0(r19)
   43484:	90dffc2c 	andhi	r3,r18,32752
   43488:	009ffc34 	movhi	r2,32752
   4348c:	18801c26 	beq	r3,r2,43500 <_dtoa_r+0xf0>
   43490:	d9000317 	ldw	r4,12(sp)
   43494:	880b883a 	mov	r5,r17
   43498:	000d883a 	mov	r6,zero
   4349c:	000f883a 	mov	r7,zero
   434a0:	0049ac80 	call	49ac8 <__eqdf2>
   434a4:	10002c1e 	bne	r2,zero,43558 <_dtoa_r+0x148>
   434a8:	d9002217 	ldw	r4,136(sp)
   434ac:	d9c02417 	ldw	r7,144(sp)
   434b0:	00800044 	movi	r2,1
   434b4:	20800015 	stw	r2,0(r4)
   434b8:	38019426 	beq	r7,zero,43b0c <_dtoa_r+0x6fc>
   434bc:	00800174 	movhi	r2,5
   434c0:	10b50444 	addi	r2,r2,-11247
   434c4:	38800015 	stw	r2,0(r7)
   434c8:	15ffffc4 	addi	r23,r2,-1
   434cc:	b805883a 	mov	r2,r23
   434d0:	dfc02017 	ldw	ra,128(sp)
   434d4:	df001f17 	ldw	fp,124(sp)
   434d8:	ddc01e17 	ldw	r23,120(sp)
   434dc:	dd801d17 	ldw	r22,116(sp)
   434e0:	dd401c17 	ldw	r21,112(sp)
   434e4:	dd001b17 	ldw	r20,108(sp)
   434e8:	dcc01a17 	ldw	r19,104(sp)
   434ec:	dc801917 	ldw	r18,100(sp)
   434f0:	dc401817 	ldw	r17,96(sp)
   434f4:	dc001717 	ldw	r16,92(sp)
   434f8:	dec02104 	addi	sp,sp,132
   434fc:	f800283a 	ret
   43500:	d8c02217 	ldw	r3,136(sp)
   43504:	d9000317 	ldw	r4,12(sp)
   43508:	0089c3c4 	movi	r2,9999
   4350c:	18800015 	stw	r2,0(r3)
   43510:	20016c26 	beq	r4,zero,43ac4 <_dtoa_r+0x6b4>
   43514:	05c00174 	movhi	r23,5
   43518:	bdf51004 	addi	r23,r23,-11200
   4351c:	d9c02417 	ldw	r7,144(sp)
   43520:	383fea26 	beq	r7,zero,434cc <_dtoa_r+0xbc>
   43524:	b88000c7 	ldb	r2,3(r23)
   43528:	10016d1e 	bne	r2,zero,43ae0 <_dtoa_r+0x6d0>
   4352c:	b88000c4 	addi	r2,r23,3
   43530:	d8c02417 	ldw	r3,144(sp)
   43534:	18800015 	stw	r2,0(r3)
   43538:	003fe406 	br	434cc <_dtoa_r+0xbc>
   4353c:	04600034 	movhi	r17,32768
   43540:	8c7fffc4 	addi	r17,r17,-1
   43544:	9462703a 	and	r17,r18,r17
   43548:	00800044 	movi	r2,1
   4354c:	98800015 	stw	r2,0(r19)
   43550:	8825883a 	mov	r18,r17
   43554:	003fcb06 	br	43484 <_dtoa_r+0x74>
   43558:	d9400317 	ldw	r5,12(sp)
   4355c:	9028d53a 	srli	r20,r18,20
   43560:	d8800204 	addi	r2,sp,8
   43564:	d8800015 	stw	r2,0(sp)
   43568:	8009883a 	mov	r4,r16
   4356c:	880d883a 	mov	r6,r17
   43570:	d9c00104 	addi	r7,sp,4
   43574:	004751c0 	call	4751c <__d2b>
   43578:	a501ffcc 	andi	r20,r20,2047
   4357c:	1039883a 	mov	fp,r2
   43580:	a001591e 	bne	r20,zero,43ae8 <_dtoa_r+0x6d8>
   43584:	dd400217 	ldw	r21,8(sp)
   43588:	dd000117 	ldw	r20,4(sp)
   4358c:	00befbc4 	movi	r2,-1041
   43590:	ad29883a 	add	r20,r21,r20
   43594:	a082d216 	blt	r20,r2,440e0 <_dtoa_r+0xcd0>
   43598:	d8c00317 	ldw	r3,12(sp)
   4359c:	013f0384 	movi	r4,-1010
   435a0:	2509c83a 	sub	r4,r4,r20
   435a4:	a0810484 	addi	r2,r20,1042
   435a8:	9124983a 	sll	r18,r18,r4
   435ac:	1884d83a 	srl	r2,r3,r2
   435b0:	9088b03a 	or	r4,r18,r2
   435b4:	0049e4c0 	call	49e4c <__floatunsidf>
   435b8:	1009883a 	mov	r4,r2
   435bc:	017f8434 	movhi	r5,65040
   435c0:	00800044 	movi	r2,1
   435c4:	194b883a 	add	r5,r3,r5
   435c8:	a53fffc4 	addi	r20,r20,-1
   435cc:	d8800f15 	stw	r2,60(sp)
   435d0:	000d883a 	mov	r6,zero
   435d4:	01cffe34 	movhi	r7,16376
   435d8:	00495d00 	call	495d0 <__subdf3>
   435dc:	1009883a 	mov	r4,r2
   435e0:	180b883a 	mov	r5,r3
   435e4:	0198dbf4 	movhi	r6,25455
   435e8:	3190d844 	addi	r6,r6,17249
   435ec:	01cff4f4 	movhi	r7,16339
   435f0:	39e1e9c4 	addi	r7,r7,-30809
   435f4:	00496300 	call	49630 <__muldf3>
   435f8:	180b883a 	mov	r5,r3
   435fc:	01a2d874 	movhi	r6,35681
   43600:	31b22cc4 	addi	r6,r6,-14157
   43604:	01cff1f4 	movhi	r7,16327
   43608:	39e28a04 	addi	r7,r7,-30168
   4360c:	1009883a 	mov	r4,r2
   43610:	004957c0 	call	4957c <__adddf3>
   43614:	a009883a 	mov	r4,r20
   43618:	1027883a 	mov	r19,r2
   4361c:	1825883a 	mov	r18,r3
   43620:	0049ca40 	call	49ca4 <__floatsidf>
   43624:	1009883a 	mov	r4,r2
   43628:	180b883a 	mov	r5,r3
   4362c:	019427f4 	movhi	r6,20639
   43630:	319e7ec4 	addi	r6,r6,31227
   43634:	01cff4f4 	movhi	r7,16339
   43638:	39d104c4 	addi	r7,r7,17427
   4363c:	00496300 	call	49630 <__muldf3>
   43640:	9809883a 	mov	r4,r19
   43644:	900b883a 	mov	r5,r18
   43648:	100d883a 	mov	r6,r2
   4364c:	180f883a 	mov	r7,r3
   43650:	004957c0 	call	4957c <__adddf3>
   43654:	1009883a 	mov	r4,r2
   43658:	180b883a 	mov	r5,r3
   4365c:	1027883a 	mov	r19,r2
   43660:	1825883a 	mov	r18,r3
   43664:	0049d780 	call	49d78 <__fixdfsi>
   43668:	9809883a 	mov	r4,r19
   4366c:	900b883a 	mov	r5,r18
   43670:	000d883a 	mov	r6,zero
   43674:	000f883a 	mov	r7,zero
   43678:	d8800615 	stw	r2,24(sp)
   4367c:	0049c480 	call	49c48 <__ltdf2>
   43680:	10027e16 	blt	r2,zero,4407c <_dtoa_r+0xc6c>
   43684:	d8c00617 	ldw	r3,24(sp)
   43688:	00800584 	movi	r2,22
   4368c:	10c26c36 	bltu	r2,r3,44040 <_dtoa_r+0xc30>
   43690:	180490fa 	slli	r2,r3,3
   43694:	00c00174 	movhi	r3,5
   43698:	18f53504 	addi	r3,r3,-11052
   4369c:	d9800317 	ldw	r6,12(sp)
   436a0:	1885883a 	add	r2,r3,r2
   436a4:	11000017 	ldw	r4,0(r2)
   436a8:	11400117 	ldw	r5,4(r2)
   436ac:	880f883a 	mov	r7,r17
   436b0:	0049b800 	call	49b80 <__gtdf2>
   436b4:	00828f0e 	bge	zero,r2,440f4 <_dtoa_r+0xce4>
   436b8:	d8800617 	ldw	r2,24(sp)
   436bc:	d8000d15 	stw	zero,52(sp)
   436c0:	10bfffc4 	addi	r2,r2,-1
   436c4:	d8800615 	stw	r2,24(sp)
   436c8:	ad29c83a 	sub	r20,r21,r20
   436cc:	a53fffc4 	addi	r20,r20,-1
   436d0:	a0026616 	blt	r20,zero,4406c <_dtoa_r+0xc5c>
   436d4:	dd000715 	stw	r20,28(sp)
   436d8:	d8000815 	stw	zero,32(sp)
   436dc:	d8800617 	ldw	r2,24(sp)
   436e0:	10025a16 	blt	r2,zero,4404c <_dtoa_r+0xc3c>
   436e4:	d8c00717 	ldw	r3,28(sp)
   436e8:	d8800b15 	stw	r2,44(sp)
   436ec:	d8000a15 	stw	zero,40(sp)
   436f0:	1887883a 	add	r3,r3,r2
   436f4:	d8c00715 	stw	r3,28(sp)
   436f8:	d9c00417 	ldw	r7,16(sp)
   436fc:	00800244 	movi	r2,9
   43700:	11c10536 	bltu	r2,r7,43b18 <_dtoa_r+0x708>
   43704:	00800144 	movi	r2,5
   43708:	11c4c60e 	bge	r2,r7,44a24 <_dtoa_r+0x1614>
   4370c:	39ffff04 	addi	r7,r7,-4
   43710:	d9c00415 	stw	r7,16(sp)
   43714:	0027883a 	mov	r19,zero
   43718:	d9c00417 	ldw	r7,16(sp)
   4371c:	008000c4 	movi	r2,3
   43720:	3883a226 	beq	r7,r2,445ac <_dtoa_r+0x119c>
   43724:	11c2bc16 	blt	r2,r7,44218 <_dtoa_r+0xe08>
   43728:	00800084 	movi	r2,2
   4372c:	3880fb1e 	bne	r7,r2,43b1c <_dtoa_r+0x70c>
   43730:	d8000c15 	stw	zero,48(sp)
   43734:	d9002117 	ldw	r4,132(sp)
   43738:	0103ae0e 	bge	zero,r4,445f4 <_dtoa_r+0x11e4>
   4373c:	2025883a 	mov	r18,r4
   43740:	d9000e15 	stw	r4,56(sp)
   43744:	d9000915 	stw	r4,36(sp)
   43748:	80001115 	stw	zero,68(r16)
   4374c:	008005c4 	movi	r2,23
   43750:	1484b22e 	bgeu	r2,r18,44a1c <_dtoa_r+0x160c>
   43754:	00c00044 	movi	r3,1
   43758:	00800104 	movi	r2,4
   4375c:	1085883a 	add	r2,r2,r2
   43760:	11000504 	addi	r4,r2,20
   43764:	180b883a 	mov	r5,r3
   43768:	18c00044 	addi	r3,r3,1
   4376c:	913ffb2e 	bgeu	r18,r4,4375c <_dtoa_r+0x34c>
   43770:	81401115 	stw	r5,68(r16)
   43774:	8009883a 	mov	r4,r16
   43778:	00468280 	call	46828 <_Balloc>
   4377c:	102f883a 	mov	r23,r2
   43780:	80801015 	stw	r2,64(r16)
   43784:	00800384 	movi	r2,14
   43788:	1480f036 	bltu	r2,r18,43b4c <_dtoa_r+0x73c>
   4378c:	9800ef26 	beq	r19,zero,43b4c <_dtoa_r+0x73c>
   43790:	d8800617 	ldw	r2,24(sp)
   43794:	00839c0e 	bge	zero,r2,44608 <_dtoa_r+0x11f8>
   43798:	d8c00617 	ldw	r3,24(sp)
   4379c:	108003cc 	andi	r2,r2,15
   437a0:	100490fa 	slli	r2,r2,3
   437a4:	182bd13a 	srai	r21,r3,4
   437a8:	00c00174 	movhi	r3,5
   437ac:	18f53504 	addi	r3,r3,-11052
   437b0:	1885883a 	add	r2,r3,r2
   437b4:	a8c0040c 	andi	r3,r21,16
   437b8:	12800017 	ldw	r10,0(r2)
   437bc:	15800117 	ldw	r22,4(r2)
   437c0:	18038726 	beq	r3,zero,445e0 <_dtoa_r+0x11d0>
   437c4:	00800174 	movhi	r2,5
   437c8:	10b52b04 	addi	r2,r2,-11092
   437cc:	11800817 	ldw	r6,32(r2)
   437d0:	11c00917 	ldw	r7,36(r2)
   437d4:	d9000317 	ldw	r4,12(sp)
   437d8:	880b883a 	mov	r5,r17
   437dc:	da801515 	stw	r10,84(sp)
   437e0:	00499140 	call	49914 <__divdf3>
   437e4:	da801517 	ldw	r10,84(sp)
   437e8:	d8801015 	stw	r2,64(sp)
   437ec:	1829883a 	mov	r20,r3
   437f0:	ad4003cc 	andi	r21,r21,15
   437f4:	048000c4 	movi	r18,3
   437f8:	a8001126 	beq	r21,zero,43840 <_dtoa_r+0x430>
   437fc:	04c00174 	movhi	r19,5
   43800:	9cf52b04 	addi	r19,r19,-11092
   43804:	5005883a 	mov	r2,r10
   43808:	b007883a 	mov	r3,r22
   4380c:	a980004c 	andi	r6,r21,1
   43810:	1009883a 	mov	r4,r2
   43814:	a82bd07a 	srai	r21,r21,1
   43818:	180b883a 	mov	r5,r3
   4381c:	30000426 	beq	r6,zero,43830 <_dtoa_r+0x420>
   43820:	99800017 	ldw	r6,0(r19)
   43824:	99c00117 	ldw	r7,4(r19)
   43828:	94800044 	addi	r18,r18,1
   4382c:	00496300 	call	49630 <__muldf3>
   43830:	9cc00204 	addi	r19,r19,8
   43834:	a83ff51e 	bne	r21,zero,4380c <_dtoa_r+0x3fc>
   43838:	1015883a 	mov	r10,r2
   4383c:	182d883a 	mov	r22,r3
   43840:	d9001017 	ldw	r4,64(sp)
   43844:	a00b883a 	mov	r5,r20
   43848:	500d883a 	mov	r6,r10
   4384c:	b00f883a 	mov	r7,r22
   43850:	00499140 	call	49914 <__divdf3>
   43854:	1027883a 	mov	r19,r2
   43858:	1829883a 	mov	r20,r3
   4385c:	d8c00d17 	ldw	r3,52(sp)
   43860:	18000626 	beq	r3,zero,4387c <_dtoa_r+0x46c>
   43864:	9809883a 	mov	r4,r19
   43868:	a00b883a 	mov	r5,r20
   4386c:	000d883a 	mov	r6,zero
   43870:	01cffc34 	movhi	r7,16368
   43874:	0049c480 	call	49c48 <__ltdf2>
   43878:	10040e16 	blt	r2,zero,448b4 <_dtoa_r+0x14a4>
   4387c:	9009883a 	mov	r4,r18
   43880:	0049ca40 	call	49ca4 <__floatsidf>
   43884:	1009883a 	mov	r4,r2
   43888:	180b883a 	mov	r5,r3
   4388c:	980d883a 	mov	r6,r19
   43890:	a00f883a 	mov	r7,r20
   43894:	00496300 	call	49630 <__muldf3>
   43898:	1009883a 	mov	r4,r2
   4389c:	180b883a 	mov	r5,r3
   438a0:	000d883a 	mov	r6,zero
   438a4:	01d00734 	movhi	r7,16412
   438a8:	004957c0 	call	4957c <__adddf3>
   438ac:	057f3034 	movhi	r21,64704
   438b0:	1d6b883a 	add	r21,r3,r21
   438b4:	d8c00917 	ldw	r3,36(sp)
   438b8:	1025883a 	mov	r18,r2
   438bc:	18031f26 	beq	r3,zero,4453c <_dtoa_r+0x112c>
   438c0:	d8800617 	ldw	r2,24(sp)
   438c4:	dac00917 	ldw	r11,36(sp)
   438c8:	d8801315 	stw	r2,76(sp)
   438cc:	d8c00c17 	ldw	r3,48(sp)
   438d0:	18039026 	beq	r3,zero,44714 <_dtoa_r+0x1304>
   438d4:	58bfffc4 	addi	r2,r11,-1
   438d8:	100490fa 	slli	r2,r2,3
   438dc:	00c00174 	movhi	r3,5
   438e0:	18f53504 	addi	r3,r3,-11052
   438e4:	0009883a 	mov	r4,zero
   438e8:	1885883a 	add	r2,r3,r2
   438ec:	11800017 	ldw	r6,0(r2)
   438f0:	11c00117 	ldw	r7,4(r2)
   438f4:	014ff834 	movhi	r5,16352
   438f8:	dac01615 	stw	r11,88(sp)
   438fc:	00499140 	call	49914 <__divdf3>
   43900:	900d883a 	mov	r6,r18
   43904:	a80f883a 	mov	r7,r21
   43908:	1009883a 	mov	r4,r2
   4390c:	180b883a 	mov	r5,r3
   43910:	00495d00 	call	495d0 <__subdf3>
   43914:	a00b883a 	mov	r5,r20
   43918:	9809883a 	mov	r4,r19
   4391c:	182b883a 	mov	r21,r3
   43920:	d8801015 	stw	r2,64(sp)
   43924:	0049d780 	call	49d78 <__fixdfsi>
   43928:	1009883a 	mov	r4,r2
   4392c:	d8801515 	stw	r2,84(sp)
   43930:	0049ca40 	call	49ca4 <__floatsidf>
   43934:	9809883a 	mov	r4,r19
   43938:	a00b883a 	mov	r5,r20
   4393c:	100d883a 	mov	r6,r2
   43940:	180f883a 	mov	r7,r3
   43944:	00495d00 	call	495d0 <__subdf3>
   43948:	da401517 	ldw	r9,84(sp)
   4394c:	d9001017 	ldw	r4,64(sp)
   43950:	a80b883a 	mov	r5,r21
   43954:	4d000c04 	addi	r20,r9,48
   43958:	bd000005 	stb	r20,0(r23)
   4395c:	100d883a 	mov	r6,r2
   43960:	180f883a 	mov	r7,r3
   43964:	bd800044 	addi	r22,r23,1
   43968:	1025883a 	mov	r18,r2
   4396c:	1827883a 	mov	r19,r3
   43970:	0049b800 	call	49b80 <__gtdf2>
   43974:	00842216 	blt	zero,r2,44a00 <_dtoa_r+0x15f0>
   43978:	0009883a 	mov	r4,zero
   4397c:	014ffc34 	movhi	r5,16368
   43980:	900d883a 	mov	r6,r18
   43984:	980f883a 	mov	r7,r19
   43988:	00495d00 	call	495d0 <__subdf3>
   4398c:	d9001017 	ldw	r4,64(sp)
   43990:	a80b883a 	mov	r5,r21
   43994:	100d883a 	mov	r6,r2
   43998:	180f883a 	mov	r7,r3
   4399c:	0049b800 	call	49b80 <__gtdf2>
   439a0:	dac01617 	ldw	r11,88(sp)
   439a4:	00841316 	blt	zero,r2,449f4 <_dtoa_r+0x15e4>
   439a8:	00800044 	movi	r2,1
   439ac:	12c0670e 	bge	r2,r11,43b4c <_dtoa_r+0x73c>
   439b0:	bad7883a 	add	r11,r23,r11
   439b4:	df001115 	stw	fp,68(sp)
   439b8:	dc401215 	stw	r17,72(sp)
   439bc:	5839883a 	mov	fp,r11
   439c0:	dc401017 	ldw	r17,64(sp)
   439c4:	00000806 	br	439e8 <_dtoa_r+0x5d8>
   439c8:	00495d00 	call	495d0 <__subdf3>
   439cc:	1009883a 	mov	r4,r2
   439d0:	180b883a 	mov	r5,r3
   439d4:	880d883a 	mov	r6,r17
   439d8:	a80f883a 	mov	r7,r21
   439dc:	0049c480 	call	49c48 <__ltdf2>
   439e0:	1003ee16 	blt	r2,zero,4499c <_dtoa_r+0x158c>
   439e4:	b703f126 	beq	r22,fp,449ac <_dtoa_r+0x159c>
   439e8:	8809883a 	mov	r4,r17
   439ec:	a80b883a 	mov	r5,r21
   439f0:	000d883a 	mov	r6,zero
   439f4:	01d00934 	movhi	r7,16420
   439f8:	00496300 	call	49630 <__muldf3>
   439fc:	000d883a 	mov	r6,zero
   43a00:	01d00934 	movhi	r7,16420
   43a04:	9009883a 	mov	r4,r18
   43a08:	980b883a 	mov	r5,r19
   43a0c:	1023883a 	mov	r17,r2
   43a10:	182b883a 	mov	r21,r3
   43a14:	00496300 	call	49630 <__muldf3>
   43a18:	180b883a 	mov	r5,r3
   43a1c:	1009883a 	mov	r4,r2
   43a20:	1825883a 	mov	r18,r3
   43a24:	1027883a 	mov	r19,r2
   43a28:	0049d780 	call	49d78 <__fixdfsi>
   43a2c:	1009883a 	mov	r4,r2
   43a30:	1029883a 	mov	r20,r2
   43a34:	0049ca40 	call	49ca4 <__floatsidf>
   43a38:	9809883a 	mov	r4,r19
   43a3c:	900b883a 	mov	r5,r18
   43a40:	100d883a 	mov	r6,r2
   43a44:	180f883a 	mov	r7,r3
   43a48:	00495d00 	call	495d0 <__subdf3>
   43a4c:	a5000c04 	addi	r20,r20,48
   43a50:	b5000005 	stb	r20,0(r22)
   43a54:	1009883a 	mov	r4,r2
   43a58:	180b883a 	mov	r5,r3
   43a5c:	880d883a 	mov	r6,r17
   43a60:	a80f883a 	mov	r7,r21
   43a64:	1025883a 	mov	r18,r2
   43a68:	1827883a 	mov	r19,r3
   43a6c:	0049c480 	call	49c48 <__ltdf2>
   43a70:	b5800044 	addi	r22,r22,1
   43a74:	0009883a 	mov	r4,zero
   43a78:	014ffc34 	movhi	r5,16368
   43a7c:	900d883a 	mov	r6,r18
   43a80:	980f883a 	mov	r7,r19
   43a84:	103fd00e 	bge	r2,zero,439c8 <_dtoa_r+0x5b8>
   43a88:	d9001317 	ldw	r4,76(sp)
   43a8c:	df001117 	ldw	fp,68(sp)
   43a90:	d9000615 	stw	r4,24(sp)
   43a94:	8009883a 	mov	r4,r16
   43a98:	e00b883a 	mov	r5,fp
   43a9c:	00468d00 	call	468d0 <_Bfree>
   43aa0:	d9c00617 	ldw	r7,24(sp)
   43aa4:	d8c02217 	ldw	r3,136(sp)
   43aa8:	d9002417 	ldw	r4,144(sp)
   43aac:	b0000005 	stb	zero,0(r22)
   43ab0:	38800044 	addi	r2,r7,1
   43ab4:	18800015 	stw	r2,0(r3)
   43ab8:	203e8426 	beq	r4,zero,434cc <_dtoa_r+0xbc>
   43abc:	25800015 	stw	r22,0(r4)
   43ac0:	003e8206 	br	434cc <_dtoa_r+0xbc>
   43ac4:	00800434 	movhi	r2,16
   43ac8:	10bfffc4 	addi	r2,r2,-1
   43acc:	90a4703a 	and	r18,r18,r2
   43ad0:	903e901e 	bne	r18,zero,43514 <_dtoa_r+0x104>
   43ad4:	05c00174 	movhi	r23,5
   43ad8:	bdf50d04 	addi	r23,r23,-11212
   43adc:	003e8f06 	br	4351c <_dtoa_r+0x10c>
   43ae0:	b8800204 	addi	r2,r23,8
   43ae4:	003e9206 	br	43530 <_dtoa_r+0x120>
   43ae8:	01400434 	movhi	r5,16
   43aec:	297fffc4 	addi	r5,r5,-1
   43af0:	894a703a 	and	r5,r17,r5
   43af4:	d9000317 	ldw	r4,12(sp)
   43af8:	294ffc34 	orhi	r5,r5,16368
   43afc:	a53f0044 	addi	r20,r20,-1023
   43b00:	dd400217 	ldw	r21,8(sp)
   43b04:	d8000f15 	stw	zero,60(sp)
   43b08:	003eb106 	br	435d0 <_dtoa_r+0x1c0>
   43b0c:	05c00174 	movhi	r23,5
   43b10:	bdf50404 	addi	r23,r23,-11248
   43b14:	003e6d06 	br	434cc <_dtoa_r+0xbc>
   43b18:	d8000415 	stw	zero,16(sp)
   43b1c:	80001115 	stw	zero,68(r16)
   43b20:	8009883a 	mov	r4,r16
   43b24:	000b883a 	mov	r5,zero
   43b28:	00468280 	call	46828 <_Balloc>
   43b2c:	01ffffc4 	movi	r7,-1
   43b30:	102f883a 	mov	r23,r2
   43b34:	80801015 	stw	r2,64(r16)
   43b38:	00800044 	movi	r2,1
   43b3c:	d9c00915 	stw	r7,36(sp)
   43b40:	d8002115 	stw	zero,132(sp)
   43b44:	d9c00e15 	stw	r7,56(sp)
   43b48:	d8800c15 	stw	r2,48(sp)
   43b4c:	d8800117 	ldw	r2,4(sp)
   43b50:	10008b16 	blt	r2,zero,43d80 <_dtoa_r+0x970>
   43b54:	d9000617 	ldw	r4,24(sp)
   43b58:	00c00384 	movi	r3,14
   43b5c:	19008816 	blt	r3,r4,43d80 <_dtoa_r+0x970>
   43b60:	200490fa 	slli	r2,r4,3
   43b64:	d9c02117 	ldw	r7,132(sp)
   43b68:	00c00174 	movhi	r3,5
   43b6c:	18f53504 	addi	r3,r3,-11052
   43b70:	1885883a 	add	r2,r3,r2
   43b74:	14800017 	ldw	r18,0(r2)
   43b78:	14c00117 	ldw	r19,4(r2)
   43b7c:	3801c916 	blt	r7,zero,442a4 <_dtoa_r+0xe94>
   43b80:	d9000317 	ldw	r4,12(sp)
   43b84:	900d883a 	mov	r6,r18
   43b88:	980f883a 	mov	r7,r19
   43b8c:	880b883a 	mov	r5,r17
   43b90:	00499140 	call	49914 <__divdf3>
   43b94:	180b883a 	mov	r5,r3
   43b98:	1009883a 	mov	r4,r2
   43b9c:	0049d780 	call	49d78 <__fixdfsi>
   43ba0:	1009883a 	mov	r4,r2
   43ba4:	102b883a 	mov	r21,r2
   43ba8:	0049ca40 	call	49ca4 <__floatsidf>
   43bac:	1009883a 	mov	r4,r2
   43bb0:	180b883a 	mov	r5,r3
   43bb4:	900d883a 	mov	r6,r18
   43bb8:	980f883a 	mov	r7,r19
   43bbc:	00496300 	call	49630 <__muldf3>
   43bc0:	d9000317 	ldw	r4,12(sp)
   43bc4:	880b883a 	mov	r5,r17
   43bc8:	100d883a 	mov	r6,r2
   43bcc:	180f883a 	mov	r7,r3
   43bd0:	00495d00 	call	495d0 <__subdf3>
   43bd4:	d9c00917 	ldw	r7,36(sp)
   43bd8:	1009883a 	mov	r4,r2
   43bdc:	a8800c04 	addi	r2,r21,48
   43be0:	b8800005 	stb	r2,0(r23)
   43be4:	01800044 	movi	r6,1
   43be8:	180b883a 	mov	r5,r3
   43bec:	2005883a 	mov	r2,r4
   43bf0:	bd800044 	addi	r22,r23,1
   43bf4:	39803726 	beq	r7,r6,43cd4 <_dtoa_r+0x8c4>
   43bf8:	000d883a 	mov	r6,zero
   43bfc:	01d00934 	movhi	r7,16420
   43c00:	00496300 	call	49630 <__muldf3>
   43c04:	1009883a 	mov	r4,r2
   43c08:	180b883a 	mov	r5,r3
   43c0c:	000d883a 	mov	r6,zero
   43c10:	000f883a 	mov	r7,zero
   43c14:	1029883a 	mov	r20,r2
   43c18:	1823883a 	mov	r17,r3
   43c1c:	0049ac80 	call	49ac8 <__eqdf2>
   43c20:	103f9c26 	beq	r2,zero,43a94 <_dtoa_r+0x684>
   43c24:	dd400917 	ldw	r21,36(sp)
   43c28:	dc000415 	stw	r16,16(sp)
   43c2c:	00000906 	br	43c54 <_dtoa_r+0x844>
   43c30:	00496300 	call	49630 <__muldf3>
   43c34:	1009883a 	mov	r4,r2
   43c38:	180b883a 	mov	r5,r3
   43c3c:	000d883a 	mov	r6,zero
   43c40:	000f883a 	mov	r7,zero
   43c44:	1029883a 	mov	r20,r2
   43c48:	1823883a 	mov	r17,r3
   43c4c:	0049ac80 	call	49ac8 <__eqdf2>
   43c50:	10022926 	beq	r2,zero,444f8 <_dtoa_r+0x10e8>
   43c54:	900d883a 	mov	r6,r18
   43c58:	980f883a 	mov	r7,r19
   43c5c:	a009883a 	mov	r4,r20
   43c60:	880b883a 	mov	r5,r17
   43c64:	00499140 	call	49914 <__divdf3>
   43c68:	180b883a 	mov	r5,r3
   43c6c:	1009883a 	mov	r4,r2
   43c70:	0049d780 	call	49d78 <__fixdfsi>
   43c74:	1009883a 	mov	r4,r2
   43c78:	1021883a 	mov	r16,r2
   43c7c:	0049ca40 	call	49ca4 <__floatsidf>
   43c80:	1009883a 	mov	r4,r2
   43c84:	180b883a 	mov	r5,r3
   43c88:	900d883a 	mov	r6,r18
   43c8c:	980f883a 	mov	r7,r19
   43c90:	00496300 	call	49630 <__muldf3>
   43c94:	a009883a 	mov	r4,r20
   43c98:	880b883a 	mov	r5,r17
   43c9c:	100d883a 	mov	r6,r2
   43ca0:	180f883a 	mov	r7,r3
   43ca4:	00495d00 	call	495d0 <__subdf3>
   43ca8:	82400c04 	addi	r9,r16,48
   43cac:	b2400005 	stb	r9,0(r22)
   43cb0:	b5800044 	addi	r22,r22,1
   43cb4:	b5d3c83a 	sub	r9,r22,r23
   43cb8:	000d883a 	mov	r6,zero
   43cbc:	01d00934 	movhi	r7,16420
   43cc0:	1009883a 	mov	r4,r2
   43cc4:	180b883a 	mov	r5,r3
   43cc8:	aa7fd91e 	bne	r21,r9,43c30 <_dtoa_r+0x820>
   43ccc:	802b883a 	mov	r21,r16
   43cd0:	dc000417 	ldw	r16,16(sp)
   43cd4:	1009883a 	mov	r4,r2
   43cd8:	180b883a 	mov	r5,r3
   43cdc:	100d883a 	mov	r6,r2
   43ce0:	180f883a 	mov	r7,r3
   43ce4:	004957c0 	call	4957c <__adddf3>
   43ce8:	9009883a 	mov	r4,r18
   43cec:	980b883a 	mov	r5,r19
   43cf0:	100d883a 	mov	r6,r2
   43cf4:	180f883a 	mov	r7,r3
   43cf8:	1023883a 	mov	r17,r2
   43cfc:	1829883a 	mov	r20,r3
   43d00:	0049c480 	call	49c48 <__ltdf2>
   43d04:	10000816 	blt	r2,zero,43d28 <_dtoa_r+0x918>
   43d08:	9009883a 	mov	r4,r18
   43d0c:	980b883a 	mov	r5,r19
   43d10:	880d883a 	mov	r6,r17
   43d14:	a00f883a 	mov	r7,r20
   43d18:	0049ac80 	call	49ac8 <__eqdf2>
   43d1c:	103f5d1e 	bne	r2,zero,43a94 <_dtoa_r+0x684>
   43d20:	ad40004c 	andi	r21,r21,1
   43d24:	a83f5b26 	beq	r21,zero,43a94 <_dtoa_r+0x684>
   43d28:	b53fffc3 	ldbu	r20,-1(r22)
   43d2c:	b0ffff84 	addi	r3,r22,-2
   43d30:	01400e44 	movi	r5,57
   43d34:	00000306 	br	43d44 <_dtoa_r+0x934>
   43d38:	1d000003 	ldbu	r20,0(r3)
   43d3c:	102d883a 	mov	r22,r2
   43d40:	18ffffc4 	addi	r3,r3,-1
   43d44:	a1003fcc 	andi	r4,r20,255
   43d48:	2100201c 	xori	r4,r4,128
   43d4c:	213fe004 	addi	r4,r4,-128
   43d50:	b0bfffc4 	addi	r2,r22,-1
   43d54:	2142ca1e 	bne	r4,r5,44880 <_dtoa_r+0x1470>
   43d58:	b8bff71e 	bne	r23,r2,43d38 <_dtoa_r+0x928>
   43d5c:	d8800617 	ldw	r2,24(sp)
   43d60:	05000c44 	movi	r20,49
   43d64:	10800044 	addi	r2,r2,1
   43d68:	d8800615 	stw	r2,24(sp)
   43d6c:	00800c04 	movi	r2,48
   43d70:	b8800005 	stb	r2,0(r23)
   43d74:	b805883a 	mov	r2,r23
   43d78:	15000005 	stb	r20,0(r2)
   43d7c:	003f4506 	br	43a94 <_dtoa_r+0x684>
   43d80:	d9c00c17 	ldw	r7,48(sp)
   43d84:	3800c926 	beq	r7,zero,440ac <_dtoa_r+0xc9c>
   43d88:	d9c00417 	ldw	r7,16(sp)
   43d8c:	00c00044 	movi	r3,1
   43d90:	19c16c0e 	bge	r3,r7,44344 <_dtoa_r+0xf34>
   43d94:	d9000917 	ldw	r4,36(sp)
   43d98:	d9c00a17 	ldw	r7,40(sp)
   43d9c:	24ffffc4 	addi	r19,r4,-1
   43da0:	3cc20716 	blt	r7,r19,445c0 <_dtoa_r+0x11b0>
   43da4:	3ce7c83a 	sub	r19,r7,r19
   43da8:	d9c00917 	ldw	r7,36(sp)
   43dac:	3802ae16 	blt	r7,zero,44868 <_dtoa_r+0x1458>
   43db0:	dc800817 	ldw	r18,32(sp)
   43db4:	d8800917 	ldw	r2,36(sp)
   43db8:	d8c00817 	ldw	r3,32(sp)
   43dbc:	d9c00717 	ldw	r7,28(sp)
   43dc0:	8009883a 	mov	r4,r16
   43dc4:	1887883a 	add	r3,r3,r2
   43dc8:	388f883a 	add	r7,r7,r2
   43dcc:	01400044 	movi	r5,1
   43dd0:	d8c00815 	stw	r3,32(sp)
   43dd4:	d9c00715 	stw	r7,28(sp)
   43dd8:	0046c580 	call	46c58 <__i2b>
   43ddc:	102b883a 	mov	r21,r2
   43de0:	90000a26 	beq	r18,zero,43e0c <_dtoa_r+0x9fc>
   43de4:	d8800717 	ldw	r2,28(sp)
   43de8:	0080080e 	bge	zero,r2,43e0c <_dtoa_r+0x9fc>
   43dec:	90812b16 	blt	r18,r2,4429c <_dtoa_r+0xe8c>
   43df0:	d8c00817 	ldw	r3,32(sp)
   43df4:	d9000717 	ldw	r4,28(sp)
   43df8:	90a5c83a 	sub	r18,r18,r2
   43dfc:	1887c83a 	sub	r3,r3,r2
   43e00:	2089c83a 	sub	r4,r4,r2
   43e04:	d8c00815 	stw	r3,32(sp)
   43e08:	d9000715 	stw	r4,28(sp)
   43e0c:	d9c00a17 	ldw	r7,40(sp)
   43e10:	01c0140e 	bge	zero,r7,43e64 <_dtoa_r+0xa54>
   43e14:	d8800c17 	ldw	r2,48(sp)
   43e18:	1001de26 	beq	r2,zero,44594 <_dtoa_r+0x1184>
   43e1c:	04c00e0e 	bge	zero,r19,43e58 <_dtoa_r+0xa48>
   43e20:	a80b883a 	mov	r5,r21
   43e24:	8009883a 	mov	r4,r16
   43e28:	980d883a 	mov	r6,r19
   43e2c:	0046eec0 	call	46eec <__pow5mult>
   43e30:	e00d883a 	mov	r6,fp
   43e34:	8009883a 	mov	r4,r16
   43e38:	100b883a 	mov	r5,r2
   43e3c:	102b883a 	mov	r21,r2
   43e40:	0046c940 	call	46c94 <__multiply>
   43e44:	1029883a 	mov	r20,r2
   43e48:	e00b883a 	mov	r5,fp
   43e4c:	8009883a 	mov	r4,r16
   43e50:	00468d00 	call	468d0 <_Bfree>
   43e54:	a039883a 	mov	fp,r20
   43e58:	d8c00a17 	ldw	r3,40(sp)
   43e5c:	1ccdc83a 	sub	r6,r3,r19
   43e60:	3001291e 	bne	r6,zero,44308 <_dtoa_r+0xef8>
   43e64:	8009883a 	mov	r4,r16
   43e68:	01400044 	movi	r5,1
   43e6c:	0046c580 	call	46c58 <__i2b>
   43e70:	d9000b17 	ldw	r4,44(sp)
   43e74:	1029883a 	mov	r20,r2
   43e78:	0100050e 	bge	zero,r4,43e90 <_dtoa_r+0xa80>
   43e7c:	d9800b17 	ldw	r6,44(sp)
   43e80:	8009883a 	mov	r4,r16
   43e84:	100b883a 	mov	r5,r2
   43e88:	0046eec0 	call	46eec <__pow5mult>
   43e8c:	1029883a 	mov	r20,r2
   43e90:	d9c00417 	ldw	r7,16(sp)
   43e94:	00800044 	movi	r2,1
   43e98:	11c0f00e 	bge	r2,r7,4425c <_dtoa_r+0xe4c>
   43e9c:	0023883a 	mov	r17,zero
   43ea0:	d8800b17 	ldw	r2,44(sp)
   43ea4:	1001741e 	bne	r2,zero,44478 <_dtoa_r+0x1068>
   43ea8:	00800044 	movi	r2,1
   43eac:	d8c00717 	ldw	r3,28(sp)
   43eb0:	10c5883a 	add	r2,r2,r3
   43eb4:	108007cc 	andi	r2,r2,31
   43eb8:	10008026 	beq	r2,zero,440bc <_dtoa_r+0xcac>
   43ebc:	01000804 	movi	r4,32
   43ec0:	2089c83a 	sub	r4,r4,r2
   43ec4:	00c00104 	movi	r3,4
   43ec8:	1902d00e 	bge	r3,r4,44a0c <_dtoa_r+0x15fc>
   43ecc:	d9000817 	ldw	r4,32(sp)
   43ed0:	d9c00717 	ldw	r7,28(sp)
   43ed4:	00c00704 	movi	r3,28
   43ed8:	1885c83a 	sub	r2,r3,r2
   43edc:	2089883a 	add	r4,r4,r2
   43ee0:	388f883a 	add	r7,r7,r2
   43ee4:	d9000815 	stw	r4,32(sp)
   43ee8:	90a5883a 	add	r18,r18,r2
   43eec:	d9c00715 	stw	r7,28(sp)
   43ef0:	d9c00817 	ldw	r7,32(sp)
   43ef4:	01c0050e 	bge	zero,r7,43f0c <_dtoa_r+0xafc>
   43ef8:	e00b883a 	mov	r5,fp
   43efc:	8009883a 	mov	r4,r16
   43f00:	380d883a 	mov	r6,r7
   43f04:	00470180 	call	47018 <__lshift>
   43f08:	1039883a 	mov	fp,r2
   43f0c:	d8800717 	ldw	r2,28(sp)
   43f10:	0080050e 	bge	zero,r2,43f28 <_dtoa_r+0xb18>
   43f14:	a00b883a 	mov	r5,r20
   43f18:	8009883a 	mov	r4,r16
   43f1c:	100d883a 	mov	r6,r2
   43f20:	00470180 	call	47018 <__lshift>
   43f24:	1029883a 	mov	r20,r2
   43f28:	d8c00d17 	ldw	r3,52(sp)
   43f2c:	1801401e 	bne	r3,zero,44430 <_dtoa_r+0x1020>
   43f30:	d8800917 	ldw	r2,36(sp)
   43f34:	00815a0e 	bge	zero,r2,444a0 <_dtoa_r+0x1090>
   43f38:	d8c00c17 	ldw	r3,48(sp)
   43f3c:	18006f1e 	bne	r3,zero,440fc <_dtoa_r+0xcec>
   43f40:	b823883a 	mov	r17,r23
   43f44:	dc800917 	ldw	r18,36(sp)
   43f48:	00000206 	br	43f54 <_dtoa_r+0xb44>
   43f4c:	00468f80 	call	468f8 <__multadd>
   43f50:	1039883a 	mov	fp,r2
   43f54:	e009883a 	mov	r4,fp
   43f58:	a00b883a 	mov	r5,r20
   43f5c:	00431d40 	call	431d4 <quorem>
   43f60:	10800c04 	addi	r2,r2,48
   43f64:	88800005 	stb	r2,0(r17)
   43f68:	8c400044 	addi	r17,r17,1
   43f6c:	8dc7c83a 	sub	r3,r17,r23
   43f70:	8009883a 	mov	r4,r16
   43f74:	e00b883a 	mov	r5,fp
   43f78:	01800284 	movi	r6,10
   43f7c:	000f883a 	mov	r7,zero
   43f80:	1cbff216 	blt	r3,r18,43f4c <_dtoa_r+0xb3c>
   43f84:	dd800917 	ldw	r22,36(sp)
   43f88:	1007883a 	mov	r3,r2
   43f8c:	05823a0e 	bge	zero,r22,44878 <_dtoa_r+0x1468>
   43f90:	bdad883a 	add	r22,r23,r22
   43f94:	0023883a 	mov	r17,zero
   43f98:	e00b883a 	mov	r5,fp
   43f9c:	01800044 	movi	r6,1
   43fa0:	8009883a 	mov	r4,r16
   43fa4:	d8c01515 	stw	r3,84(sp)
   43fa8:	00470180 	call	47018 <__lshift>
   43fac:	1009883a 	mov	r4,r2
   43fb0:	a00b883a 	mov	r5,r20
   43fb4:	1039883a 	mov	fp,r2
   43fb8:	00471740 	call	47174 <__mcmp>
   43fbc:	d8c01517 	ldw	r3,84(sp)
   43fc0:	0080d60e 	bge	zero,r2,4431c <_dtoa_r+0xf0c>
   43fc4:	b13fffc3 	ldbu	r4,-1(r22)
   43fc8:	b0ffff84 	addi	r3,r22,-2
   43fcc:	01800e44 	movi	r6,57
   43fd0:	00000306 	br	43fe0 <_dtoa_r+0xbd0>
   43fd4:	19000003 	ldbu	r4,0(r3)
   43fd8:	102d883a 	mov	r22,r2
   43fdc:	18ffffc4 	addi	r3,r3,-1
   43fe0:	21403fcc 	andi	r5,r4,255
   43fe4:	2940201c 	xori	r5,r5,128
   43fe8:	297fe004 	addi	r5,r5,-128
   43fec:	b0bfffc4 	addi	r2,r22,-1
   43ff0:	2981a71e 	bne	r5,r6,44690 <_dtoa_r+0x1280>
   43ff4:	b8bff71e 	bne	r23,r2,43fd4 <_dtoa_r+0xbc4>
   43ff8:	d8800617 	ldw	r2,24(sp)
   43ffc:	10800044 	addi	r2,r2,1
   44000:	d8800615 	stw	r2,24(sp)
   44004:	00800c44 	movi	r2,49
   44008:	b8800005 	stb	r2,0(r23)
   4400c:	8009883a 	mov	r4,r16
   44010:	a00b883a 	mov	r5,r20
   44014:	00468d00 	call	468d0 <_Bfree>
   44018:	a83e9e26 	beq	r21,zero,43a94 <_dtoa_r+0x684>
   4401c:	88000426 	beq	r17,zero,44030 <_dtoa_r+0xc20>
   44020:	8d400326 	beq	r17,r21,44030 <_dtoa_r+0xc20>
   44024:	8009883a 	mov	r4,r16
   44028:	880b883a 	mov	r5,r17
   4402c:	00468d00 	call	468d0 <_Bfree>
   44030:	8009883a 	mov	r4,r16
   44034:	a80b883a 	mov	r5,r21
   44038:	00468d00 	call	468d0 <_Bfree>
   4403c:	003e9506 	br	43a94 <_dtoa_r+0x684>
   44040:	00c00044 	movi	r3,1
   44044:	d8c00d15 	stw	r3,52(sp)
   44048:	003d9f06 	br	436c8 <_dtoa_r+0x2b8>
   4404c:	d9000817 	ldw	r4,32(sp)
   44050:	d8800617 	ldw	r2,24(sp)
   44054:	d8000b15 	stw	zero,44(sp)
   44058:	2089c83a 	sub	r4,r4,r2
   4405c:	0087c83a 	sub	r3,zero,r2
   44060:	d9000815 	stw	r4,32(sp)
   44064:	d8c00a15 	stw	r3,40(sp)
   44068:	003da306 	br	436f8 <_dtoa_r+0x2e8>
   4406c:	0529c83a 	sub	r20,zero,r20
   44070:	dd000815 	stw	r20,32(sp)
   44074:	d8000715 	stw	zero,28(sp)
   44078:	003d9806 	br	436dc <_dtoa_r+0x2cc>
   4407c:	d9000617 	ldw	r4,24(sp)
   44080:	0049ca40 	call	49ca4 <__floatsidf>
   44084:	1009883a 	mov	r4,r2
   44088:	180b883a 	mov	r5,r3
   4408c:	980d883a 	mov	r6,r19
   44090:	900f883a 	mov	r7,r18
   44094:	0049b240 	call	49b24 <__nedf2>
   44098:	103d7a26 	beq	r2,zero,43684 <_dtoa_r+0x274>
   4409c:	d8800617 	ldw	r2,24(sp)
   440a0:	10bfffc4 	addi	r2,r2,-1
   440a4:	d8800615 	stw	r2,24(sp)
   440a8:	003d7606 	br	43684 <_dtoa_r+0x274>
   440ac:	dcc00a17 	ldw	r19,40(sp)
   440b0:	dc800817 	ldw	r18,32(sp)
   440b4:	002b883a 	mov	r21,zero
   440b8:	003f4906 	br	43de0 <_dtoa_r+0x9d0>
   440bc:	00800704 	movi	r2,28
   440c0:	d8c00817 	ldw	r3,32(sp)
   440c4:	d9000717 	ldw	r4,28(sp)
   440c8:	90a5883a 	add	r18,r18,r2
   440cc:	1887883a 	add	r3,r3,r2
   440d0:	2089883a 	add	r4,r4,r2
   440d4:	d8c00815 	stw	r3,32(sp)
   440d8:	d9000715 	stw	r4,28(sp)
   440dc:	003f8406 	br	43ef0 <_dtoa_r+0xae0>
   440e0:	d9c00317 	ldw	r7,12(sp)
   440e4:	013efb84 	movi	r4,-1042
   440e8:	2509c83a 	sub	r4,r4,r20
   440ec:	3908983a 	sll	r4,r7,r4
   440f0:	003d3006 	br	435b4 <_dtoa_r+0x1a4>
   440f4:	d8000d15 	stw	zero,52(sp)
   440f8:	003d7306 	br	436c8 <_dtoa_r+0x2b8>
   440fc:	0480050e 	bge	zero,r18,44114 <_dtoa_r+0xd04>
   44100:	a80b883a 	mov	r5,r21
   44104:	8009883a 	mov	r4,r16
   44108:	900d883a 	mov	r6,r18
   4410c:	00470180 	call	47018 <__lshift>
   44110:	102b883a 	mov	r21,r2
   44114:	8801611e 	bne	r17,zero,4469c <_dtoa_r+0x128c>
   44118:	a827883a 	mov	r19,r21
   4411c:	d8c00317 	ldw	r3,12(sp)
   44120:	d9000917 	ldw	r4,36(sp)
   44124:	b8bfffc4 	addi	r2,r23,-1
   44128:	18c0004c 	andi	r3,r3,1
   4412c:	1105883a 	add	r2,r2,r4
   44130:	b825883a 	mov	r18,r23
   44134:	d8800515 	stw	r2,20(sp)
   44138:	a823883a 	mov	r17,r21
   4413c:	d8c00315 	stw	r3,12(sp)
   44140:	ddc00715 	stw	r23,28(sp)
   44144:	e009883a 	mov	r4,fp
   44148:	a00b883a 	mov	r5,r20
   4414c:	00431d40 	call	431d4 <quorem>
   44150:	e009883a 	mov	r4,fp
   44154:	880b883a 	mov	r5,r17
   44158:	102d883a 	mov	r22,r2
   4415c:	00471740 	call	47174 <__mcmp>
   44160:	980d883a 	mov	r6,r19
   44164:	8009883a 	mov	r4,r16
   44168:	a00b883a 	mov	r5,r20
   4416c:	102b883a 	mov	r21,r2
   44170:	00471cc0 	call	471cc <__mdiff>
   44174:	100d883a 	mov	r6,r2
   44178:	10800317 	ldw	r2,12(r2)
   4417c:	b5c00c04 	addi	r23,r22,48
   44180:	10008c26 	beq	r2,zero,443b4 <_dtoa_r+0xfa4>
   44184:	8009883a 	mov	r4,r16
   44188:	300b883a 	mov	r5,r6
   4418c:	00468d00 	call	468d0 <_Bfree>
   44190:	00800044 	movi	r2,1
   44194:	a8007116 	blt	r21,zero,4435c <_dtoa_r+0xf4c>
   44198:	a800041e 	bne	r21,zero,441ac <_dtoa_r+0xd9c>
   4419c:	d9c00417 	ldw	r7,16(sp)
   441a0:	3800021e 	bne	r7,zero,441ac <_dtoa_r+0xd9c>
   441a4:	d8c00317 	ldw	r3,12(sp)
   441a8:	18006c26 	beq	r3,zero,4435c <_dtoa_r+0xf4c>
   441ac:	00814c16 	blt	zero,r2,446e0 <_dtoa_r+0x12d0>
   441b0:	d8c00517 	ldw	r3,20(sp)
   441b4:	95400044 	addi	r21,r18,1
   441b8:	95c00005 	stb	r23,0(r18)
   441bc:	a82d883a 	mov	r22,r21
   441c0:	90c14d26 	beq	r18,r3,446f8 <_dtoa_r+0x12e8>
   441c4:	e00b883a 	mov	r5,fp
   441c8:	8009883a 	mov	r4,r16
   441cc:	01800284 	movi	r6,10
   441d0:	000f883a 	mov	r7,zero
   441d4:	00468f80 	call	468f8 <__multadd>
   441d8:	1039883a 	mov	fp,r2
   441dc:	8cc08b26 	beq	r17,r19,4440c <_dtoa_r+0xffc>
   441e0:	880b883a 	mov	r5,r17
   441e4:	01800284 	movi	r6,10
   441e8:	000f883a 	mov	r7,zero
   441ec:	8009883a 	mov	r4,r16
   441f0:	00468f80 	call	468f8 <__multadd>
   441f4:	980b883a 	mov	r5,r19
   441f8:	8009883a 	mov	r4,r16
   441fc:	01800284 	movi	r6,10
   44200:	000f883a 	mov	r7,zero
   44204:	1023883a 	mov	r17,r2
   44208:	00468f80 	call	468f8 <__multadd>
   4420c:	1027883a 	mov	r19,r2
   44210:	a825883a 	mov	r18,r21
   44214:	003fcb06 	br	44144 <_dtoa_r+0xd34>
   44218:	d9c00417 	ldw	r7,16(sp)
   4421c:	00800104 	movi	r2,4
   44220:	3880e426 	beq	r7,r2,445b4 <_dtoa_r+0x11a4>
   44224:	00800144 	movi	r2,5
   44228:	38be3c1e 	bne	r7,r2,43b1c <_dtoa_r+0x70c>
   4422c:	00c00044 	movi	r3,1
   44230:	d8c00c15 	stw	r3,48(sp)
   44234:	d9c02117 	ldw	r7,132(sp)
   44238:	d8800617 	ldw	r2,24(sp)
   4423c:	388f883a 	add	r7,r7,r2
   44240:	3c800044 	addi	r18,r7,1
   44244:	d9c00e15 	stw	r7,56(sp)
   44248:	dc800915 	stw	r18,36(sp)
   4424c:	04bd3e16 	blt	zero,r18,43748 <_dtoa_r+0x338>
   44250:	80001115 	stw	zero,68(r16)
   44254:	000b883a 	mov	r5,zero
   44258:	003d4606 	br	43774 <_dtoa_r+0x364>
   4425c:	d8c00317 	ldw	r3,12(sp)
   44260:	183f0e1e 	bne	r3,zero,43e9c <_dtoa_r+0xa8c>
   44264:	00c00434 	movhi	r3,16
   44268:	18ffffc4 	addi	r3,r3,-1
   4426c:	88c6703a 	and	r3,r17,r3
   44270:	183f0a1e 	bne	r3,zero,43e9c <_dtoa_r+0xa8c>
   44274:	8c5ffc2c 	andhi	r17,r17,32752
   44278:	883f0826 	beq	r17,zero,43e9c <_dtoa_r+0xa8c>
   4427c:	d9000817 	ldw	r4,32(sp)
   44280:	d9c00717 	ldw	r7,28(sp)
   44284:	1023883a 	mov	r17,r2
   44288:	2089883a 	add	r4,r4,r2
   4428c:	388f883a 	add	r7,r7,r2
   44290:	d9000815 	stw	r4,32(sp)
   44294:	d9c00715 	stw	r7,28(sp)
   44298:	003f0106 	br	43ea0 <_dtoa_r+0xa90>
   4429c:	9005883a 	mov	r2,r18
   442a0:	003ed306 	br	43df0 <_dtoa_r+0x9e0>
   442a4:	d8800917 	ldw	r2,36(sp)
   442a8:	00be3516 	blt	zero,r2,43b80 <_dtoa_r+0x770>
   442ac:	1000b61e 	bne	r2,zero,44588 <_dtoa_r+0x1178>
   442b0:	9009883a 	mov	r4,r18
   442b4:	980b883a 	mov	r5,r19
   442b8:	000d883a 	mov	r6,zero
   442bc:	01d00534 	movhi	r7,16404
   442c0:	00496300 	call	49630 <__muldf3>
   442c4:	d9800317 	ldw	r6,12(sp)
   442c8:	1009883a 	mov	r4,r2
   442cc:	180b883a 	mov	r5,r3
   442d0:	880f883a 	mov	r7,r17
   442d4:	0049be40 	call	49be4 <__gedf2>
   442d8:	0029883a 	mov	r20,zero
   442dc:	002b883a 	mov	r21,zero
   442e0:	10007e16 	blt	r2,zero,444dc <_dtoa_r+0x10cc>
   442e4:	d8802117 	ldw	r2,132(sp)
   442e8:	b82d883a 	mov	r22,r23
   442ec:	0084303a 	nor	r2,zero,r2
   442f0:	d8800615 	stw	r2,24(sp)
   442f4:	8009883a 	mov	r4,r16
   442f8:	a00b883a 	mov	r5,r20
   442fc:	00468d00 	call	468d0 <_Bfree>
   44300:	a83f4b1e 	bne	r21,zero,44030 <_dtoa_r+0xc20>
   44304:	003de306 	br	43a94 <_dtoa_r+0x684>
   44308:	e00b883a 	mov	r5,fp
   4430c:	8009883a 	mov	r4,r16
   44310:	0046eec0 	call	46eec <__pow5mult>
   44314:	1039883a 	mov	fp,r2
   44318:	003ed206 	br	43e64 <_dtoa_r+0xa54>
   4431c:	1000021e 	bne	r2,zero,44328 <_dtoa_r+0xf18>
   44320:	18c0004c 	andi	r3,r3,1
   44324:	183f271e 	bne	r3,zero,43fc4 <_dtoa_r+0xbb4>
   44328:	01000c04 	movi	r4,48
   4432c:	00000106 	br	44334 <_dtoa_r+0xf24>
   44330:	102d883a 	mov	r22,r2
   44334:	b0bfffc4 	addi	r2,r22,-1
   44338:	10c00007 	ldb	r3,0(r2)
   4433c:	193ffc26 	beq	r3,r4,44330 <_dtoa_r+0xf20>
   44340:	003f3206 	br	4400c <_dtoa_r+0xbfc>
   44344:	d8c00f17 	ldw	r3,60(sp)
   44348:	18015026 	beq	r3,zero,4488c <_dtoa_r+0x147c>
   4434c:	10810cc4 	addi	r2,r2,1075
   44350:	dcc00a17 	ldw	r19,40(sp)
   44354:	dc800817 	ldw	r18,32(sp)
   44358:	003e9706 	br	43db8 <_dtoa_r+0x9a8>
   4435c:	b807883a 	mov	r3,r23
   44360:	182b883a 	mov	r21,r3
   44364:	ddc00717 	ldw	r23,28(sp)
   44368:	00800e0e 	bge	zero,r2,443a4 <_dtoa_r+0xf94>
   4436c:	e00b883a 	mov	r5,fp
   44370:	01800044 	movi	r6,1
   44374:	8009883a 	mov	r4,r16
   44378:	d8c01515 	stw	r3,84(sp)
   4437c:	00470180 	call	47018 <__lshift>
   44380:	1009883a 	mov	r4,r2
   44384:	a00b883a 	mov	r5,r20
   44388:	1039883a 	mov	fp,r2
   4438c:	00471740 	call	47174 <__mcmp>
   44390:	d8c01517 	ldw	r3,84(sp)
   44394:	0081880e 	bge	zero,r2,449b8 <_dtoa_r+0x15a8>
   44398:	00800e44 	movi	r2,57
   4439c:	b0c00c44 	addi	r3,r22,49
   443a0:	a8816326 	beq	r21,r2,44930 <_dtoa_r+0x1520>
   443a4:	90c00005 	stb	r3,0(r18)
   443a8:	95800044 	addi	r22,r18,1
   443ac:	982b883a 	mov	r21,r19
   443b0:	003f1606 	br	4400c <_dtoa_r+0xbfc>
   443b4:	300b883a 	mov	r5,r6
   443b8:	e009883a 	mov	r4,fp
   443bc:	d9801515 	stw	r6,84(sp)
   443c0:	00471740 	call	47174 <__mcmp>
   443c4:	d9801517 	ldw	r6,84(sp)
   443c8:	8009883a 	mov	r4,r16
   443cc:	d8801515 	stw	r2,84(sp)
   443d0:	300b883a 	mov	r5,r6
   443d4:	00468d00 	call	468d0 <_Bfree>
   443d8:	d8801517 	ldw	r2,84(sp)
   443dc:	103f6d1e 	bne	r2,zero,44194 <_dtoa_r+0xd84>
   443e0:	d9c00417 	ldw	r7,16(sp)
   443e4:	383f6b1e 	bne	r7,zero,44194 <_dtoa_r+0xd84>
   443e8:	d8c00317 	ldw	r3,12(sp)
   443ec:	183f691e 	bne	r3,zero,44194 <_dtoa_r+0xd84>
   443f0:	b807883a 	mov	r3,r23
   443f4:	00800e44 	movi	r2,57
   443f8:	ddc00717 	ldw	r23,28(sp)
   443fc:	18814c26 	beq	r3,r2,44930 <_dtoa_r+0x1520>
   44400:	057fe80e 	bge	zero,r21,443a4 <_dtoa_r+0xf94>
   44404:	b0c00c44 	addi	r3,r22,49
   44408:	003fe606 	br	443a4 <_dtoa_r+0xf94>
   4440c:	880b883a 	mov	r5,r17
   44410:	8009883a 	mov	r4,r16
   44414:	01800284 	movi	r6,10
   44418:	000f883a 	mov	r7,zero
   4441c:	00468f80 	call	468f8 <__multadd>
   44420:	1023883a 	mov	r17,r2
   44424:	1027883a 	mov	r19,r2
   44428:	a825883a 	mov	r18,r21
   4442c:	003f4506 	br	44144 <_dtoa_r+0xd34>
   44430:	e009883a 	mov	r4,fp
   44434:	a00b883a 	mov	r5,r20
   44438:	00471740 	call	47174 <__mcmp>
   4443c:	103ebc0e 	bge	r2,zero,43f30 <_dtoa_r+0xb20>
   44440:	e00b883a 	mov	r5,fp
   44444:	8009883a 	mov	r4,r16
   44448:	01800284 	movi	r6,10
   4444c:	000f883a 	mov	r7,zero
   44450:	00468f80 	call	468f8 <__multadd>
   44454:	1039883a 	mov	fp,r2
   44458:	d8800617 	ldw	r2,24(sp)
   4445c:	d8c00c17 	ldw	r3,48(sp)
   44460:	10bfffc4 	addi	r2,r2,-1
   44464:	d8800615 	stw	r2,24(sp)
   44468:	1801571e 	bne	r3,zero,449c8 <_dtoa_r+0x15b8>
   4446c:	d9c00e17 	ldw	r7,56(sp)
   44470:	d9c00915 	stw	r7,36(sp)
   44474:	003eae06 	br	43f30 <_dtoa_r+0xb20>
   44478:	a0800417 	ldw	r2,16(r20)
   4447c:	10800104 	addi	r2,r2,4
   44480:	1085883a 	add	r2,r2,r2
   44484:	1085883a 	add	r2,r2,r2
   44488:	a085883a 	add	r2,r20,r2
   4448c:	11000017 	ldw	r4,0(r2)
   44490:	0046b400 	call	46b40 <__hi0bits>
   44494:	00c00804 	movi	r3,32
   44498:	1885c83a 	sub	r2,r3,r2
   4449c:	003e8306 	br	43eac <_dtoa_r+0xa9c>
   444a0:	d9c00417 	ldw	r7,16(sp)
   444a4:	00800084 	movi	r2,2
   444a8:	11fea30e 	bge	r2,r7,43f38 <_dtoa_r+0xb28>
   444ac:	d8800917 	ldw	r2,36(sp)
   444b0:	103f8c1e 	bne	r2,zero,442e4 <_dtoa_r+0xed4>
   444b4:	a00b883a 	mov	r5,r20
   444b8:	8009883a 	mov	r4,r16
   444bc:	01800144 	movi	r6,5
   444c0:	000f883a 	mov	r7,zero
   444c4:	00468f80 	call	468f8 <__multadd>
   444c8:	e009883a 	mov	r4,fp
   444cc:	100b883a 	mov	r5,r2
   444d0:	1029883a 	mov	r20,r2
   444d4:	00471740 	call	47174 <__mcmp>
   444d8:	00bf820e 	bge	zero,r2,442e4 <_dtoa_r+0xed4>
   444dc:	00800c44 	movi	r2,49
   444e0:	b8800005 	stb	r2,0(r23)
   444e4:	d8800617 	ldw	r2,24(sp)
   444e8:	bd800044 	addi	r22,r23,1
   444ec:	10800044 	addi	r2,r2,1
   444f0:	d8800615 	stw	r2,24(sp)
   444f4:	003f7f06 	br	442f4 <_dtoa_r+0xee4>
   444f8:	dc000417 	ldw	r16,16(sp)
   444fc:	003d6506 	br	43a94 <_dtoa_r+0x684>
   44500:	9009883a 	mov	r4,r18
   44504:	0049ca40 	call	49ca4 <__floatsidf>
   44508:	1009883a 	mov	r4,r2
   4450c:	180b883a 	mov	r5,r3
   44510:	980d883a 	mov	r6,r19
   44514:	a00f883a 	mov	r7,r20
   44518:	00496300 	call	49630 <__muldf3>
   4451c:	1009883a 	mov	r4,r2
   44520:	180b883a 	mov	r5,r3
   44524:	000d883a 	mov	r6,zero
   44528:	01d00734 	movhi	r7,16412
   4452c:	004957c0 	call	4957c <__adddf3>
   44530:	057f3034 	movhi	r21,64704
   44534:	1025883a 	mov	r18,r2
   44538:	1d6b883a 	add	r21,r3,r21
   4453c:	9809883a 	mov	r4,r19
   44540:	a00b883a 	mov	r5,r20
   44544:	000d883a 	mov	r6,zero
   44548:	01d00534 	movhi	r7,16404
   4454c:	00495d00 	call	495d0 <__subdf3>
   44550:	1009883a 	mov	r4,r2
   44554:	180b883a 	mov	r5,r3
   44558:	900d883a 	mov	r6,r18
   4455c:	a80f883a 	mov	r7,r21
   44560:	1027883a 	mov	r19,r2
   44564:	1829883a 	mov	r20,r3
   44568:	0049b800 	call	49b80 <__gtdf2>
   4456c:	00806616 	blt	zero,r2,44708 <_dtoa_r+0x12f8>
   44570:	a9e0003c 	xorhi	r7,r21,32768
   44574:	9809883a 	mov	r4,r19
   44578:	a00b883a 	mov	r5,r20
   4457c:	900d883a 	mov	r6,r18
   44580:	0049c480 	call	49c48 <__ltdf2>
   44584:	103d710e 	bge	r2,zero,43b4c <_dtoa_r+0x73c>
   44588:	0029883a 	mov	r20,zero
   4458c:	002b883a 	mov	r21,zero
   44590:	003f5406 	br	442e4 <_dtoa_r+0xed4>
   44594:	d9800a17 	ldw	r6,40(sp)
   44598:	e00b883a 	mov	r5,fp
   4459c:	8009883a 	mov	r4,r16
   445a0:	0046eec0 	call	46eec <__pow5mult>
   445a4:	1039883a 	mov	fp,r2
   445a8:	003e2e06 	br	43e64 <_dtoa_r+0xa54>
   445ac:	d8000c15 	stw	zero,48(sp)
   445b0:	003f2006 	br	44234 <_dtoa_r+0xe24>
   445b4:	00800044 	movi	r2,1
   445b8:	d8800c15 	stw	r2,48(sp)
   445bc:	003c5d06 	br	43734 <_dtoa_r+0x324>
   445c0:	d8c00a17 	ldw	r3,40(sp)
   445c4:	d9000b17 	ldw	r4,44(sp)
   445c8:	dcc00a15 	stw	r19,40(sp)
   445cc:	98c5c83a 	sub	r2,r19,r3
   445d0:	2089883a 	add	r4,r4,r2
   445d4:	d9000b15 	stw	r4,44(sp)
   445d8:	0027883a 	mov	r19,zero
   445dc:	003df206 	br	43da8 <_dtoa_r+0x998>
   445e0:	d9000317 	ldw	r4,12(sp)
   445e4:	8829883a 	mov	r20,r17
   445e8:	04800084 	movi	r18,2
   445ec:	d9001015 	stw	r4,64(sp)
   445f0:	003c8106 	br	437f8 <_dtoa_r+0x3e8>
   445f4:	04800044 	movi	r18,1
   445f8:	dc800e15 	stw	r18,56(sp)
   445fc:	dc800915 	stw	r18,36(sp)
   44600:	dc802115 	stw	r18,132(sp)
   44604:	003f1206 	br	44250 <_dtoa_r+0xe40>
   44608:	d8800617 	ldw	r2,24(sp)
   4460c:	00abc83a 	sub	r21,zero,r2
   44610:	a800a426 	beq	r21,zero,448a4 <_dtoa_r+0x1494>
   44614:	a88003cc 	andi	r2,r21,15
   44618:	100490fa 	slli	r2,r2,3
   4461c:	00c00174 	movhi	r3,5
   44620:	18f53504 	addi	r3,r3,-11052
   44624:	d9000317 	ldw	r4,12(sp)
   44628:	1885883a 	add	r2,r3,r2
   4462c:	11800017 	ldw	r6,0(r2)
   44630:	11c00117 	ldw	r7,4(r2)
   44634:	a82bd13a 	srai	r21,r21,4
   44638:	880b883a 	mov	r5,r17
   4463c:	00496300 	call	49630 <__muldf3>
   44640:	1027883a 	mov	r19,r2
   44644:	1829883a 	mov	r20,r3
   44648:	a800e826 	beq	r21,zero,449ec <_dtoa_r+0x15dc>
   4464c:	05800174 	movhi	r22,5
   44650:	b5b52b04 	addi	r22,r22,-11092
   44654:	04800084 	movi	r18,2
   44658:	a980004c 	andi	r6,r21,1
   4465c:	1009883a 	mov	r4,r2
   44660:	a82bd07a 	srai	r21,r21,1
   44664:	180b883a 	mov	r5,r3
   44668:	30000426 	beq	r6,zero,4467c <_dtoa_r+0x126c>
   4466c:	b1800017 	ldw	r6,0(r22)
   44670:	b1c00117 	ldw	r7,4(r22)
   44674:	94800044 	addi	r18,r18,1
   44678:	00496300 	call	49630 <__muldf3>
   4467c:	b5800204 	addi	r22,r22,8
   44680:	a83ff51e 	bne	r21,zero,44658 <_dtoa_r+0x1248>
   44684:	1027883a 	mov	r19,r2
   44688:	1829883a 	mov	r20,r3
   4468c:	003c7306 	br	4385c <_dtoa_r+0x44c>
   44690:	21000044 	addi	r4,r4,1
   44694:	11000005 	stb	r4,0(r2)
   44698:	003e5c06 	br	4400c <_dtoa_r+0xbfc>
   4469c:	a9400117 	ldw	r5,4(r21)
   446a0:	8009883a 	mov	r4,r16
   446a4:	00468280 	call	46828 <_Balloc>
   446a8:	a9800417 	ldw	r6,16(r21)
   446ac:	11000304 	addi	r4,r2,12
   446b0:	a9400304 	addi	r5,r21,12
   446b4:	31800084 	addi	r6,r6,2
   446b8:	318d883a 	add	r6,r6,r6
   446bc:	318d883a 	add	r6,r6,r6
   446c0:	1023883a 	mov	r17,r2
   446c4:	00464800 	call	46480 <memcpy>
   446c8:	8009883a 	mov	r4,r16
   446cc:	880b883a 	mov	r5,r17
   446d0:	01800044 	movi	r6,1
   446d4:	00470180 	call	47018 <__lshift>
   446d8:	1027883a 	mov	r19,r2
   446dc:	003e8f06 	br	4411c <_dtoa_r+0xd0c>
   446e0:	b807883a 	mov	r3,r23
   446e4:	00800e44 	movi	r2,57
   446e8:	ddc00717 	ldw	r23,28(sp)
   446ec:	18809026 	beq	r3,r2,44930 <_dtoa_r+0x1520>
   446f0:	18c00044 	addi	r3,r3,1
   446f4:	003f2b06 	br	443a4 <_dtoa_r+0xf94>
   446f8:	b807883a 	mov	r3,r23
   446fc:	982b883a 	mov	r21,r19
   44700:	ddc00717 	ldw	r23,28(sp)
   44704:	003e2406 	br	43f98 <_dtoa_r+0xb88>
   44708:	0029883a 	mov	r20,zero
   4470c:	002b883a 	mov	r21,zero
   44710:	003f7206 	br	444dc <_dtoa_r+0x10cc>
   44714:	593fffc4 	addi	r4,r11,-1
   44718:	200490fa 	slli	r2,r4,3
   4471c:	00c00174 	movhi	r3,5
   44720:	18f53504 	addi	r3,r3,-11052
   44724:	d9001015 	stw	r4,64(sp)
   44728:	1885883a 	add	r2,r3,r2
   4472c:	11000017 	ldw	r4,0(r2)
   44730:	11400117 	ldw	r5,4(r2)
   44734:	900d883a 	mov	r6,r18
   44738:	a80f883a 	mov	r7,r21
   4473c:	dac01615 	stw	r11,88(sp)
   44740:	00496300 	call	49630 <__muldf3>
   44744:	a00b883a 	mov	r5,r20
   44748:	9809883a 	mov	r4,r19
   4474c:	d8c01215 	stw	r3,72(sp)
   44750:	d8801115 	stw	r2,68(sp)
   44754:	0049d780 	call	49d78 <__fixdfsi>
   44758:	1009883a 	mov	r4,r2
   4475c:	1025883a 	mov	r18,r2
   44760:	0049ca40 	call	49ca4 <__floatsidf>
   44764:	9809883a 	mov	r4,r19
   44768:	a00b883a 	mov	r5,r20
   4476c:	100d883a 	mov	r6,r2
   44770:	180f883a 	mov	r7,r3
   44774:	94800c04 	addi	r18,r18,48
   44778:	00495d00 	call	495d0 <__subdf3>
   4477c:	bc800005 	stb	r18,0(r23)
   44780:	dac01617 	ldw	r11,88(sp)
   44784:	102b883a 	mov	r21,r2
   44788:	00800044 	movi	r2,1
   4478c:	bd800044 	addi	r22,r23,1
   44790:	1815883a 	mov	r10,r3
   44794:	58802226 	beq	r11,r2,44820 <_dtoa_r+0x1410>
   44798:	bad7883a 	add	r11,r23,r11
   4479c:	dc001415 	stw	r16,80(sp)
   447a0:	a805883a 	mov	r2,r21
   447a4:	b027883a 	mov	r19,r22
   447a8:	5821883a 	mov	r16,r11
   447ac:	882b883a 	mov	r21,r17
   447b0:	000d883a 	mov	r6,zero
   447b4:	01d00934 	movhi	r7,16420
   447b8:	1009883a 	mov	r4,r2
   447bc:	180b883a 	mov	r5,r3
   447c0:	00496300 	call	49630 <__muldf3>
   447c4:	180b883a 	mov	r5,r3
   447c8:	1009883a 	mov	r4,r2
   447cc:	1829883a 	mov	r20,r3
   447d0:	1023883a 	mov	r17,r2
   447d4:	0049d780 	call	49d78 <__fixdfsi>
   447d8:	1009883a 	mov	r4,r2
   447dc:	1025883a 	mov	r18,r2
   447e0:	0049ca40 	call	49ca4 <__floatsidf>
   447e4:	8809883a 	mov	r4,r17
   447e8:	a00b883a 	mov	r5,r20
   447ec:	100d883a 	mov	r6,r2
   447f0:	180f883a 	mov	r7,r3
   447f4:	94800c04 	addi	r18,r18,48
   447f8:	00495d00 	call	495d0 <__subdf3>
   447fc:	9cc00044 	addi	r19,r19,1
   44800:	9cbfffc5 	stb	r18,-1(r19)
   44804:	9c3fea1e 	bne	r19,r16,447b0 <_dtoa_r+0x13a0>
   44808:	1815883a 	mov	r10,r3
   4480c:	d8c01017 	ldw	r3,64(sp)
   44810:	dc001417 	ldw	r16,80(sp)
   44814:	a823883a 	mov	r17,r21
   44818:	b0ed883a 	add	r22,r22,r3
   4481c:	102b883a 	mov	r21,r2
   44820:	d9001117 	ldw	r4,68(sp)
   44824:	d9401217 	ldw	r5,72(sp)
   44828:	000d883a 	mov	r6,zero
   4482c:	01cff834 	movhi	r7,16352
   44830:	da801515 	stw	r10,84(sp)
   44834:	004957c0 	call	4957c <__adddf3>
   44838:	da801517 	ldw	r10,84(sp)
   4483c:	1009883a 	mov	r4,r2
   44840:	180b883a 	mov	r5,r3
   44844:	500f883a 	mov	r7,r10
   44848:	a80d883a 	mov	r6,r21
   4484c:	0049c480 	call	49c48 <__ltdf2>
   44850:	da801517 	ldw	r10,84(sp)
   44854:	10003b0e 	bge	r2,zero,44944 <_dtoa_r+0x1534>
   44858:	d9c01317 	ldw	r7,76(sp)
   4485c:	b53fffc3 	ldbu	r20,-1(r22)
   44860:	d9c00615 	stw	r7,24(sp)
   44864:	003d3106 	br	43d2c <_dtoa_r+0x91c>
   44868:	d8800817 	ldw	r2,32(sp)
   4486c:	11e5c83a 	sub	r18,r2,r7
   44870:	0005883a 	mov	r2,zero
   44874:	003d5006 	br	43db8 <_dtoa_r+0x9a8>
   44878:	05800044 	movi	r22,1
   4487c:	003dc406 	br	43f90 <_dtoa_r+0xb80>
   44880:	a5000044 	addi	r20,r20,1
   44884:	15000005 	stb	r20,0(r2)
   44888:	003c8206 	br	43a94 <_dtoa_r+0x684>
   4488c:	d8800217 	ldw	r2,8(sp)
   44890:	00c00d84 	movi	r3,54
   44894:	dcc00a17 	ldw	r19,40(sp)
   44898:	1885c83a 	sub	r2,r3,r2
   4489c:	dc800817 	ldw	r18,32(sp)
   448a0:	003d4506 	br	43db8 <_dtoa_r+0x9a8>
   448a4:	dcc00317 	ldw	r19,12(sp)
   448a8:	8829883a 	mov	r20,r17
   448ac:	04800084 	movi	r18,2
   448b0:	003bea06 	br	4385c <_dtoa_r+0x44c>
   448b4:	d9000917 	ldw	r4,36(sp)
   448b8:	203f1126 	beq	r4,zero,44500 <_dtoa_r+0x10f0>
   448bc:	d9c00e17 	ldw	r7,56(sp)
   448c0:	01fca20e 	bge	zero,r7,43b4c <_dtoa_r+0x73c>
   448c4:	a00b883a 	mov	r5,r20
   448c8:	9809883a 	mov	r4,r19
   448cc:	000d883a 	mov	r6,zero
   448d0:	01d00934 	movhi	r7,16420
   448d4:	00496300 	call	49630 <__muldf3>
   448d8:	91000044 	addi	r4,r18,1
   448dc:	1027883a 	mov	r19,r2
   448e0:	1829883a 	mov	r20,r3
   448e4:	0049ca40 	call	49ca4 <__floatsidf>
   448e8:	9809883a 	mov	r4,r19
   448ec:	a00b883a 	mov	r5,r20
   448f0:	100d883a 	mov	r6,r2
   448f4:	180f883a 	mov	r7,r3
   448f8:	00496300 	call	49630 <__muldf3>
   448fc:	1009883a 	mov	r4,r2
   44900:	180b883a 	mov	r5,r3
   44904:	000d883a 	mov	r6,zero
   44908:	01d00734 	movhi	r7,16412
   4490c:	004957c0 	call	4957c <__adddf3>
   44910:	1025883a 	mov	r18,r2
   44914:	d8800617 	ldw	r2,24(sp)
   44918:	057f3034 	movhi	r21,64704
   4491c:	1d6b883a 	add	r21,r3,r21
   44920:	10bfffc4 	addi	r2,r2,-1
   44924:	d8801315 	stw	r2,76(sp)
   44928:	dac00e17 	ldw	r11,56(sp)
   4492c:	003be706 	br	438cc <_dtoa_r+0x4bc>
   44930:	01000e44 	movi	r4,57
   44934:	91000005 	stb	r4,0(r18)
   44938:	95800044 	addi	r22,r18,1
   4493c:	982b883a 	mov	r21,r19
   44940:	003da106 	br	43fc8 <_dtoa_r+0xbb8>
   44944:	d9801117 	ldw	r6,68(sp)
   44948:	d9c01217 	ldw	r7,72(sp)
   4494c:	0009883a 	mov	r4,zero
   44950:	014ff834 	movhi	r5,16352
   44954:	da801515 	stw	r10,84(sp)
   44958:	00495d00 	call	495d0 <__subdf3>
   4495c:	da801517 	ldw	r10,84(sp)
   44960:	1009883a 	mov	r4,r2
   44964:	180b883a 	mov	r5,r3
   44968:	a80d883a 	mov	r6,r21
   4496c:	500f883a 	mov	r7,r10
   44970:	0049b800 	call	49b80 <__gtdf2>
   44974:	00bc750e 	bge	zero,r2,43b4c <_dtoa_r+0x73c>
   44978:	01000c04 	movi	r4,48
   4497c:	00000106 	br	44984 <_dtoa_r+0x1574>
   44980:	102d883a 	mov	r22,r2
   44984:	b0bfffc4 	addi	r2,r22,-1
   44988:	10c00007 	ldb	r3,0(r2)
   4498c:	193ffc26 	beq	r3,r4,44980 <_dtoa_r+0x1570>
   44990:	d8801317 	ldw	r2,76(sp)
   44994:	d8800615 	stw	r2,24(sp)
   44998:	003c3e06 	br	43a94 <_dtoa_r+0x684>
   4499c:	d9001317 	ldw	r4,76(sp)
   449a0:	df001117 	ldw	fp,68(sp)
   449a4:	d9000615 	stw	r4,24(sp)
   449a8:	003ce006 	br	43d2c <_dtoa_r+0x91c>
   449ac:	df001117 	ldw	fp,68(sp)
   449b0:	dc401217 	ldw	r17,72(sp)
   449b4:	003c6506 	br	43b4c <_dtoa_r+0x73c>
   449b8:	103e7a1e 	bne	r2,zero,443a4 <_dtoa_r+0xf94>
   449bc:	1880004c 	andi	r2,r3,1
   449c0:	103e7826 	beq	r2,zero,443a4 <_dtoa_r+0xf94>
   449c4:	003e7406 	br	44398 <_dtoa_r+0xf88>
   449c8:	8009883a 	mov	r4,r16
   449cc:	a80b883a 	mov	r5,r21
   449d0:	01800284 	movi	r6,10
   449d4:	000f883a 	mov	r7,zero
   449d8:	00468f80 	call	468f8 <__multadd>
   449dc:	d9000e17 	ldw	r4,56(sp)
   449e0:	102b883a 	mov	r21,r2
   449e4:	d9000915 	stw	r4,36(sp)
   449e8:	003d5106 	br	43f30 <_dtoa_r+0xb20>
   449ec:	04800084 	movi	r18,2
   449f0:	003b9a06 	br	4385c <_dtoa_r+0x44c>
   449f4:	d8c01317 	ldw	r3,76(sp)
   449f8:	d8c00615 	stw	r3,24(sp)
   449fc:	003ccb06 	br	43d2c <_dtoa_r+0x91c>
   44a00:	d8c01317 	ldw	r3,76(sp)
   44a04:	d8c00615 	stw	r3,24(sp)
   44a08:	003c2206 	br	43a94 <_dtoa_r+0x684>
   44a0c:	20fd3826 	beq	r4,r3,43ef0 <_dtoa_r+0xae0>
   44a10:	00c00f04 	movi	r3,60
   44a14:	1885c83a 	sub	r2,r3,r2
   44a18:	003da906 	br	440c0 <_dtoa_r+0xcb0>
   44a1c:	000b883a 	mov	r5,zero
   44a20:	003b5406 	br	43774 <_dtoa_r+0x364>
   44a24:	04c00044 	movi	r19,1
   44a28:	003b3b06 	br	43718 <_dtoa_r+0x308>

00044a2c <_fflush_r>:
   44a2c:	defffb04 	addi	sp,sp,-20
   44a30:	dcc00315 	stw	r19,12(sp)
   44a34:	dc400115 	stw	r17,4(sp)
   44a38:	dfc00415 	stw	ra,16(sp)
   44a3c:	dc800215 	stw	r18,8(sp)
   44a40:	dc000015 	stw	r16,0(sp)
   44a44:	2027883a 	mov	r19,r4
   44a48:	2823883a 	mov	r17,r5
   44a4c:	20000226 	beq	r4,zero,44a58 <_fflush_r+0x2c>
   44a50:	20800e17 	ldw	r2,56(r4)
   44a54:	10005726 	beq	r2,zero,44bb4 <_fflush_r+0x188>
   44a58:	8880030b 	ldhu	r2,12(r17)
   44a5c:	10c0020c 	andi	r3,r2,8
   44a60:	18ffffcc 	andi	r3,r3,65535
   44a64:	18e0001c 	xori	r3,r3,32768
   44a68:	18e00004 	addi	r3,r3,-32768
   44a6c:	1800311e 	bne	r3,zero,44b34 <_fflush_r+0x108>
   44a70:	89000117 	ldw	r4,4(r17)
   44a74:	10c20014 	ori	r3,r2,2048
   44a78:	88c0030d 	sth	r3,12(r17)
   44a7c:	180b883a 	mov	r5,r3
   44a80:	0100520e 	bge	zero,r4,44bcc <_fflush_r+0x1a0>
   44a84:	88c00a17 	ldw	r3,40(r17)
   44a88:	18002226 	beq	r3,zero,44b14 <_fflush_r+0xe8>
   44a8c:	1084000c 	andi	r2,r2,4096
   44a90:	10bfffcc 	andi	r2,r2,65535
   44a94:	10a0001c 	xori	r2,r2,32768
   44a98:	10a00004 	addi	r2,r2,-32768
   44a9c:	10004e26 	beq	r2,zero,44bd8 <_fflush_r+0x1ac>
   44aa0:	8c001417 	ldw	r16,80(r17)
   44aa4:	2940010c 	andi	r5,r5,4
   44aa8:	297fffcc 	andi	r5,r5,65535
   44aac:	2960001c 	xori	r5,r5,32768
   44ab0:	29600004 	addi	r5,r5,-32768
   44ab4:	28000626 	beq	r5,zero,44ad0 <_fflush_r+0xa4>
   44ab8:	89000117 	ldw	r4,4(r17)
   44abc:	88800c17 	ldw	r2,48(r17)
   44ac0:	8121c83a 	sub	r16,r16,r4
   44ac4:	10000226 	beq	r2,zero,44ad0 <_fflush_r+0xa4>
   44ac8:	88800f17 	ldw	r2,60(r17)
   44acc:	80a1c83a 	sub	r16,r16,r2
   44ad0:	89400717 	ldw	r5,28(r17)
   44ad4:	9809883a 	mov	r4,r19
   44ad8:	800d883a 	mov	r6,r16
   44adc:	000f883a 	mov	r7,zero
   44ae0:	183ee83a 	callr	r3
   44ae4:	8080281e 	bne	r16,r2,44b88 <_fflush_r+0x15c>
   44ae8:	8880030b 	ldhu	r2,12(r17)
   44aec:	88c00417 	ldw	r3,16(r17)
   44af0:	88000115 	stw	zero,4(r17)
   44af4:	113dffcc 	andi	r4,r2,63487
   44af8:	1084000c 	andi	r2,r2,4096
   44afc:	10bfffcc 	andi	r2,r2,65535
   44b00:	10a0001c 	xori	r2,r2,32768
   44b04:	8900030d 	sth	r4,12(r17)
   44b08:	88c00015 	stw	r3,0(r17)
   44b0c:	10a00004 	addi	r2,r2,-32768
   44b10:	10002c1e 	bne	r2,zero,44bc4 <_fflush_r+0x198>
   44b14:	0005883a 	mov	r2,zero
   44b18:	dfc00417 	ldw	ra,16(sp)
   44b1c:	dcc00317 	ldw	r19,12(sp)
   44b20:	dc800217 	ldw	r18,8(sp)
   44b24:	dc400117 	ldw	r17,4(sp)
   44b28:	dc000017 	ldw	r16,0(sp)
   44b2c:	dec00504 	addi	sp,sp,20
   44b30:	f800283a 	ret
   44b34:	8c800417 	ldw	r18,16(r17)
   44b38:	903ff626 	beq	r18,zero,44b14 <_fflush_r+0xe8>
   44b3c:	8c000017 	ldw	r16,0(r17)
   44b40:	108000cc 	andi	r2,r2,3
   44b44:	8c800015 	stw	r18,0(r17)
   44b48:	84a1c83a 	sub	r16,r16,r18
   44b4c:	10001b1e 	bne	r2,zero,44bbc <_fflush_r+0x190>
   44b50:	88800517 	ldw	r2,20(r17)
   44b54:	88800215 	stw	r2,8(r17)
   44b58:	04000316 	blt	zero,r16,44b68 <_fflush_r+0x13c>
   44b5c:	003fed06 	br	44b14 <_fflush_r+0xe8>
   44b60:	90a5883a 	add	r18,r18,r2
   44b64:	043feb0e 	bge	zero,r16,44b14 <_fflush_r+0xe8>
   44b68:	88800917 	ldw	r2,36(r17)
   44b6c:	89400717 	ldw	r5,28(r17)
   44b70:	800f883a 	mov	r7,r16
   44b74:	900d883a 	mov	r6,r18
   44b78:	9809883a 	mov	r4,r19
   44b7c:	103ee83a 	callr	r2
   44b80:	80a1c83a 	sub	r16,r16,r2
   44b84:	00bff616 	blt	zero,r2,44b60 <_fflush_r+0x134>
   44b88:	88c0030b 	ldhu	r3,12(r17)
   44b8c:	00bfffc4 	movi	r2,-1
   44b90:	18c01014 	ori	r3,r3,64
   44b94:	88c0030d 	sth	r3,12(r17)
   44b98:	dfc00417 	ldw	ra,16(sp)
   44b9c:	dcc00317 	ldw	r19,12(sp)
   44ba0:	dc800217 	ldw	r18,8(sp)
   44ba4:	dc400117 	ldw	r17,4(sp)
   44ba8:	dc000017 	ldw	r16,0(sp)
   44bac:	dec00504 	addi	sp,sp,20
   44bb0:	f800283a 	ret
   44bb4:	0044ce80 	call	44ce8 <__sinit>
   44bb8:	003fa706 	br	44a58 <_fflush_r+0x2c>
   44bbc:	0005883a 	mov	r2,zero
   44bc0:	003fe406 	br	44b54 <_fflush_r+0x128>
   44bc4:	8c001415 	stw	r16,80(r17)
   44bc8:	003fd206 	br	44b14 <_fflush_r+0xe8>
   44bcc:	88c00f17 	ldw	r3,60(r17)
   44bd0:	00ffac16 	blt	zero,r3,44a84 <_fflush_r+0x58>
   44bd4:	003fcf06 	br	44b14 <_fflush_r+0xe8>
   44bd8:	89400717 	ldw	r5,28(r17)
   44bdc:	9809883a 	mov	r4,r19
   44be0:	000d883a 	mov	r6,zero
   44be4:	01c00044 	movi	r7,1
   44be8:	183ee83a 	callr	r3
   44bec:	1021883a 	mov	r16,r2
   44bf0:	00bfffc4 	movi	r2,-1
   44bf4:	80800326 	beq	r16,r2,44c04 <_fflush_r+0x1d8>
   44bf8:	8940030b 	ldhu	r5,12(r17)
   44bfc:	88c00a17 	ldw	r3,40(r17)
   44c00:	003fa806 	br	44aa4 <_fflush_r+0x78>
   44c04:	98c00017 	ldw	r3,0(r19)
   44c08:	00800744 	movi	r2,29
   44c0c:	18bfde1e 	bne	r3,r2,44b88 <_fflush_r+0x15c>
   44c10:	003fc006 	br	44b14 <_fflush_r+0xe8>

00044c14 <fflush>:
   44c14:	200b883a 	mov	r5,r4
   44c18:	20000426 	beq	r4,zero,44c2c <fflush+0x18>
   44c1c:	00800174 	movhi	r2,5
   44c20:	10bc4204 	addi	r2,r2,-3832
   44c24:	11000017 	ldw	r4,0(r2)
   44c28:	0044a2c1 	jmpi	44a2c <_fflush_r>
   44c2c:	00800174 	movhi	r2,5
   44c30:	10bc4104 	addi	r2,r2,-3836
   44c34:	11000017 	ldw	r4,0(r2)
   44c38:	01400134 	movhi	r5,4
   44c3c:	29528b04 	addi	r5,r5,18988
   44c40:	00458c81 	jmpi	458c8 <_fwalk_reent>

00044c44 <__fp_lock>:
   44c44:	0005883a 	mov	r2,zero
   44c48:	f800283a 	ret

00044c4c <__fp_unlock>:
   44c4c:	0005883a 	mov	r2,zero
   44c50:	f800283a 	ret

00044c54 <_cleanup_r>:
   44c54:	01400174 	movhi	r5,5
   44c58:	2960fe04 	addi	r5,r5,-31752
   44c5c:	00458201 	jmpi	45820 <_fwalk>

00044c60 <__sfmoreglue>:
   44c60:	defffc04 	addi	sp,sp,-16
   44c64:	dc800215 	stw	r18,8(sp)
   44c68:	2825883a 	mov	r18,r5
   44c6c:	dc000015 	stw	r16,0(sp)
   44c70:	01401704 	movi	r5,92
   44c74:	2021883a 	mov	r16,r4
   44c78:	9009883a 	mov	r4,r18
   44c7c:	dfc00315 	stw	ra,12(sp)
   44c80:	dc400115 	stw	r17,4(sp)
   44c84:	0040e000 	call	40e00 <__mulsi3>
   44c88:	8009883a 	mov	r4,r16
   44c8c:	11400304 	addi	r5,r2,12
   44c90:	1023883a 	mov	r17,r2
   44c94:	0045c040 	call	45c04 <_malloc_r>
   44c98:	1021883a 	mov	r16,r2
   44c9c:	10000726 	beq	r2,zero,44cbc <__sfmoreglue+0x5c>
   44ca0:	11000304 	addi	r4,r2,12
   44ca4:	10000015 	stw	zero,0(r2)
   44ca8:	14800115 	stw	r18,4(r2)
   44cac:	11000215 	stw	r4,8(r2)
   44cb0:	000b883a 	mov	r5,zero
   44cb4:	880d883a 	mov	r6,r17
   44cb8:	004674c0 	call	4674c <memset>
   44cbc:	8005883a 	mov	r2,r16
   44cc0:	dfc00317 	ldw	ra,12(sp)
   44cc4:	dc800217 	ldw	r18,8(sp)
   44cc8:	dc400117 	ldw	r17,4(sp)
   44ccc:	dc000017 	ldw	r16,0(sp)
   44cd0:	dec00404 	addi	sp,sp,16
   44cd4:	f800283a 	ret

00044cd8 <_cleanup>:
   44cd8:	00800174 	movhi	r2,5
   44cdc:	10bc4104 	addi	r2,r2,-3836
   44ce0:	11000017 	ldw	r4,0(r2)
   44ce4:	0044c541 	jmpi	44c54 <_cleanup_r>

00044ce8 <__sinit>:
   44ce8:	20800e17 	ldw	r2,56(r4)
   44cec:	1000401e 	bne	r2,zero,44df0 <__sinit+0x108>
   44cf0:	21400117 	ldw	r5,4(r4)
   44cf4:	01800134 	movhi	r6,4
   44cf8:	31931504 	addi	r6,r6,19540
   44cfc:	20c00217 	ldw	r3,8(r4)
   44d00:	21800f15 	stw	r6,60(r4)
   44d04:	2080bb04 	addi	r2,r4,748
   44d08:	02400044 	movi	r9,1
   44d0c:	018000c4 	movi	r6,3
   44d10:	2180b915 	stw	r6,740(r4)
   44d14:	2080ba15 	stw	r2,744(r4)
   44d18:	22400e15 	stw	r9,56(r4)
   44d1c:	20800317 	ldw	r2,12(r4)
   44d20:	2000b815 	stw	zero,736(r4)
   44d24:	02000134 	movhi	r8,4
   44d28:	421fcf04 	addi	r8,r8,32572
   44d2c:	01c00134 	movhi	r7,4
   44d30:	39dfe404 	addi	r7,r7,32656
   44d34:	01800174 	movhi	r6,5
   44d38:	31a00604 	addi	r6,r6,-32744
   44d3c:	01000174 	movhi	r4,5
   44d40:	21201d04 	addi	r4,r4,-32652
   44d44:	02800104 	movi	r10,4
   44d48:	28000015 	stw	zero,0(r5)
   44d4c:	28000115 	stw	zero,4(r5)
   44d50:	28000215 	stw	zero,8(r5)
   44d54:	2a80030d 	sth	r10,12(r5)
   44d58:	2800038d 	sth	zero,14(r5)
   44d5c:	28000415 	stw	zero,16(r5)
   44d60:	28000515 	stw	zero,20(r5)
   44d64:	28000615 	stw	zero,24(r5)
   44d68:	29400715 	stw	r5,28(r5)
   44d6c:	2a000815 	stw	r8,32(r5)
   44d70:	29c00915 	stw	r7,36(r5)
   44d74:	29800a15 	stw	r6,40(r5)
   44d78:	29000b15 	stw	r4,44(r5)
   44d7c:	01400284 	movi	r5,10
   44d80:	18000015 	stw	zero,0(r3)
   44d84:	18000115 	stw	zero,4(r3)
   44d88:	18000215 	stw	zero,8(r3)
   44d8c:	1940030d 	sth	r5,12(r3)
   44d90:	1a40038d 	sth	r9,14(r3)
   44d94:	18000415 	stw	zero,16(r3)
   44d98:	18000515 	stw	zero,20(r3)
   44d9c:	18000615 	stw	zero,24(r3)
   44da0:	18c00715 	stw	r3,28(r3)
   44da4:	1a000815 	stw	r8,32(r3)
   44da8:	19c00915 	stw	r7,36(r3)
   44dac:	19800a15 	stw	r6,40(r3)
   44db0:	19000b15 	stw	r4,44(r3)
   44db4:	00c00484 	movi	r3,18
   44db8:	10c0030d 	sth	r3,12(r2)
   44dbc:	00c00084 	movi	r3,2
   44dc0:	10000015 	stw	zero,0(r2)
   44dc4:	10000115 	stw	zero,4(r2)
   44dc8:	10000215 	stw	zero,8(r2)
   44dcc:	10c0038d 	sth	r3,14(r2)
   44dd0:	10000415 	stw	zero,16(r2)
   44dd4:	10000515 	stw	zero,20(r2)
   44dd8:	10000615 	stw	zero,24(r2)
   44ddc:	10800715 	stw	r2,28(r2)
   44de0:	12000815 	stw	r8,32(r2)
   44de4:	11c00915 	stw	r7,36(r2)
   44de8:	11800a15 	stw	r6,40(r2)
   44dec:	11000b15 	stw	r4,44(r2)
   44df0:	f800283a 	ret

00044df4 <__sfp>:
   44df4:	defffc04 	addi	sp,sp,-16
   44df8:	00800174 	movhi	r2,5
   44dfc:	10bc4104 	addi	r2,r2,-3836
   44e00:	dc400115 	stw	r17,4(sp)
   44e04:	14400017 	ldw	r17,0(r2)
   44e08:	dc800215 	stw	r18,8(sp)
   44e0c:	dfc00315 	stw	ra,12(sp)
   44e10:	88800e17 	ldw	r2,56(r17)
   44e14:	dc000015 	stw	r16,0(sp)
   44e18:	2025883a 	mov	r18,r4
   44e1c:	10002826 	beq	r2,zero,44ec0 <__sfp+0xcc>
   44e20:	8c40b804 	addi	r17,r17,736
   44e24:	043fffc4 	movi	r16,-1
   44e28:	89400117 	ldw	r5,4(r17)
   44e2c:	88800217 	ldw	r2,8(r17)
   44e30:	297fffc4 	addi	r5,r5,-1
   44e34:	28000a16 	blt	r5,zero,44e60 <__sfp+0x6c>
   44e38:	10c0030f 	ldh	r3,12(r2)
   44e3c:	18000c26 	beq	r3,zero,44e70 <__sfp+0x7c>
   44e40:	10c01a04 	addi	r3,r2,104
   44e44:	00000206 	br	44e50 <__sfp+0x5c>
   44e48:	19bfe90f 	ldh	r6,-92(r3)
   44e4c:	30000826 	beq	r6,zero,44e70 <__sfp+0x7c>
   44e50:	297fffc4 	addi	r5,r5,-1
   44e54:	18bffd04 	addi	r2,r3,-12
   44e58:	18c01704 	addi	r3,r3,92
   44e5c:	2c3ffa1e 	bne	r5,r16,44e48 <__sfp+0x54>
   44e60:	88800017 	ldw	r2,0(r17)
   44e64:	10001926 	beq	r2,zero,44ecc <__sfp+0xd8>
   44e68:	1023883a 	mov	r17,r2
   44e6c:	003fee06 	br	44e28 <__sfp+0x34>
   44e70:	00ffffc4 	movi	r3,-1
   44e74:	10c0038d 	sth	r3,14(r2)
   44e78:	00c00044 	movi	r3,1
   44e7c:	10c0030d 	sth	r3,12(r2)
   44e80:	10000015 	stw	zero,0(r2)
   44e84:	10000215 	stw	zero,8(r2)
   44e88:	10000115 	stw	zero,4(r2)
   44e8c:	10000415 	stw	zero,16(r2)
   44e90:	10000515 	stw	zero,20(r2)
   44e94:	10000615 	stw	zero,24(r2)
   44e98:	10000c15 	stw	zero,48(r2)
   44e9c:	10000d15 	stw	zero,52(r2)
   44ea0:	10001115 	stw	zero,68(r2)
   44ea4:	10001215 	stw	zero,72(r2)
   44ea8:	dfc00317 	ldw	ra,12(sp)
   44eac:	dc800217 	ldw	r18,8(sp)
   44eb0:	dc400117 	ldw	r17,4(sp)
   44eb4:	dc000017 	ldw	r16,0(sp)
   44eb8:	dec00404 	addi	sp,sp,16
   44ebc:	f800283a 	ret
   44ec0:	8809883a 	mov	r4,r17
   44ec4:	0044ce80 	call	44ce8 <__sinit>
   44ec8:	003fd506 	br	44e20 <__sfp+0x2c>
   44ecc:	9009883a 	mov	r4,r18
   44ed0:	01400104 	movi	r5,4
   44ed4:	0044c600 	call	44c60 <__sfmoreglue>
   44ed8:	88800015 	stw	r2,0(r17)
   44edc:	103fe21e 	bne	r2,zero,44e68 <__sfp+0x74>
   44ee0:	00800304 	movi	r2,12
   44ee4:	90800015 	stw	r2,0(r18)
   44ee8:	0005883a 	mov	r2,zero
   44eec:	003fee06 	br	44ea8 <__sfp+0xb4>

00044ef0 <__sfp_lock_acquire>:
   44ef0:	f800283a 	ret

00044ef4 <__sfp_lock_release>:
   44ef4:	f800283a 	ret

00044ef8 <__sinit_lock_acquire>:
   44ef8:	f800283a 	ret

00044efc <__sinit_lock_release>:
   44efc:	f800283a 	ret

00044f00 <__fp_lock_all>:
   44f00:	00800174 	movhi	r2,5
   44f04:	10bc4204 	addi	r2,r2,-3832
   44f08:	11000017 	ldw	r4,0(r2)
   44f0c:	01400134 	movhi	r5,4
   44f10:	29531104 	addi	r5,r5,19524
   44f14:	00458201 	jmpi	45820 <_fwalk>

00044f18 <__fp_unlock_all>:
   44f18:	00800174 	movhi	r2,5
   44f1c:	10bc4204 	addi	r2,r2,-3832
   44f20:	11000017 	ldw	r4,0(r2)
   44f24:	01400134 	movhi	r5,4
   44f28:	29531304 	addi	r5,r5,19532
   44f2c:	00458201 	jmpi	45820 <_fwalk>

00044f30 <_malloc_trim_r>:
   44f30:	defffb04 	addi	sp,sp,-20
   44f34:	dcc00315 	stw	r19,12(sp)
   44f38:	dc800215 	stw	r18,8(sp)
   44f3c:	dc400115 	stw	r17,4(sp)
   44f40:	dc000015 	stw	r16,0(sp)
   44f44:	2827883a 	mov	r19,r5
   44f48:	dfc00415 	stw	ra,16(sp)
   44f4c:	04400174 	movhi	r17,5
   44f50:	8c76bd04 	addi	r17,r17,-9484
   44f54:	2021883a 	mov	r16,r4
   44f58:	004aba40 	call	4aba4 <__malloc_lock>
   44f5c:	88800217 	ldw	r2,8(r17)
   44f60:	14800117 	ldw	r18,4(r2)
   44f64:	00bfff04 	movi	r2,-4
   44f68:	90a4703a 	and	r18,r18,r2
   44f6c:	9083fbc4 	addi	r2,r18,4079
   44f70:	14e7c83a 	sub	r19,r2,r19
   44f74:	9826d33a 	srli	r19,r19,12
   44f78:	0083ffc4 	movi	r2,4095
   44f7c:	9cffffc4 	addi	r19,r19,-1
   44f80:	9826933a 	slli	r19,r19,12
   44f84:	14c0060e 	bge	r2,r19,44fa0 <_malloc_trim_r+0x70>
   44f88:	8009883a 	mov	r4,r16
   44f8c:	000b883a 	mov	r5,zero
   44f90:	0047ed80 	call	47ed8 <_sbrk_r>
   44f94:	88c00217 	ldw	r3,8(r17)
   44f98:	1c87883a 	add	r3,r3,r18
   44f9c:	10c00a26 	beq	r2,r3,44fc8 <_malloc_trim_r+0x98>
   44fa0:	8009883a 	mov	r4,r16
   44fa4:	004abc40 	call	4abc4 <__malloc_unlock>
   44fa8:	0005883a 	mov	r2,zero
   44fac:	dfc00417 	ldw	ra,16(sp)
   44fb0:	dcc00317 	ldw	r19,12(sp)
   44fb4:	dc800217 	ldw	r18,8(sp)
   44fb8:	dc400117 	ldw	r17,4(sp)
   44fbc:	dc000017 	ldw	r16,0(sp)
   44fc0:	dec00504 	addi	sp,sp,20
   44fc4:	f800283a 	ret
   44fc8:	8009883a 	mov	r4,r16
   44fcc:	04cbc83a 	sub	r5,zero,r19
   44fd0:	0047ed80 	call	47ed8 <_sbrk_r>
   44fd4:	00ffffc4 	movi	r3,-1
   44fd8:	10c01326 	beq	r2,r3,45028 <_malloc_trim_r+0xf8>
   44fdc:	00800174 	movhi	r2,5
   44fe0:	1082f504 	addi	r2,r2,3028
   44fe4:	11000017 	ldw	r4,0(r2)
   44fe8:	88c00217 	ldw	r3,8(r17)
   44fec:	94e5c83a 	sub	r18,r18,r19
   44ff0:	94800054 	ori	r18,r18,1
   44ff4:	24e7c83a 	sub	r19,r4,r19
   44ff8:	1c800115 	stw	r18,4(r3)
   44ffc:	8009883a 	mov	r4,r16
   45000:	14c00015 	stw	r19,0(r2)
   45004:	004abc40 	call	4abc4 <__malloc_unlock>
   45008:	00800044 	movi	r2,1
   4500c:	dfc00417 	ldw	ra,16(sp)
   45010:	dcc00317 	ldw	r19,12(sp)
   45014:	dc800217 	ldw	r18,8(sp)
   45018:	dc400117 	ldw	r17,4(sp)
   4501c:	dc000017 	ldw	r16,0(sp)
   45020:	dec00504 	addi	sp,sp,20
   45024:	f800283a 	ret
   45028:	8009883a 	mov	r4,r16
   4502c:	000b883a 	mov	r5,zero
   45030:	0047ed80 	call	47ed8 <_sbrk_r>
   45034:	88c00217 	ldw	r3,8(r17)
   45038:	014003c4 	movi	r5,15
   4503c:	10c9c83a 	sub	r4,r2,r3
   45040:	293fd70e 	bge	r5,r4,44fa0 <_malloc_trim_r+0x70>
   45044:	01400174 	movhi	r5,5
   45048:	297c4404 	addi	r5,r5,-3824
   4504c:	29400017 	ldw	r5,0(r5)
   45050:	21000054 	ori	r4,r4,1
   45054:	19000115 	stw	r4,4(r3)
   45058:	1145c83a 	sub	r2,r2,r5
   4505c:	01400174 	movhi	r5,5
   45060:	2942f504 	addi	r5,r5,3028
   45064:	28800015 	stw	r2,0(r5)
   45068:	003fcd06 	br	44fa0 <_malloc_trim_r+0x70>

0004506c <_free_r>:
   4506c:	defffd04 	addi	sp,sp,-12
   45070:	dc400115 	stw	r17,4(sp)
   45074:	dc000015 	stw	r16,0(sp)
   45078:	dfc00215 	stw	ra,8(sp)
   4507c:	2821883a 	mov	r16,r5
   45080:	2023883a 	mov	r17,r4
   45084:	28004b26 	beq	r5,zero,451b4 <_free_r+0x148>
   45088:	004aba40 	call	4aba4 <__malloc_lock>
   4508c:	823fff17 	ldw	r8,-4(r16)
   45090:	00bfff84 	movi	r2,-2
   45094:	81bffe04 	addi	r6,r16,-8
   45098:	4084703a 	and	r2,r8,r2
   4509c:	3087883a 	add	r3,r6,r2
   450a0:	01400174 	movhi	r5,5
   450a4:	2976bd04 	addi	r5,r5,-9484
   450a8:	1a400117 	ldw	r9,4(r3)
   450ac:	29000217 	ldw	r4,8(r5)
   450b0:	01ffff04 	movi	r7,-4
   450b4:	49ce703a 	and	r7,r9,r7
   450b8:	20c06526 	beq	r4,r3,45250 <_free_r+0x1e4>
   450bc:	19c00115 	stw	r7,4(r3)
   450c0:	4200004c 	andi	r8,r8,1
   450c4:	40003026 	beq	r8,zero,45188 <_free_r+0x11c>
   450c8:	0009883a 	mov	r4,zero
   450cc:	19d1883a 	add	r8,r3,r7
   450d0:	42000117 	ldw	r8,4(r8)
   450d4:	4200004c 	andi	r8,r8,1
   450d8:	4000061e 	bne	r8,zero,450f4 <_free_r+0x88>
   450dc:	11c5883a 	add	r2,r2,r7
   450e0:	19c00217 	ldw	r7,8(r3)
   450e4:	20004e26 	beq	r4,zero,45220 <_free_r+0x1b4>
   450e8:	18c00317 	ldw	r3,12(r3)
   450ec:	38c00315 	stw	r3,12(r7)
   450f0:	19c00215 	stw	r7,8(r3)
   450f4:	11c00054 	ori	r7,r2,1
   450f8:	3087883a 	add	r3,r6,r2
   450fc:	31c00115 	stw	r7,4(r6)
   45100:	18800015 	stw	r2,0(r3)
   45104:	20001a1e 	bne	r4,zero,45170 <_free_r+0x104>
   45108:	00c07fc4 	movi	r3,511
   4510c:	18802e2e 	bgeu	r3,r2,451c8 <_free_r+0x15c>
   45110:	1006d27a 	srli	r3,r2,9
   45114:	01000104 	movi	r4,4
   45118:	20c06636 	bltu	r4,r3,452b4 <_free_r+0x248>
   4511c:	1008d1ba 	srli	r4,r2,6
   45120:	21000e04 	addi	r4,r4,56
   45124:	210f883a 	add	r7,r4,r4
   45128:	39cf883a 	add	r7,r7,r7
   4512c:	39cf883a 	add	r7,r7,r7
   45130:	29cf883a 	add	r7,r5,r7
   45134:	38c00217 	ldw	r3,8(r7)
   45138:	01400174 	movhi	r5,5
   4513c:	2976bd04 	addi	r5,r5,-9484
   45140:	19c06126 	beq	r3,r7,452c8 <_free_r+0x25c>
   45144:	013fff04 	movi	r4,-4
   45148:	19400117 	ldw	r5,4(r3)
   4514c:	290a703a 	and	r5,r5,r4
   45150:	1140022e 	bgeu	r2,r5,4515c <_free_r+0xf0>
   45154:	18c00217 	ldw	r3,8(r3)
   45158:	38fffb1e 	bne	r7,r3,45148 <_free_r+0xdc>
   4515c:	18800317 	ldw	r2,12(r3)
   45160:	30800315 	stw	r2,12(r6)
   45164:	30c00215 	stw	r3,8(r6)
   45168:	11800215 	stw	r6,8(r2)
   4516c:	19800315 	stw	r6,12(r3)
   45170:	8809883a 	mov	r4,r17
   45174:	dfc00217 	ldw	ra,8(sp)
   45178:	dc400117 	ldw	r17,4(sp)
   4517c:	dc000017 	ldw	r16,0(sp)
   45180:	dec00304 	addi	sp,sp,12
   45184:	004abc41 	jmpi	4abc4 <__malloc_unlock>
   45188:	813ffe17 	ldw	r4,-8(r16)
   4518c:	2a400204 	addi	r9,r5,8
   45190:	310dc83a 	sub	r6,r6,r4
   45194:	32000217 	ldw	r8,8(r6)
   45198:	1105883a 	add	r2,r2,r4
   4519c:	42404326 	beq	r8,r9,452ac <_free_r+0x240>
   451a0:	32400317 	ldw	r9,12(r6)
   451a4:	0009883a 	mov	r4,zero
   451a8:	42400315 	stw	r9,12(r8)
   451ac:	4a000215 	stw	r8,8(r9)
   451b0:	003fc606 	br	450cc <_free_r+0x60>
   451b4:	dfc00217 	ldw	ra,8(sp)
   451b8:	dc400117 	ldw	r17,4(sp)
   451bc:	dc000017 	ldw	r16,0(sp)
   451c0:	dec00304 	addi	sp,sp,12
   451c4:	f800283a 	ret
   451c8:	1004d0fa 	srli	r2,r2,3
   451cc:	02000044 	movi	r8,1
   451d0:	29c00117 	ldw	r7,4(r5)
   451d4:	1087883a 	add	r3,r2,r2
   451d8:	18c7883a 	add	r3,r3,r3
   451dc:	1005d0ba 	srai	r2,r2,2
   451e0:	18c7883a 	add	r3,r3,r3
   451e4:	28c7883a 	add	r3,r5,r3
   451e8:	19000217 	ldw	r4,8(r3)
   451ec:	4084983a 	sll	r2,r8,r2
   451f0:	30c00315 	stw	r3,12(r6)
   451f4:	31000215 	stw	r4,8(r6)
   451f8:	11c4b03a 	or	r2,r2,r7
   451fc:	21800315 	stw	r6,12(r4)
   45200:	8809883a 	mov	r4,r17
   45204:	28800115 	stw	r2,4(r5)
   45208:	19800215 	stw	r6,8(r3)
   4520c:	dfc00217 	ldw	ra,8(sp)
   45210:	dc400117 	ldw	r17,4(sp)
   45214:	dc000017 	ldw	r16,0(sp)
   45218:	dec00304 	addi	sp,sp,12
   4521c:	004abc41 	jmpi	4abc4 <__malloc_unlock>
   45220:	02000174 	movhi	r8,5
   45224:	4236bf04 	addi	r8,r8,-9476
   45228:	3a3faf1e 	bne	r7,r8,450e8 <_free_r+0x7c>
   4522c:	29800515 	stw	r6,20(r5)
   45230:	29800415 	stw	r6,16(r5)
   45234:	11000054 	ori	r4,r2,1
   45238:	3087883a 	add	r3,r6,r2
   4523c:	31c00315 	stw	r7,12(r6)
   45240:	31c00215 	stw	r7,8(r6)
   45244:	31000115 	stw	r4,4(r6)
   45248:	18800015 	stw	r2,0(r3)
   4524c:	003fc806 	br	45170 <_free_r+0x104>
   45250:	4200004c 	andi	r8,r8,1
   45254:	3885883a 	add	r2,r7,r2
   45258:	4000071e 	bne	r8,zero,45278 <_free_r+0x20c>
   4525c:	81fffe17 	ldw	r7,-8(r16)
   45260:	31cdc83a 	sub	r6,r6,r7
   45264:	30c00317 	ldw	r3,12(r6)
   45268:	31000217 	ldw	r4,8(r6)
   4526c:	11c5883a 	add	r2,r2,r7
   45270:	20c00315 	stw	r3,12(r4)
   45274:	19000215 	stw	r4,8(r3)
   45278:	00c00174 	movhi	r3,5
   4527c:	18fc4504 	addi	r3,r3,-3820
   45280:	18c00017 	ldw	r3,0(r3)
   45284:	11000054 	ori	r4,r2,1
   45288:	31000115 	stw	r4,4(r6)
   4528c:	29800215 	stw	r6,8(r5)
   45290:	10ffb736 	bltu	r2,r3,45170 <_free_r+0x104>
   45294:	00800174 	movhi	r2,5
   45298:	1082eb04 	addi	r2,r2,2988
   4529c:	11400017 	ldw	r5,0(r2)
   452a0:	8809883a 	mov	r4,r17
   452a4:	0044f300 	call	44f30 <_malloc_trim_r>
   452a8:	003fb106 	br	45170 <_free_r+0x104>
   452ac:	01000044 	movi	r4,1
   452b0:	003f8606 	br	450cc <_free_r+0x60>
   452b4:	01000504 	movi	r4,20
   452b8:	20c00b36 	bltu	r4,r3,452e8 <_free_r+0x27c>
   452bc:	190016c4 	addi	r4,r3,91
   452c0:	210f883a 	add	r7,r4,r4
   452c4:	003f9806 	br	45128 <_free_r+0xbc>
   452c8:	2009d0ba 	srai	r4,r4,2
   452cc:	00800044 	movi	r2,1
   452d0:	29c00117 	ldw	r7,4(r5)
   452d4:	1108983a 	sll	r4,r2,r4
   452d8:	1805883a 	mov	r2,r3
   452dc:	21c8b03a 	or	r4,r4,r7
   452e0:	29000115 	stw	r4,4(r5)
   452e4:	003f9e06 	br	45160 <_free_r+0xf4>
   452e8:	01001504 	movi	r4,84
   452ec:	20c00436 	bltu	r4,r3,45300 <_free_r+0x294>
   452f0:	1008d33a 	srli	r4,r2,12
   452f4:	21001b84 	addi	r4,r4,110
   452f8:	210f883a 	add	r7,r4,r4
   452fc:	003f8a06 	br	45128 <_free_r+0xbc>
   45300:	01005504 	movi	r4,340
   45304:	20c00436 	bltu	r4,r3,45318 <_free_r+0x2ac>
   45308:	1008d3fa 	srli	r4,r2,15
   4530c:	21001dc4 	addi	r4,r4,119
   45310:	210f883a 	add	r7,r4,r4
   45314:	003f8406 	br	45128 <_free_r+0xbc>
   45318:	01015504 	movi	r4,1364
   4531c:	20c00436 	bltu	r4,r3,45330 <_free_r+0x2c4>
   45320:	1008d4ba 	srli	r4,r2,18
   45324:	21001f04 	addi	r4,r4,124
   45328:	210f883a 	add	r7,r4,r4
   4532c:	003f7e06 	br	45128 <_free_r+0xbc>
   45330:	01c03f04 	movi	r7,252
   45334:	01001f84 	movi	r4,126
   45338:	003f7b06 	br	45128 <_free_r+0xbc>

0004533c <__sfvwrite_r>:
   4533c:	30800217 	ldw	r2,8(r6)
   45340:	defff504 	addi	sp,sp,-44
   45344:	dd400615 	stw	r21,24(sp)
   45348:	dd000515 	stw	r20,20(sp)
   4534c:	dc000115 	stw	r16,4(sp)
   45350:	dfc00a15 	stw	ra,40(sp)
   45354:	df000915 	stw	fp,36(sp)
   45358:	ddc00815 	stw	r23,32(sp)
   4535c:	dd800715 	stw	r22,28(sp)
   45360:	dcc00415 	stw	r19,16(sp)
   45364:	dc800315 	stw	r18,12(sp)
   45368:	dc400215 	stw	r17,8(sp)
   4536c:	3029883a 	mov	r20,r6
   45370:	202b883a 	mov	r21,r4
   45374:	2821883a 	mov	r16,r5
   45378:	10002126 	beq	r2,zero,45400 <__sfvwrite_r+0xc4>
   4537c:	2880030b 	ldhu	r2,12(r5)
   45380:	10c0020c 	andi	r3,r2,8
   45384:	18ffffcc 	andi	r3,r3,65535
   45388:	18e0001c 	xori	r3,r3,32768
   4538c:	18e00004 	addi	r3,r3,-32768
   45390:	18002826 	beq	r3,zero,45434 <__sfvwrite_r+0xf8>
   45394:	28c00417 	ldw	r3,16(r5)
   45398:	18002626 	beq	r3,zero,45434 <__sfvwrite_r+0xf8>
   4539c:	10c0008c 	andi	r3,r2,2
   453a0:	18ffffcc 	andi	r3,r3,65535
   453a4:	18e0001c 	xori	r3,r3,32768
   453a8:	18e00004 	addi	r3,r3,-32768
   453ac:	a4400017 	ldw	r17,0(r20)
   453b0:	18002b26 	beq	r3,zero,45460 <__sfvwrite_r+0x124>
   453b4:	0027883a 	mov	r19,zero
   453b8:	0025883a 	mov	r18,zero
   453bc:	05810004 	movi	r22,1024
   453c0:	980d883a 	mov	r6,r19
   453c4:	a809883a 	mov	r4,r21
   453c8:	90004f26 	beq	r18,zero,45508 <__sfvwrite_r+0x1cc>
   453cc:	900f883a 	mov	r7,r18
   453d0:	81400717 	ldw	r5,28(r16)
   453d4:	b480012e 	bgeu	r22,r18,453dc <__sfvwrite_r+0xa0>
   453d8:	01c10004 	movi	r7,1024
   453dc:	80800917 	ldw	r2,36(r16)
   453e0:	103ee83a 	callr	r2
   453e4:	0080540e 	bge	zero,r2,45538 <__sfvwrite_r+0x1fc>
   453e8:	a0c00217 	ldw	r3,8(r20)
   453ec:	98a7883a 	add	r19,r19,r2
   453f0:	90a5c83a 	sub	r18,r18,r2
   453f4:	1885c83a 	sub	r2,r3,r2
   453f8:	a0800215 	stw	r2,8(r20)
   453fc:	103ff01e 	bne	r2,zero,453c0 <__sfvwrite_r+0x84>
   45400:	0005883a 	mov	r2,zero
   45404:	dfc00a17 	ldw	ra,40(sp)
   45408:	df000917 	ldw	fp,36(sp)
   4540c:	ddc00817 	ldw	r23,32(sp)
   45410:	dd800717 	ldw	r22,28(sp)
   45414:	dd400617 	ldw	r21,24(sp)
   45418:	dd000517 	ldw	r20,20(sp)
   4541c:	dcc00417 	ldw	r19,16(sp)
   45420:	dc800317 	ldw	r18,12(sp)
   45424:	dc400217 	ldw	r17,8(sp)
   45428:	dc000117 	ldw	r16,4(sp)
   4542c:	dec00b04 	addi	sp,sp,44
   45430:	f800283a 	ret
   45434:	a809883a 	mov	r4,r21
   45438:	800b883a 	mov	r5,r16
   4543c:	0042ec00 	call	42ec0 <__swsetup_r>
   45440:	1000f01e 	bne	r2,zero,45804 <__sfvwrite_r+0x4c8>
   45444:	8080030b 	ldhu	r2,12(r16)
   45448:	a4400017 	ldw	r17,0(r20)
   4544c:	10c0008c 	andi	r3,r2,2
   45450:	18ffffcc 	andi	r3,r3,65535
   45454:	18e0001c 	xori	r3,r3,32768
   45458:	18e00004 	addi	r3,r3,-32768
   4545c:	183fd51e 	bne	r3,zero,453b4 <__sfvwrite_r+0x78>
   45460:	10c0004c 	andi	r3,r2,1
   45464:	002d883a 	mov	r22,zero
   45468:	1800381e 	bne	r3,zero,4554c <__sfvwrite_r+0x210>
   4546c:	0025883a 	mov	r18,zero
   45470:	90002126 	beq	r18,zero,454f8 <__sfvwrite_r+0x1bc>
   45474:	10c0800c 	andi	r3,r2,512
   45478:	18ffffcc 	andi	r3,r3,65535
   4547c:	18e0001c 	xori	r3,r3,32768
   45480:	18e00004 	addi	r3,r3,-32768
   45484:	84c00217 	ldw	r19,8(r16)
   45488:	18006b26 	beq	r3,zero,45638 <__sfvwrite_r+0x2fc>
   4548c:	980f883a 	mov	r7,r19
   45490:	94c08636 	bltu	r18,r19,456ac <__sfvwrite_r+0x370>
   45494:	10c1200c 	andi	r3,r2,1152
   45498:	18009f1e 	bne	r3,zero,45718 <__sfvwrite_r+0x3dc>
   4549c:	81000017 	ldw	r4,0(r16)
   454a0:	982f883a 	mov	r23,r19
   454a4:	9039883a 	mov	fp,r18
   454a8:	9027883a 	mov	r19,r18
   454ac:	380d883a 	mov	r6,r7
   454b0:	b00b883a 	mov	r5,r22
   454b4:	d9c00015 	stw	r7,0(sp)
   454b8:	00465c00 	call	465c0 <memmove>
   454bc:	d9c00017 	ldw	r7,0(sp)
   454c0:	81000217 	ldw	r4,8(r16)
   454c4:	80800017 	ldw	r2,0(r16)
   454c8:	25efc83a 	sub	r23,r4,r23
   454cc:	11cf883a 	add	r7,r2,r7
   454d0:	85c00215 	stw	r23,8(r16)
   454d4:	81c00015 	stw	r7,0(r16)
   454d8:	a0800217 	ldw	r2,8(r20)
   454dc:	b72d883a 	add	r22,r22,fp
   454e0:	9725c83a 	sub	r18,r18,fp
   454e4:	14e7c83a 	sub	r19,r2,r19
   454e8:	a4c00215 	stw	r19,8(r20)
   454ec:	983fc426 	beq	r19,zero,45400 <__sfvwrite_r+0xc4>
   454f0:	8080030b 	ldhu	r2,12(r16)
   454f4:	903fdf1e 	bne	r18,zero,45474 <__sfvwrite_r+0x138>
   454f8:	8d800017 	ldw	r22,0(r17)
   454fc:	8c800117 	ldw	r18,4(r17)
   45500:	8c400204 	addi	r17,r17,8
   45504:	003fda06 	br	45470 <__sfvwrite_r+0x134>
   45508:	8cc00017 	ldw	r19,0(r17)
   4550c:	8c800117 	ldw	r18,4(r17)
   45510:	8c400204 	addi	r17,r17,8
   45514:	003faa06 	br	453c0 <__sfvwrite_r+0x84>
   45518:	00478780 	call	47878 <_realloc_r>
   4551c:	102f883a 	mov	r23,r2
   45520:	10009f1e 	bne	r2,zero,457a0 <__sfvwrite_r+0x464>
   45524:	81400417 	ldw	r5,16(r16)
   45528:	a809883a 	mov	r4,r21
   4552c:	004506c0 	call	4506c <_free_r>
   45530:	00800304 	movi	r2,12
   45534:	a8800015 	stw	r2,0(r21)
   45538:	80c0030b 	ldhu	r3,12(r16)
   4553c:	00bfffc4 	movi	r2,-1
   45540:	18c01014 	ori	r3,r3,64
   45544:	80c0030d 	sth	r3,12(r16)
   45548:	003fae06 	br	45404 <__sfvwrite_r+0xc8>
   4554c:	0007883a 	mov	r3,zero
   45550:	0039883a 	mov	fp,zero
   45554:	0025883a 	mov	r18,zero
   45558:	90001e26 	beq	r18,zero,455d4 <__sfvwrite_r+0x298>
   4555c:	18006526 	beq	r3,zero,456f4 <__sfvwrite_r+0x3b8>
   45560:	b02f883a 	mov	r23,r22
   45564:	9580012e 	bgeu	r18,r22,4556c <__sfvwrite_r+0x230>
   45568:	902f883a 	mov	r23,r18
   4556c:	81000017 	ldw	r4,0(r16)
   45570:	80800417 	ldw	r2,16(r16)
   45574:	84c00217 	ldw	r19,8(r16)
   45578:	81c00517 	ldw	r7,20(r16)
   4557c:	1100022e 	bgeu	r2,r4,45588 <__sfvwrite_r+0x24c>
   45580:	99e7883a 	add	r19,r19,r7
   45584:	9dc01816 	blt	r19,r23,455e8 <__sfvwrite_r+0x2ac>
   45588:	b9c03b16 	blt	r23,r7,45678 <__sfvwrite_r+0x33c>
   4558c:	80800917 	ldw	r2,36(r16)
   45590:	81400717 	ldw	r5,28(r16)
   45594:	a809883a 	mov	r4,r21
   45598:	d8c00015 	stw	r3,0(sp)
   4559c:	e00d883a 	mov	r6,fp
   455a0:	103ee83a 	callr	r2
   455a4:	1027883a 	mov	r19,r2
   455a8:	d8c00017 	ldw	r3,0(sp)
   455ac:	00bfe20e 	bge	zero,r2,45538 <__sfvwrite_r+0x1fc>
   455b0:	b4edc83a 	sub	r22,r22,r19
   455b4:	b0001a26 	beq	r22,zero,45620 <__sfvwrite_r+0x2e4>
   455b8:	a0800217 	ldw	r2,8(r20)
   455bc:	e4f9883a 	add	fp,fp,r19
   455c0:	94e5c83a 	sub	r18,r18,r19
   455c4:	14e7c83a 	sub	r19,r2,r19
   455c8:	a4c00215 	stw	r19,8(r20)
   455cc:	983f8c26 	beq	r19,zero,45400 <__sfvwrite_r+0xc4>
   455d0:	903fe21e 	bne	r18,zero,4555c <__sfvwrite_r+0x220>
   455d4:	8f000017 	ldw	fp,0(r17)
   455d8:	8c800117 	ldw	r18,4(r17)
   455dc:	0007883a 	mov	r3,zero
   455e0:	8c400204 	addi	r17,r17,8
   455e4:	003fdc06 	br	45558 <__sfvwrite_r+0x21c>
   455e8:	e00b883a 	mov	r5,fp
   455ec:	980d883a 	mov	r6,r19
   455f0:	d8c00015 	stw	r3,0(sp)
   455f4:	00465c00 	call	465c0 <memmove>
   455f8:	80800017 	ldw	r2,0(r16)
   455fc:	a809883a 	mov	r4,r21
   45600:	800b883a 	mov	r5,r16
   45604:	14c5883a 	add	r2,r2,r19
   45608:	80800015 	stw	r2,0(r16)
   4560c:	0044a2c0 	call	44a2c <_fflush_r>
   45610:	d8c00017 	ldw	r3,0(sp)
   45614:	103fc81e 	bne	r2,zero,45538 <__sfvwrite_r+0x1fc>
   45618:	b4edc83a 	sub	r22,r22,r19
   4561c:	b03fe61e 	bne	r22,zero,455b8 <__sfvwrite_r+0x27c>
   45620:	a809883a 	mov	r4,r21
   45624:	800b883a 	mov	r5,r16
   45628:	0044a2c0 	call	44a2c <_fflush_r>
   4562c:	103fc21e 	bne	r2,zero,45538 <__sfvwrite_r+0x1fc>
   45630:	0007883a 	mov	r3,zero
   45634:	003fe006 	br	455b8 <__sfvwrite_r+0x27c>
   45638:	81000017 	ldw	r4,0(r16)
   4563c:	80800417 	ldw	r2,16(r16)
   45640:	1100022e 	bgeu	r2,r4,4564c <__sfvwrite_r+0x310>
   45644:	9839883a 	mov	fp,r19
   45648:	9c806036 	bltu	r19,r18,457cc <__sfvwrite_r+0x490>
   4564c:	81c00517 	ldw	r7,20(r16)
   45650:	91c01c36 	bltu	r18,r7,456c4 <__sfvwrite_r+0x388>
   45654:	80800917 	ldw	r2,36(r16)
   45658:	81400717 	ldw	r5,28(r16)
   4565c:	a809883a 	mov	r4,r21
   45660:	b00d883a 	mov	r6,r22
   45664:	103ee83a 	callr	r2
   45668:	1027883a 	mov	r19,r2
   4566c:	00bfb20e 	bge	zero,r2,45538 <__sfvwrite_r+0x1fc>
   45670:	1039883a 	mov	fp,r2
   45674:	003f9806 	br	454d8 <__sfvwrite_r+0x19c>
   45678:	b80d883a 	mov	r6,r23
   4567c:	e00b883a 	mov	r5,fp
   45680:	d8c00015 	stw	r3,0(sp)
   45684:	00465c00 	call	465c0 <memmove>
   45688:	80800217 	ldw	r2,8(r16)
   4568c:	81000017 	ldw	r4,0(r16)
   45690:	b827883a 	mov	r19,r23
   45694:	15c5c83a 	sub	r2,r2,r23
   45698:	25ef883a 	add	r23,r4,r23
   4569c:	80800215 	stw	r2,8(r16)
   456a0:	85c00015 	stw	r23,0(r16)
   456a4:	d8c00017 	ldw	r3,0(sp)
   456a8:	003fc106 	br	455b0 <__sfvwrite_r+0x274>
   456ac:	81000017 	ldw	r4,0(r16)
   456b0:	902f883a 	mov	r23,r18
   456b4:	9039883a 	mov	fp,r18
   456b8:	9027883a 	mov	r19,r18
   456bc:	900f883a 	mov	r7,r18
   456c0:	003f7a06 	br	454ac <__sfvwrite_r+0x170>
   456c4:	b00b883a 	mov	r5,r22
   456c8:	900d883a 	mov	r6,r18
   456cc:	00465c00 	call	465c0 <memmove>
   456d0:	80c00217 	ldw	r3,8(r16)
   456d4:	80800017 	ldw	r2,0(r16)
   456d8:	9027883a 	mov	r19,r18
   456dc:	1c87c83a 	sub	r3,r3,r18
   456e0:	1485883a 	add	r2,r2,r18
   456e4:	80c00215 	stw	r3,8(r16)
   456e8:	80800015 	stw	r2,0(r16)
   456ec:	9039883a 	mov	fp,r18
   456f0:	003f7906 	br	454d8 <__sfvwrite_r+0x19c>
   456f4:	e009883a 	mov	r4,fp
   456f8:	01400284 	movi	r5,10
   456fc:	900d883a 	mov	r6,r18
   45700:	00463880 	call	46388 <memchr>
   45704:	10003c26 	beq	r2,zero,457f8 <__sfvwrite_r+0x4bc>
   45708:	15800044 	addi	r22,r2,1
   4570c:	b72dc83a 	sub	r22,r22,fp
   45710:	00c00044 	movi	r3,1
   45714:	003f9206 	br	45560 <__sfvwrite_r+0x224>
   45718:	81000517 	ldw	r4,20(r16)
   4571c:	81400417 	ldw	r5,16(r16)
   45720:	80c00017 	ldw	r3,0(r16)
   45724:	210d883a 	add	r6,r4,r4
   45728:	3109883a 	add	r4,r6,r4
   4572c:	2026d7fa 	srli	r19,r4,31
   45730:	1979c83a 	sub	fp,r3,r5
   45734:	e1800044 	addi	r6,fp,1
   45738:	9909883a 	add	r4,r19,r4
   4573c:	2027d07a 	srai	r19,r4,1
   45740:	3489883a 	add	r4,r6,r18
   45744:	980d883a 	mov	r6,r19
   45748:	9900022e 	bgeu	r19,r4,45754 <__sfvwrite_r+0x418>
   4574c:	2027883a 	mov	r19,r4
   45750:	200d883a 	mov	r6,r4
   45754:	1081000c 	andi	r2,r2,1024
   45758:	10bfffcc 	andi	r2,r2,65535
   4575c:	10a0001c 	xori	r2,r2,32768
   45760:	10a00004 	addi	r2,r2,-32768
   45764:	a809883a 	mov	r4,r21
   45768:	103f6b26 	beq	r2,zero,45518 <__sfvwrite_r+0x1dc>
   4576c:	300b883a 	mov	r5,r6
   45770:	0045c040 	call	45c04 <_malloc_r>
   45774:	102f883a 	mov	r23,r2
   45778:	103f6d26 	beq	r2,zero,45530 <__sfvwrite_r+0x1f4>
   4577c:	81400417 	ldw	r5,16(r16)
   45780:	1009883a 	mov	r4,r2
   45784:	e00d883a 	mov	r6,fp
   45788:	00464800 	call	46480 <memcpy>
   4578c:	8080030b 	ldhu	r2,12(r16)
   45790:	00fedfc4 	movi	r3,-1153
   45794:	10c4703a 	and	r2,r2,r3
   45798:	10802014 	ori	r2,r2,128
   4579c:	8080030d 	sth	r2,12(r16)
   457a0:	bf09883a 	add	r4,r23,fp
   457a4:	9f07c83a 	sub	r3,r19,fp
   457a8:	85c00415 	stw	r23,16(r16)
   457ac:	84c00515 	stw	r19,20(r16)
   457b0:	81000015 	stw	r4,0(r16)
   457b4:	902f883a 	mov	r23,r18
   457b8:	80c00215 	stw	r3,8(r16)
   457bc:	9039883a 	mov	fp,r18
   457c0:	9027883a 	mov	r19,r18
   457c4:	900f883a 	mov	r7,r18
   457c8:	003f3806 	br	454ac <__sfvwrite_r+0x170>
   457cc:	b00b883a 	mov	r5,r22
   457d0:	980d883a 	mov	r6,r19
   457d4:	00465c00 	call	465c0 <memmove>
   457d8:	80800017 	ldw	r2,0(r16)
   457dc:	a809883a 	mov	r4,r21
   457e0:	800b883a 	mov	r5,r16
   457e4:	14c5883a 	add	r2,r2,r19
   457e8:	80800015 	stw	r2,0(r16)
   457ec:	0044a2c0 	call	44a2c <_fflush_r>
   457f0:	103f3926 	beq	r2,zero,454d8 <__sfvwrite_r+0x19c>
   457f4:	003f5006 	br	45538 <__sfvwrite_r+0x1fc>
   457f8:	95800044 	addi	r22,r18,1
   457fc:	00c00044 	movi	r3,1
   45800:	003f5706 	br	45560 <__sfvwrite_r+0x224>
   45804:	80c0030b 	ldhu	r3,12(r16)
   45808:	00bfffc4 	movi	r2,-1
   4580c:	18c01014 	ori	r3,r3,64
   45810:	80c0030d 	sth	r3,12(r16)
   45814:	00c00244 	movi	r3,9
   45818:	a8c00015 	stw	r3,0(r21)
   4581c:	003ef906 	br	45404 <__sfvwrite_r+0xc8>

00045820 <_fwalk>:
   45820:	defff904 	addi	sp,sp,-28
   45824:	dcc00315 	stw	r19,12(sp)
   45828:	24c0b804 	addi	r19,r4,736
   4582c:	dd400515 	stw	r21,20(sp)
   45830:	dd000415 	stw	r20,16(sp)
   45834:	dfc00615 	stw	ra,24(sp)
   45838:	dc800215 	stw	r18,8(sp)
   4583c:	dc400115 	stw	r17,4(sp)
   45840:	dc000015 	stw	r16,0(sp)
   45844:	282b883a 	mov	r21,r5
   45848:	0029883a 	mov	r20,zero
   4584c:	0044ef00 	call	44ef0 <__sfp_lock_acquire>
   45850:	98001226 	beq	r19,zero,4589c <_fwalk+0x7c>
   45854:	04bfffc4 	movi	r18,-1
   45858:	9c400117 	ldw	r17,4(r19)
   4585c:	9c000217 	ldw	r16,8(r19)
   45860:	8c7fffc4 	addi	r17,r17,-1
   45864:	88000b16 	blt	r17,zero,45894 <_fwalk+0x74>
   45868:	84000304 	addi	r16,r16,12
   4586c:	80c0000f 	ldh	r3,0(r16)
   45870:	8c7fffc4 	addi	r17,r17,-1
   45874:	813ffd04 	addi	r4,r16,-12
   45878:	18000426 	beq	r3,zero,4588c <_fwalk+0x6c>
   4587c:	80c0008f 	ldh	r3,2(r16)
   45880:	1c800226 	beq	r3,r18,4588c <_fwalk+0x6c>
   45884:	a83ee83a 	callr	r21
   45888:	a0a8b03a 	or	r20,r20,r2
   4588c:	84001704 	addi	r16,r16,92
   45890:	8cbff61e 	bne	r17,r18,4586c <_fwalk+0x4c>
   45894:	9cc00017 	ldw	r19,0(r19)
   45898:	983fef1e 	bne	r19,zero,45858 <_fwalk+0x38>
   4589c:	0044ef40 	call	44ef4 <__sfp_lock_release>
   458a0:	a005883a 	mov	r2,r20
   458a4:	dfc00617 	ldw	ra,24(sp)
   458a8:	dd400517 	ldw	r21,20(sp)
   458ac:	dd000417 	ldw	r20,16(sp)
   458b0:	dcc00317 	ldw	r19,12(sp)
   458b4:	dc800217 	ldw	r18,8(sp)
   458b8:	dc400117 	ldw	r17,4(sp)
   458bc:	dc000017 	ldw	r16,0(sp)
   458c0:	dec00704 	addi	sp,sp,28
   458c4:	f800283a 	ret

000458c8 <_fwalk_reent>:
   458c8:	defff804 	addi	sp,sp,-32
   458cc:	dcc00315 	stw	r19,12(sp)
   458d0:	24c0b804 	addi	r19,r4,736
   458d4:	dd800615 	stw	r22,24(sp)
   458d8:	dd400515 	stw	r21,20(sp)
   458dc:	dd000415 	stw	r20,16(sp)
   458e0:	dfc00715 	stw	ra,28(sp)
   458e4:	dc800215 	stw	r18,8(sp)
   458e8:	dc400115 	stw	r17,4(sp)
   458ec:	dc000015 	stw	r16,0(sp)
   458f0:	2029883a 	mov	r20,r4
   458f4:	282b883a 	mov	r21,r5
   458f8:	002d883a 	mov	r22,zero
   458fc:	0044ef00 	call	44ef0 <__sfp_lock_acquire>
   45900:	98001326 	beq	r19,zero,45950 <_fwalk_reent+0x88>
   45904:	04bfffc4 	movi	r18,-1
   45908:	9c400117 	ldw	r17,4(r19)
   4590c:	9c000217 	ldw	r16,8(r19)
   45910:	8c7fffc4 	addi	r17,r17,-1
   45914:	88000c16 	blt	r17,zero,45948 <_fwalk_reent+0x80>
   45918:	84000304 	addi	r16,r16,12
   4591c:	80c0000f 	ldh	r3,0(r16)
   45920:	8c7fffc4 	addi	r17,r17,-1
   45924:	817ffd04 	addi	r5,r16,-12
   45928:	18000526 	beq	r3,zero,45940 <_fwalk_reent+0x78>
   4592c:	80c0008f 	ldh	r3,2(r16)
   45930:	a009883a 	mov	r4,r20
   45934:	1c800226 	beq	r3,r18,45940 <_fwalk_reent+0x78>
   45938:	a83ee83a 	callr	r21
   4593c:	b0acb03a 	or	r22,r22,r2
   45940:	84001704 	addi	r16,r16,92
   45944:	8cbff51e 	bne	r17,r18,4591c <_fwalk_reent+0x54>
   45948:	9cc00017 	ldw	r19,0(r19)
   4594c:	983fee1e 	bne	r19,zero,45908 <_fwalk_reent+0x40>
   45950:	0044ef40 	call	44ef4 <__sfp_lock_release>
   45954:	b005883a 	mov	r2,r22
   45958:	dfc00717 	ldw	ra,28(sp)
   4595c:	dd800617 	ldw	r22,24(sp)
   45960:	dd400517 	ldw	r21,20(sp)
   45964:	dd000417 	ldw	r20,16(sp)
   45968:	dcc00317 	ldw	r19,12(sp)
   4596c:	dc800217 	ldw	r18,8(sp)
   45970:	dc400117 	ldw	r17,4(sp)
   45974:	dc000017 	ldw	r16,0(sp)
   45978:	dec00804 	addi	sp,sp,32
   4597c:	f800283a 	ret

00045980 <_setlocale_r>:
   45980:	defffc04 	addi	sp,sp,-16
   45984:	dc800215 	stw	r18,8(sp)
   45988:	dc400115 	stw	r17,4(sp)
   4598c:	dc000015 	stw	r16,0(sp)
   45990:	dfc00315 	stw	ra,12(sp)
   45994:	3021883a 	mov	r16,r6
   45998:	2023883a 	mov	r17,r4
   4599c:	2825883a 	mov	r18,r5
   459a0:	30001626 	beq	r6,zero,459fc <_setlocale_r+0x7c>
   459a4:	3009883a 	mov	r4,r6
   459a8:	01400174 	movhi	r5,5
   459ac:	2974f204 	addi	r5,r5,-11320
   459b0:	004807c0 	call	4807c <strcmp>
   459b4:	10000a1e 	bne	r2,zero,459e0 <_setlocale_r+0x60>
   459b8:	8c800c15 	stw	r18,48(r17)
   459bc:	8c000d15 	stw	r16,52(r17)
   459c0:	00800174 	movhi	r2,5
   459c4:	10b4f204 	addi	r2,r2,-11320
   459c8:	dfc00317 	ldw	ra,12(sp)
   459cc:	dc800217 	ldw	r18,8(sp)
   459d0:	dc400117 	ldw	r17,4(sp)
   459d4:	dc000017 	ldw	r16,0(sp)
   459d8:	dec00404 	addi	sp,sp,16
   459dc:	f800283a 	ret
   459e0:	8009883a 	mov	r4,r16
   459e4:	01400174 	movhi	r5,5
   459e8:	2974fc04 	addi	r5,r5,-11280
   459ec:	004807c0 	call	4807c <strcmp>
   459f0:	103ff126 	beq	r2,zero,459b8 <_setlocale_r+0x38>
   459f4:	0005883a 	mov	r2,zero
   459f8:	003ff306 	br	459c8 <_setlocale_r+0x48>
   459fc:	00800174 	movhi	r2,5
   45a00:	10b4f204 	addi	r2,r2,-11320
   45a04:	dfc00317 	ldw	ra,12(sp)
   45a08:	dc800217 	ldw	r18,8(sp)
   45a0c:	dc400117 	ldw	r17,4(sp)
   45a10:	dc000017 	ldw	r16,0(sp)
   45a14:	dec00404 	addi	sp,sp,16
   45a18:	f800283a 	ret

00045a1c <__locale_charset>:
   45a1c:	00800174 	movhi	r2,5
   45a20:	10b51104 	addi	r2,r2,-11196
   45a24:	f800283a 	ret

00045a28 <_localeconv_r>:
   45a28:	00800174 	movhi	r2,5
   45a2c:	10b51504 	addi	r2,r2,-11180
   45a30:	f800283a 	ret

00045a34 <setlocale>:
   45a34:	00c00174 	movhi	r3,5
   45a38:	18fc4204 	addi	r3,r3,-3832
   45a3c:	2005883a 	mov	r2,r4
   45a40:	19000017 	ldw	r4,0(r3)
   45a44:	280d883a 	mov	r6,r5
   45a48:	100b883a 	mov	r5,r2
   45a4c:	00459801 	jmpi	45980 <_setlocale_r>

00045a50 <localeconv>:
   45a50:	00800174 	movhi	r2,5
   45a54:	10b51504 	addi	r2,r2,-11180
   45a58:	f800283a 	ret

00045a5c <__smakebuf_r>:
   45a5c:	2880030b 	ldhu	r2,12(r5)
   45a60:	deffed04 	addi	sp,sp,-76
   45a64:	dc401015 	stw	r17,64(sp)
   45a68:	10c0008c 	andi	r3,r2,2
   45a6c:	18ffffcc 	andi	r3,r3,65535
   45a70:	18e0001c 	xori	r3,r3,32768
   45a74:	dc000f15 	stw	r16,60(sp)
   45a78:	dfc01215 	stw	ra,72(sp)
   45a7c:	dc801115 	stw	r18,68(sp)
   45a80:	18e00004 	addi	r3,r3,-32768
   45a84:	2821883a 	mov	r16,r5
   45a88:	2023883a 	mov	r17,r4
   45a8c:	1800381e 	bne	r3,zero,45b70 <__smakebuf_r+0x114>
   45a90:	2940038f 	ldh	r5,14(r5)
   45a94:	28002d16 	blt	r5,zero,45b4c <__smakebuf_r+0xf0>
   45a98:	d80d883a 	mov	r6,sp
   45a9c:	004840c0 	call	4840c <_fstat_r>
   45aa0:	10002916 	blt	r2,zero,45b48 <__smakebuf_r+0xec>
   45aa4:	d8800117 	ldw	r2,4(sp)
   45aa8:	00e00014 	movui	r3,32768
   45aac:	10bc000c 	andi	r2,r2,61440
   45ab0:	10c03c26 	beq	r2,r3,45ba4 <__smakebuf_r+0x148>
   45ab4:	80c0030b 	ldhu	r3,12(r16)
   45ab8:	18c20014 	ori	r3,r3,2048
   45abc:	80c0030d 	sth	r3,12(r16)
   45ac0:	00c80004 	movi	r3,8192
   45ac4:	10c00c1e 	bne	r2,r3,45af8 <__smakebuf_r+0x9c>
   45ac8:	8140038f 	ldh	r5,14(r16)
   45acc:	8809883a 	mov	r4,r17
   45ad0:	00484740 	call	48474 <_isatty_r>
   45ad4:	10000826 	beq	r2,zero,45af8 <__smakebuf_r+0x9c>
   45ad8:	80c0030b 	ldhu	r3,12(r16)
   45adc:	808010c4 	addi	r2,r16,67
   45ae0:	80800015 	stw	r2,0(r16)
   45ae4:	18c00054 	ori	r3,r3,1
   45ae8:	80800415 	stw	r2,16(r16)
   45aec:	00800044 	movi	r2,1
   45af0:	80c0030d 	sth	r3,12(r16)
   45af4:	80800515 	stw	r2,20(r16)
   45af8:	04810004 	movi	r18,1024
   45afc:	8809883a 	mov	r4,r17
   45b00:	900b883a 	mov	r5,r18
   45b04:	0045c040 	call	45c04 <_malloc_r>
   45b08:	10003026 	beq	r2,zero,45bcc <__smakebuf_r+0x170>
   45b0c:	80c0030b 	ldhu	r3,12(r16)
   45b10:	01000134 	movhi	r4,4
   45b14:	21131504 	addi	r4,r4,19540
   45b18:	89000f15 	stw	r4,60(r17)
   45b1c:	18c02014 	ori	r3,r3,128
   45b20:	80c0030d 	sth	r3,12(r16)
   45b24:	80800015 	stw	r2,0(r16)
   45b28:	80800415 	stw	r2,16(r16)
   45b2c:	84800515 	stw	r18,20(r16)
   45b30:	dfc01217 	ldw	ra,72(sp)
   45b34:	dc801117 	ldw	r18,68(sp)
   45b38:	dc401017 	ldw	r17,64(sp)
   45b3c:	dc000f17 	ldw	r16,60(sp)
   45b40:	dec01304 	addi	sp,sp,76
   45b44:	f800283a 	ret
   45b48:	8080030b 	ldhu	r2,12(r16)
   45b4c:	10c0200c 	andi	r3,r2,128
   45b50:	18ffffcc 	andi	r3,r3,65535
   45b54:	18e0001c 	xori	r3,r3,32768
   45b58:	18e00004 	addi	r3,r3,-32768
   45b5c:	18000f1e 	bne	r3,zero,45b9c <__smakebuf_r+0x140>
   45b60:	04810004 	movi	r18,1024
   45b64:	10820014 	ori	r2,r2,2048
   45b68:	8080030d 	sth	r2,12(r16)
   45b6c:	003fe306 	br	45afc <__smakebuf_r+0xa0>
   45b70:	288010c4 	addi	r2,r5,67
   45b74:	28800015 	stw	r2,0(r5)
   45b78:	28800415 	stw	r2,16(r5)
   45b7c:	00800044 	movi	r2,1
   45b80:	28800515 	stw	r2,20(r5)
   45b84:	dfc01217 	ldw	ra,72(sp)
   45b88:	dc801117 	ldw	r18,68(sp)
   45b8c:	dc401017 	ldw	r17,64(sp)
   45b90:	dc000f17 	ldw	r16,60(sp)
   45b94:	dec01304 	addi	sp,sp,76
   45b98:	f800283a 	ret
   45b9c:	04801004 	movi	r18,64
   45ba0:	003ff006 	br	45b64 <__smakebuf_r+0x108>
   45ba4:	81000a17 	ldw	r4,40(r16)
   45ba8:	00c00174 	movhi	r3,5
   45bac:	18e00604 	addi	r3,r3,-32744
   45bb0:	20ffc01e 	bne	r4,r3,45ab4 <__smakebuf_r+0x58>
   45bb4:	8080030b 	ldhu	r2,12(r16)
   45bb8:	00c10004 	movi	r3,1024
   45bbc:	80c01315 	stw	r3,76(r16)
   45bc0:	10c4b03a 	or	r2,r2,r3
   45bc4:	8080030d 	sth	r2,12(r16)
   45bc8:	003fcb06 	br	45af8 <__smakebuf_r+0x9c>
   45bcc:	8080030b 	ldhu	r2,12(r16)
   45bd0:	10c0800c 	andi	r3,r2,512
   45bd4:	18ffffcc 	andi	r3,r3,65535
   45bd8:	18e0001c 	xori	r3,r3,32768
   45bdc:	18e00004 	addi	r3,r3,-32768
   45be0:	183fd31e 	bne	r3,zero,45b30 <__smakebuf_r+0xd4>
   45be4:	10800094 	ori	r2,r2,2
   45be8:	80c010c4 	addi	r3,r16,67
   45bec:	8080030d 	sth	r2,12(r16)
   45bf0:	00800044 	movi	r2,1
   45bf4:	80c00015 	stw	r3,0(r16)
   45bf8:	80c00415 	stw	r3,16(r16)
   45bfc:	80800515 	stw	r2,20(r16)
   45c00:	003fcb06 	br	45b30 <__smakebuf_r+0xd4>

00045c04 <_malloc_r>:
   45c04:	defff604 	addi	sp,sp,-40
   45c08:	dc800215 	stw	r18,8(sp)
   45c0c:	dfc00915 	stw	ra,36(sp)
   45c10:	df000815 	stw	fp,32(sp)
   45c14:	ddc00715 	stw	r23,28(sp)
   45c18:	dd800615 	stw	r22,24(sp)
   45c1c:	dd400515 	stw	r21,20(sp)
   45c20:	dd000415 	stw	r20,16(sp)
   45c24:	dcc00315 	stw	r19,12(sp)
   45c28:	dc400115 	stw	r17,4(sp)
   45c2c:	dc000015 	stw	r16,0(sp)
   45c30:	288002c4 	addi	r2,r5,11
   45c34:	00c00584 	movi	r3,22
   45c38:	2025883a 	mov	r18,r4
   45c3c:	18802b2e 	bgeu	r3,r2,45cec <_malloc_r+0xe8>
   45c40:	047ffe04 	movi	r17,-8
   45c44:	1462703a 	and	r17,r2,r17
   45c48:	88002a16 	blt	r17,zero,45cf4 <_malloc_r+0xf0>
   45c4c:	89402936 	bltu	r17,r5,45cf4 <_malloc_r+0xf0>
   45c50:	9009883a 	mov	r4,r18
   45c54:	004aba40 	call	4aba4 <__malloc_lock>
   45c58:	00807dc4 	movi	r2,503
   45c5c:	14402936 	bltu	r2,r17,45d04 <_malloc_r+0x100>
   45c60:	8808d0fa 	srli	r4,r17,3
   45c64:	04c00174 	movhi	r19,5
   45c68:	9cf6bd04 	addi	r19,r19,-9484
   45c6c:	2105883a 	add	r2,r4,r4
   45c70:	1085883a 	add	r2,r2,r2
   45c74:	1085883a 	add	r2,r2,r2
   45c78:	9885883a 	add	r2,r19,r2
   45c7c:	14000317 	ldw	r16,12(r2)
   45c80:	80815526 	beq	r16,r2,461d8 <_malloc_r+0x5d4>
   45c84:	81000117 	ldw	r4,4(r16)
   45c88:	00bfff04 	movi	r2,-4
   45c8c:	80c00317 	ldw	r3,12(r16)
   45c90:	2084703a 	and	r2,r4,r2
   45c94:	8085883a 	add	r2,r16,r2
   45c98:	11800117 	ldw	r6,4(r2)
   45c9c:	81400217 	ldw	r5,8(r16)
   45ca0:	9009883a 	mov	r4,r18
   45ca4:	31800054 	ori	r6,r6,1
   45ca8:	11800115 	stw	r6,4(r2)
   45cac:	28c00315 	stw	r3,12(r5)
   45cb0:	19400215 	stw	r5,8(r3)
   45cb4:	004abc40 	call	4abc4 <__malloc_unlock>
   45cb8:	80800204 	addi	r2,r16,8
   45cbc:	dfc00917 	ldw	ra,36(sp)
   45cc0:	df000817 	ldw	fp,32(sp)
   45cc4:	ddc00717 	ldw	r23,28(sp)
   45cc8:	dd800617 	ldw	r22,24(sp)
   45ccc:	dd400517 	ldw	r21,20(sp)
   45cd0:	dd000417 	ldw	r20,16(sp)
   45cd4:	dcc00317 	ldw	r19,12(sp)
   45cd8:	dc800217 	ldw	r18,8(sp)
   45cdc:	dc400117 	ldw	r17,4(sp)
   45ce0:	dc000017 	ldw	r16,0(sp)
   45ce4:	dec00a04 	addi	sp,sp,40
   45ce8:	f800283a 	ret
   45cec:	04400404 	movi	r17,16
   45cf0:	897fd72e 	bgeu	r17,r5,45c50 <_malloc_r+0x4c>
   45cf4:	00800304 	movi	r2,12
   45cf8:	90800015 	stw	r2,0(r18)
   45cfc:	0005883a 	mov	r2,zero
   45d00:	003fee06 	br	45cbc <_malloc_r+0xb8>
   45d04:	8808d27a 	srli	r4,r17,9
   45d08:	20007126 	beq	r4,zero,45ed0 <_malloc_r+0x2cc>
   45d0c:	00800104 	movi	r2,4
   45d10:	1100eb36 	bltu	r2,r4,460c0 <_malloc_r+0x4bc>
   45d14:	8808d1ba 	srli	r4,r17,6
   45d18:	21000e04 	addi	r4,r4,56
   45d1c:	210b883a 	add	r5,r4,r4
   45d20:	294b883a 	add	r5,r5,r5
   45d24:	294b883a 	add	r5,r5,r5
   45d28:	04c00174 	movhi	r19,5
   45d2c:	9cf6bd04 	addi	r19,r19,-9484
   45d30:	994b883a 	add	r5,r19,r5
   45d34:	2c000317 	ldw	r16,12(r5)
   45d38:	2c000e26 	beq	r5,r16,45d74 <_malloc_r+0x170>
   45d3c:	80c00117 	ldw	r3,4(r16)
   45d40:	01ffff04 	movi	r7,-4
   45d44:	018003c4 	movi	r6,15
   45d48:	19c6703a 	and	r3,r3,r7
   45d4c:	1c45c83a 	sub	r2,r3,r17
   45d50:	30800716 	blt	r6,r2,45d70 <_malloc_r+0x16c>
   45d54:	1000610e 	bge	r2,zero,45edc <_malloc_r+0x2d8>
   45d58:	84000317 	ldw	r16,12(r16)
   45d5c:	2c000526 	beq	r5,r16,45d74 <_malloc_r+0x170>
   45d60:	80c00117 	ldw	r3,4(r16)
   45d64:	19c6703a 	and	r3,r3,r7
   45d68:	1c45c83a 	sub	r2,r3,r17
   45d6c:	30bff90e 	bge	r6,r2,45d54 <_malloc_r+0x150>
   45d70:	213fffc4 	addi	r4,r4,-1
   45d74:	21000044 	addi	r4,r4,1
   45d78:	9c000417 	ldw	r16,16(r19)
   45d7c:	00c00174 	movhi	r3,5
   45d80:	18f6bd04 	addi	r3,r3,-9484
   45d84:	1a400204 	addi	r9,r3,8
   45d88:	8240ff26 	beq	r16,r9,46188 <_malloc_r+0x584>
   45d8c:	81400117 	ldw	r5,4(r16)
   45d90:	00bfff04 	movi	r2,-4
   45d94:	018003c4 	movi	r6,15
   45d98:	2884703a 	and	r2,r5,r2
   45d9c:	144bc83a 	sub	r5,r2,r17
   45da0:	3140ea16 	blt	r6,r5,4614c <_malloc_r+0x548>
   45da4:	1a400515 	stw	r9,20(r3)
   45da8:	1a400415 	stw	r9,16(r3)
   45dac:	2800570e 	bge	r5,zero,45f0c <_malloc_r+0x308>
   45db0:	01407fc4 	movi	r5,511
   45db4:	2880ca36 	bltu	r5,r2,460e0 <_malloc_r+0x4dc>
   45db8:	1004d0fa 	srli	r2,r2,3
   45dbc:	02000044 	movi	r8,1
   45dc0:	19c00117 	ldw	r7,4(r3)
   45dc4:	108b883a 	add	r5,r2,r2
   45dc8:	294b883a 	add	r5,r5,r5
   45dcc:	1005d0ba 	srai	r2,r2,2
   45dd0:	294b883a 	add	r5,r5,r5
   45dd4:	28cb883a 	add	r5,r5,r3
   45dd8:	29800217 	ldw	r6,8(r5)
   45ddc:	4084983a 	sll	r2,r8,r2
   45de0:	81400315 	stw	r5,12(r16)
   45de4:	81800215 	stw	r6,8(r16)
   45de8:	11c4b03a 	or	r2,r2,r7
   45dec:	18800115 	stw	r2,4(r3)
   45df0:	2c000215 	stw	r16,8(r5)
   45df4:	34000315 	stw	r16,12(r6)
   45df8:	200bd0ba 	srai	r5,r4,2
   45dfc:	00c00044 	movi	r3,1
   45e00:	194a983a 	sll	r5,r3,r5
   45e04:	11404936 	bltu	r2,r5,45f2c <_malloc_r+0x328>
   45e08:	1146703a 	and	r3,r2,r5
   45e0c:	18000a1e 	bne	r3,zero,45e38 <_malloc_r+0x234>
   45e10:	00ffff04 	movi	r3,-4
   45e14:	294b883a 	add	r5,r5,r5
   45e18:	20c8703a 	and	r4,r4,r3
   45e1c:	1146703a 	and	r3,r2,r5
   45e20:	21000104 	addi	r4,r4,4
   45e24:	1800041e 	bne	r3,zero,45e38 <_malloc_r+0x234>
   45e28:	294b883a 	add	r5,r5,r5
   45e2c:	1146703a 	and	r3,r2,r5
   45e30:	21000104 	addi	r4,r4,4
   45e34:	183ffc26 	beq	r3,zero,45e28 <_malloc_r+0x224>
   45e38:	023fff04 	movi	r8,-4
   45e3c:	01c003c4 	movi	r7,15
   45e40:	2105883a 	add	r2,r4,r4
   45e44:	1085883a 	add	r2,r2,r2
   45e48:	1085883a 	add	r2,r2,r2
   45e4c:	9899883a 	add	r12,r19,r2
   45e50:	62800304 	addi	r10,r12,12
   45e54:	2017883a 	mov	r11,r4
   45e58:	54000017 	ldw	r16,0(r10)
   45e5c:	51bffd04 	addi	r6,r10,-12
   45e60:	8180041e 	bne	r16,r6,45e74 <_malloc_r+0x270>
   45e64:	0000ca06 	br	46190 <_malloc_r+0x58c>
   45e68:	10001c0e 	bge	r2,zero,45edc <_malloc_r+0x2d8>
   45e6c:	84000317 	ldw	r16,12(r16)
   45e70:	8180c726 	beq	r16,r6,46190 <_malloc_r+0x58c>
   45e74:	80c00117 	ldw	r3,4(r16)
   45e78:	1a06703a 	and	r3,r3,r8
   45e7c:	1c45c83a 	sub	r2,r3,r17
   45e80:	38bff90e 	bge	r7,r2,45e68 <_malloc_r+0x264>
   45e84:	81000317 	ldw	r4,12(r16)
   45e88:	81400217 	ldw	r5,8(r16)
   45e8c:	8447883a 	add	r3,r16,r17
   45e90:	8c400054 	ori	r17,r17,1
   45e94:	29000315 	stw	r4,12(r5)
   45e98:	21400215 	stw	r5,8(r4)
   45e9c:	84400115 	stw	r17,4(r16)
   45ea0:	1889883a 	add	r4,r3,r2
   45ea4:	11400054 	ori	r5,r2,1
   45ea8:	98c00515 	stw	r3,20(r19)
   45eac:	98c00415 	stw	r3,16(r19)
   45eb0:	20800015 	stw	r2,0(r4)
   45eb4:	1a400315 	stw	r9,12(r3)
   45eb8:	1a400215 	stw	r9,8(r3)
   45ebc:	19400115 	stw	r5,4(r3)
   45ec0:	9009883a 	mov	r4,r18
   45ec4:	004abc40 	call	4abc4 <__malloc_unlock>
   45ec8:	80800204 	addi	r2,r16,8
   45ecc:	003f7b06 	br	45cbc <_malloc_r+0xb8>
   45ed0:	8808d0fa 	srli	r4,r17,3
   45ed4:	210b883a 	add	r5,r4,r4
   45ed8:	003f9106 	br	45d20 <_malloc_r+0x11c>
   45edc:	80c7883a 	add	r3,r16,r3
   45ee0:	19400117 	ldw	r5,4(r3)
   45ee4:	80800317 	ldw	r2,12(r16)
   45ee8:	81000217 	ldw	r4,8(r16)
   45eec:	29400054 	ori	r5,r5,1
   45ef0:	19400115 	stw	r5,4(r3)
   45ef4:	20800315 	stw	r2,12(r4)
   45ef8:	11000215 	stw	r4,8(r2)
   45efc:	9009883a 	mov	r4,r18
   45f00:	004abc40 	call	4abc4 <__malloc_unlock>
   45f04:	80800204 	addi	r2,r16,8
   45f08:	003f6c06 	br	45cbc <_malloc_r+0xb8>
   45f0c:	8085883a 	add	r2,r16,r2
   45f10:	10c00117 	ldw	r3,4(r2)
   45f14:	9009883a 	mov	r4,r18
   45f18:	18c00054 	ori	r3,r3,1
   45f1c:	10c00115 	stw	r3,4(r2)
   45f20:	004abc40 	call	4abc4 <__malloc_unlock>
   45f24:	80800204 	addi	r2,r16,8
   45f28:	003f6406 	br	45cbc <_malloc_r+0xb8>
   45f2c:	9c000217 	ldw	r16,8(r19)
   45f30:	00bfff04 	movi	r2,-4
   45f34:	85400117 	ldw	r21,4(r16)
   45f38:	a8aa703a 	and	r21,r21,r2
   45f3c:	ac400336 	bltu	r21,r17,45f4c <_malloc_r+0x348>
   45f40:	ac45c83a 	sub	r2,r21,r17
   45f44:	00c003c4 	movi	r3,15
   45f48:	18805316 	blt	r3,r2,46098 <_malloc_r+0x494>
   45f4c:	d5e6aa17 	ldw	r23,-25944(gp)
   45f50:	d0e00317 	ldw	r3,-32756(gp)
   45f54:	00bfffc4 	movi	r2,-1
   45f58:	8579883a 	add	fp,r16,r21
   45f5c:	8def883a 	add	r23,r17,r23
   45f60:	1880d226 	beq	r3,r2,462ac <_malloc_r+0x6a8>
   45f64:	bdc403c4 	addi	r23,r23,4111
   45f68:	00bc0004 	movi	r2,-4096
   45f6c:	b8ae703a 	and	r23,r23,r2
   45f70:	9009883a 	mov	r4,r18
   45f74:	b80b883a 	mov	r5,r23
   45f78:	0047ed80 	call	47ed8 <_sbrk_r>
   45f7c:	1029883a 	mov	r20,r2
   45f80:	00bfffc4 	movi	r2,-1
   45f84:	a080d126 	beq	r20,r2,462cc <_malloc_r+0x6c8>
   45f88:	a7009f36 	bltu	r20,fp,46208 <_malloc_r+0x604>
   45f8c:	05800174 	movhi	r22,5
   45f90:	b582f504 	addi	r22,r22,3028
   45f94:	b0800017 	ldw	r2,0(r22)
   45f98:	b885883a 	add	r2,r23,r2
   45f9c:	b0800015 	stw	r2,0(r22)
   45fa0:	e500cf26 	beq	fp,r20,462e0 <_malloc_r+0x6dc>
   45fa4:	d1200317 	ldw	r4,-32756(gp)
   45fa8:	00ffffc4 	movi	r3,-1
   45fac:	20c0e026 	beq	r4,r3,46330 <_malloc_r+0x72c>
   45fb0:	a739c83a 	sub	fp,r20,fp
   45fb4:	1705883a 	add	r2,r2,fp
   45fb8:	b0800015 	stw	r2,0(r22)
   45fbc:	a08001cc 	andi	r2,r20,7
   45fc0:	1000a526 	beq	r2,zero,46258 <_malloc_r+0x654>
   45fc4:	a0a9c83a 	sub	r20,r20,r2
   45fc8:	00c40204 	movi	r3,4104
   45fcc:	a5000204 	addi	r20,r20,8
   45fd0:	1885c83a 	sub	r2,r3,r2
   45fd4:	a5c7883a 	add	r3,r20,r23
   45fd8:	18c3ffcc 	andi	r3,r3,4095
   45fdc:	10efc83a 	sub	r23,r2,r3
   45fe0:	9009883a 	mov	r4,r18
   45fe4:	b80b883a 	mov	r5,r23
   45fe8:	0047ed80 	call	47ed8 <_sbrk_r>
   45fec:	00ffffc4 	movi	r3,-1
   45ff0:	10c0cc26 	beq	r2,r3,46324 <_malloc_r+0x720>
   45ff4:	1505c83a 	sub	r2,r2,r20
   45ff8:	b887883a 	add	r3,r23,r2
   45ffc:	18c00054 	ori	r3,r3,1
   46000:	b0800017 	ldw	r2,0(r22)
   46004:	9d000215 	stw	r20,8(r19)
   46008:	a0c00115 	stw	r3,4(r20)
   4600c:	b885883a 	add	r2,r23,r2
   46010:	b0800015 	stw	r2,0(r22)
   46014:	84c00e26 	beq	r16,r19,46050 <_malloc_r+0x44c>
   46018:	00c003c4 	movi	r3,15
   4601c:	1d40902e 	bgeu	r3,r21,46260 <_malloc_r+0x65c>
   46020:	ad7ffd04 	addi	r21,r21,-12
   46024:	013ffe04 	movi	r4,-8
   46028:	a908703a 	and	r4,r21,r4
   4602c:	810b883a 	add	r5,r16,r4
   46030:	01800144 	movi	r6,5
   46034:	29800115 	stw	r6,4(r5)
   46038:	29800215 	stw	r6,8(r5)
   4603c:	81400117 	ldw	r5,4(r16)
   46040:	2940004c 	andi	r5,r5,1
   46044:	214ab03a 	or	r5,r4,r5
   46048:	81400115 	stw	r5,4(r16)
   4604c:	1900ae36 	bltu	r3,r4,46308 <_malloc_r+0x704>
   46050:	d0e6a917 	ldw	r3,-25948(gp)
   46054:	1880012e 	bgeu	r3,r2,4605c <_malloc_r+0x458>
   46058:	d0a6a915 	stw	r2,-25948(gp)
   4605c:	d0e6a817 	ldw	r3,-25952(gp)
   46060:	9c000217 	ldw	r16,8(r19)
   46064:	1880012e 	bgeu	r3,r2,4606c <_malloc_r+0x468>
   46068:	d0a6a815 	stw	r2,-25952(gp)
   4606c:	80c00117 	ldw	r3,4(r16)
   46070:	00bfff04 	movi	r2,-4
   46074:	1886703a 	and	r3,r3,r2
   46078:	1c45c83a 	sub	r2,r3,r17
   4607c:	1c400236 	bltu	r3,r17,46088 <_malloc_r+0x484>
   46080:	00c003c4 	movi	r3,15
   46084:	18800416 	blt	r3,r2,46098 <_malloc_r+0x494>
   46088:	9009883a 	mov	r4,r18
   4608c:	004abc40 	call	4abc4 <__malloc_unlock>
   46090:	0005883a 	mov	r2,zero
   46094:	003f0906 	br	45cbc <_malloc_r+0xb8>
   46098:	88c00054 	ori	r3,r17,1
   4609c:	10800054 	ori	r2,r2,1
   460a0:	80c00115 	stw	r3,4(r16)
   460a4:	8463883a 	add	r17,r16,r17
   460a8:	88800115 	stw	r2,4(r17)
   460ac:	9009883a 	mov	r4,r18
   460b0:	9c400215 	stw	r17,8(r19)
   460b4:	004abc40 	call	4abc4 <__malloc_unlock>
   460b8:	80800204 	addi	r2,r16,8
   460bc:	003eff06 	br	45cbc <_malloc_r+0xb8>
   460c0:	00800504 	movi	r2,20
   460c4:	1100492e 	bgeu	r2,r4,461ec <_malloc_r+0x5e8>
   460c8:	00801504 	movi	r2,84
   460cc:	11005c36 	bltu	r2,r4,46240 <_malloc_r+0x63c>
   460d0:	8808d33a 	srli	r4,r17,12
   460d4:	21001b84 	addi	r4,r4,110
   460d8:	210b883a 	add	r5,r4,r4
   460dc:	003f1006 	br	45d20 <_malloc_r+0x11c>
   460e0:	1006d27a 	srli	r3,r2,9
   460e4:	01400104 	movi	r5,4
   460e8:	28c0432e 	bgeu	r5,r3,461f8 <_malloc_r+0x5f4>
   460ec:	01400504 	movi	r5,20
   460f0:	28c07036 	bltu	r5,r3,462b4 <_malloc_r+0x6b0>
   460f4:	194016c4 	addi	r5,r3,91
   460f8:	294d883a 	add	r6,r5,r5
   460fc:	318d883a 	add	r6,r6,r6
   46100:	318d883a 	add	r6,r6,r6
   46104:	998d883a 	add	r6,r19,r6
   46108:	30c00217 	ldw	r3,8(r6)
   4610c:	01c00174 	movhi	r7,5
   46110:	39f6bd04 	addi	r7,r7,-9484
   46114:	19805726 	beq	r3,r6,46274 <_malloc_r+0x670>
   46118:	01ffff04 	movi	r7,-4
   4611c:	19400117 	ldw	r5,4(r3)
   46120:	29ca703a 	and	r5,r5,r7
   46124:	1140022e 	bgeu	r2,r5,46130 <_malloc_r+0x52c>
   46128:	18c00217 	ldw	r3,8(r3)
   4612c:	30fffb1e 	bne	r6,r3,4611c <_malloc_r+0x518>
   46130:	19400317 	ldw	r5,12(r3)
   46134:	98800117 	ldw	r2,4(r19)
   46138:	81400315 	stw	r5,12(r16)
   4613c:	80c00215 	stw	r3,8(r16)
   46140:	2c000215 	stw	r16,8(r5)
   46144:	1c000315 	stw	r16,12(r3)
   46148:	003f2b06 	br	45df8 <_malloc_r+0x1f4>
   4614c:	8445883a 	add	r2,r16,r17
   46150:	8c400054 	ori	r17,r17,1
   46154:	18800515 	stw	r2,20(r3)
   46158:	18800415 	stw	r2,16(r3)
   4615c:	29000054 	ori	r4,r5,1
   46160:	1147883a 	add	r3,r2,r5
   46164:	84400115 	stw	r17,4(r16)
   46168:	11000115 	stw	r4,4(r2)
   4616c:	12400315 	stw	r9,12(r2)
   46170:	12400215 	stw	r9,8(r2)
   46174:	19400015 	stw	r5,0(r3)
   46178:	9009883a 	mov	r4,r18
   4617c:	004abc40 	call	4abc4 <__malloc_unlock>
   46180:	80800204 	addi	r2,r16,8
   46184:	003ecd06 	br	45cbc <_malloc_r+0xb8>
   46188:	18800117 	ldw	r2,4(r3)
   4618c:	003f1a06 	br	45df8 <_malloc_r+0x1f4>
   46190:	5ac00044 	addi	r11,r11,1
   46194:	588000cc 	andi	r2,r11,3
   46198:	52800204 	addi	r10,r10,8
   4619c:	103f2e1e 	bne	r2,zero,45e58 <_malloc_r+0x254>
   461a0:	20c000cc 	andi	r3,r4,3
   461a4:	60bffe04 	addi	r2,r12,-8
   461a8:	18006f26 	beq	r3,zero,46368 <_malloc_r+0x764>
   461ac:	63000017 	ldw	r12,0(r12)
   461b0:	213fffc4 	addi	r4,r4,-1
   461b4:	60bffa26 	beq	r12,r2,461a0 <_malloc_r+0x59c>
   461b8:	98800117 	ldw	r2,4(r19)
   461bc:	294b883a 	add	r5,r5,r5
   461c0:	117f5a36 	bltu	r2,r5,45f2c <_malloc_r+0x328>
   461c4:	283f5926 	beq	r5,zero,45f2c <_malloc_r+0x328>
   461c8:	1146703a 	and	r3,r2,r5
   461cc:	18001626 	beq	r3,zero,46228 <_malloc_r+0x624>
   461d0:	5809883a 	mov	r4,r11
   461d4:	003f1a06 	br	45e40 <_malloc_r+0x23c>
   461d8:	80800204 	addi	r2,r16,8
   461dc:	84000517 	ldw	r16,20(r16)
   461e0:	143ea81e 	bne	r2,r16,45c84 <_malloc_r+0x80>
   461e4:	21000084 	addi	r4,r4,2
   461e8:	003ee306 	br	45d78 <_malloc_r+0x174>
   461ec:	210016c4 	addi	r4,r4,91
   461f0:	210b883a 	add	r5,r4,r4
   461f4:	003eca06 	br	45d20 <_malloc_r+0x11c>
   461f8:	100ad1ba 	srli	r5,r2,6
   461fc:	29400e04 	addi	r5,r5,56
   46200:	294d883a 	add	r6,r5,r5
   46204:	003fbd06 	br	460fc <_malloc_r+0x4f8>
   46208:	84ff6026 	beq	r16,r19,45f8c <_malloc_r+0x388>
   4620c:	00800174 	movhi	r2,5
   46210:	10b6bd04 	addi	r2,r2,-9484
   46214:	14000217 	ldw	r16,8(r2)
   46218:	00bfff04 	movi	r2,-4
   4621c:	80c00117 	ldw	r3,4(r16)
   46220:	1886703a 	and	r3,r3,r2
   46224:	003f9406 	br	46078 <_malloc_r+0x474>
   46228:	294b883a 	add	r5,r5,r5
   4622c:	1146703a 	and	r3,r2,r5
   46230:	5ac00104 	addi	r11,r11,4
   46234:	183ffc26 	beq	r3,zero,46228 <_malloc_r+0x624>
   46238:	5809883a 	mov	r4,r11
   4623c:	003f0006 	br	45e40 <_malloc_r+0x23c>
   46240:	00805504 	movi	r2,340
   46244:	11001336 	bltu	r2,r4,46294 <_malloc_r+0x690>
   46248:	8808d3fa 	srli	r4,r17,15
   4624c:	21001dc4 	addi	r4,r4,119
   46250:	210b883a 	add	r5,r4,r4
   46254:	003eb206 	br	45d20 <_malloc_r+0x11c>
   46258:	00840004 	movi	r2,4096
   4625c:	003f5d06 	br	45fd4 <_malloc_r+0x3d0>
   46260:	00800044 	movi	r2,1
   46264:	a0800115 	stw	r2,4(r20)
   46268:	a021883a 	mov	r16,r20
   4626c:	0007883a 	mov	r3,zero
   46270:	003f8106 	br	46078 <_malloc_r+0x474>
   46274:	280bd0ba 	srai	r5,r5,2
   46278:	01800044 	movi	r6,1
   4627c:	38800117 	ldw	r2,4(r7)
   46280:	314c983a 	sll	r6,r6,r5
   46284:	180b883a 	mov	r5,r3
   46288:	3084b03a 	or	r2,r6,r2
   4628c:	38800115 	stw	r2,4(r7)
   46290:	003fa906 	br	46138 <_malloc_r+0x534>
   46294:	00815504 	movi	r2,1364
   46298:	11001836 	bltu	r2,r4,462fc <_malloc_r+0x6f8>
   4629c:	8808d4ba 	srli	r4,r17,18
   462a0:	21001f04 	addi	r4,r4,124
   462a4:	210b883a 	add	r5,r4,r4
   462a8:	003e9d06 	br	45d20 <_malloc_r+0x11c>
   462ac:	bdc00404 	addi	r23,r23,16
   462b0:	003f2f06 	br	45f70 <_malloc_r+0x36c>
   462b4:	01401504 	movi	r5,84
   462b8:	28c01f36 	bltu	r5,r3,46338 <_malloc_r+0x734>
   462bc:	100ad33a 	srli	r5,r2,12
   462c0:	29401b84 	addi	r5,r5,110
   462c4:	294d883a 	add	r6,r5,r5
   462c8:	003f8c06 	br	460fc <_malloc_r+0x4f8>
   462cc:	9c000217 	ldw	r16,8(r19)
   462d0:	00bfff04 	movi	r2,-4
   462d4:	80c00117 	ldw	r3,4(r16)
   462d8:	1886703a 	and	r3,r3,r2
   462dc:	003f6606 	br	46078 <_malloc_r+0x474>
   462e0:	e0c3ffcc 	andi	r3,fp,4095
   462e4:	183f2f1e 	bne	r3,zero,45fa4 <_malloc_r+0x3a0>
   462e8:	98c00217 	ldw	r3,8(r19)
   462ec:	bd49883a 	add	r4,r23,r21
   462f0:	21000054 	ori	r4,r4,1
   462f4:	19000115 	stw	r4,4(r3)
   462f8:	003f5506 	br	46050 <_malloc_r+0x44c>
   462fc:	01403f04 	movi	r5,252
   46300:	01001f84 	movi	r4,126
   46304:	003e8606 	br	45d20 <_malloc_r+0x11c>
   46308:	9009883a 	mov	r4,r18
   4630c:	81400204 	addi	r5,r16,8
   46310:	004506c0 	call	4506c <_free_r>
   46314:	00800174 	movhi	r2,5
   46318:	1082f504 	addi	r2,r2,3028
   4631c:	10800017 	ldw	r2,0(r2)
   46320:	003f4b06 	br	46050 <_malloc_r+0x44c>
   46324:	00c00044 	movi	r3,1
   46328:	002f883a 	mov	r23,zero
   4632c:	003f3406 	br	46000 <_malloc_r+0x3fc>
   46330:	d5200315 	stw	r20,-32756(gp)
   46334:	003f2106 	br	45fbc <_malloc_r+0x3b8>
   46338:	01405504 	movi	r5,340
   4633c:	28c00436 	bltu	r5,r3,46350 <_malloc_r+0x74c>
   46340:	100ad3fa 	srli	r5,r2,15
   46344:	29401dc4 	addi	r5,r5,119
   46348:	294d883a 	add	r6,r5,r5
   4634c:	003f6b06 	br	460fc <_malloc_r+0x4f8>
   46350:	01415504 	movi	r5,1364
   46354:	28c00936 	bltu	r5,r3,4637c <_malloc_r+0x778>
   46358:	100ad4ba 	srli	r5,r2,18
   4635c:	29401f04 	addi	r5,r5,124
   46360:	294d883a 	add	r6,r5,r5
   46364:	003f6506 	br	460fc <_malloc_r+0x4f8>
   46368:	98800117 	ldw	r2,4(r19)
   4636c:	0146303a 	nor	r3,zero,r5
   46370:	1884703a 	and	r2,r3,r2
   46374:	98800115 	stw	r2,4(r19)
   46378:	003f9006 	br	461bc <_malloc_r+0x5b8>
   4637c:	01803f04 	movi	r6,252
   46380:	01401f84 	movi	r5,126
   46384:	003f5d06 	br	460fc <_malloc_r+0x4f8>

00046388 <memchr>:
   46388:	008000c4 	movi	r2,3
   4638c:	29403fcc 	andi	r5,r5,255
   46390:	1180282e 	bgeu	r2,r6,46434 <memchr+0xac>
   46394:	2086703a 	and	r3,r4,r2
   46398:	1800351e 	bne	r3,zero,46470 <memchr+0xe8>
   4639c:	2816923a 	slli	r11,r5,8
   463a0:	2093883a 	add	r9,r4,r2
   463a4:	22000084 	addi	r8,r4,2
   463a8:	5957883a 	add	r11,r11,r5
   463ac:	5816923a 	slli	r11,r11,8
   463b0:	20c00044 	addi	r3,r4,1
   463b4:	037fbff4 	movhi	r13,65279
   463b8:	6b7fbfc4 	addi	r13,r13,-257
   463bc:	5957883a 	add	r11,r11,r5
   463c0:	5816923a 	slli	r11,r11,8
   463c4:	03202074 	movhi	r12,32897
   463c8:	63202004 	addi	r12,r12,-32640
   463cc:	101d883a 	mov	r14,r2
   463d0:	5957883a 	add	r11,r11,r5
   463d4:	21c00017 	ldw	r7,0(r4)
   463d8:	31bfff04 	addi	r6,r6,-4
   463dc:	1805883a 	mov	r2,r3
   463e0:	3acef03a 	xor	r7,r7,r11
   463e4:	3b55883a 	add	r10,r7,r13
   463e8:	01ce303a 	nor	r7,zero,r7
   463ec:	51ce703a 	and	r7,r10,r7
   463f0:	3b0e703a 	and	r7,r7,r12
   463f4:	38000a26 	beq	r7,zero,46420 <memchr+0x98>
   463f8:	21c00003 	ldbu	r7,0(r4)
   463fc:	39401e26 	beq	r7,r5,46478 <memchr+0xf0>
   46400:	19c00003 	ldbu	r7,0(r3)
   46404:	39401926 	beq	r7,r5,4646c <memchr+0xe4>
   46408:	41c00003 	ldbu	r7,0(r8)
   4640c:	4005883a 	mov	r2,r8
   46410:	39401626 	beq	r7,r5,4646c <memchr+0xe4>
   46414:	49c00003 	ldbu	r7,0(r9)
   46418:	4805883a 	mov	r2,r9
   4641c:	39401326 	beq	r7,r5,4646c <memchr+0xe4>
   46420:	21000104 	addi	r4,r4,4
   46424:	4a400104 	addi	r9,r9,4
   46428:	42000104 	addi	r8,r8,4
   4642c:	18c00104 	addi	r3,r3,4
   46430:	71bfe836 	bltu	r14,r6,463d4 <memchr+0x4c>
   46434:	2005883a 	mov	r2,r4
   46438:	30000a26 	beq	r6,zero,46464 <memchr+0xdc>
   4643c:	10c00003 	ldbu	r3,0(r2)
   46440:	19400a26 	beq	r3,r5,4646c <memchr+0xe4>
   46444:	10c00044 	addi	r3,r2,1
   46448:	118d883a 	add	r6,r2,r6
   4644c:	00000306 	br	4645c <memchr+0xd4>
   46450:	11000003 	ldbu	r4,0(r2)
   46454:	18c00044 	addi	r3,r3,1
   46458:	21400426 	beq	r4,r5,4646c <memchr+0xe4>
   4645c:	1805883a 	mov	r2,r3
   46460:	19bffb1e 	bne	r3,r6,46450 <memchr+0xc8>
   46464:	0005883a 	mov	r2,zero
   46468:	f800283a 	ret
   4646c:	f800283a 	ret
   46470:	2005883a 	mov	r2,r4
   46474:	003ff106 	br	4643c <memchr+0xb4>
   46478:	2005883a 	mov	r2,r4
   4647c:	f800283a 	ret

00046480 <memcpy>:
   46480:	defffb04 	addi	sp,sp,-20
   46484:	dc000015 	stw	r16,0(sp)
   46488:	dfc00415 	stw	ra,16(sp)
   4648c:	dcc00315 	stw	r19,12(sp)
   46490:	dc800215 	stw	r18,8(sp)
   46494:	dc400115 	stw	r17,4(sp)
   46498:	00c003c4 	movi	r3,15
   4649c:	2021883a 	mov	r16,r4
   464a0:	3005883a 	mov	r2,r6
   464a4:	1980032e 	bgeu	r3,r6,464b4 <memcpy+0x34>
   464a8:	2906b03a 	or	r3,r5,r4
   464ac:	18c000cc 	andi	r3,r3,3
   464b0:	18001026 	beq	r3,zero,464f4 <memcpy+0x74>
   464b4:	8007883a 	mov	r3,r16
   464b8:	288f883a 	add	r7,r5,r2
   464bc:	10000526 	beq	r2,zero,464d4 <memcpy+0x54>
   464c0:	29800003 	ldbu	r6,0(r5)
   464c4:	18c00044 	addi	r3,r3,1
   464c8:	29400044 	addi	r5,r5,1
   464cc:	19bfffc5 	stb	r6,-1(r3)
   464d0:	29fffb1e 	bne	r5,r7,464c0 <memcpy+0x40>
   464d4:	8005883a 	mov	r2,r16
   464d8:	dfc00417 	ldw	ra,16(sp)
   464dc:	dcc00317 	ldw	r19,12(sp)
   464e0:	dc800217 	ldw	r18,8(sp)
   464e4:	dc400117 	ldw	r17,4(sp)
   464e8:	dc000017 	ldw	r16,0(sp)
   464ec:	dec00504 	addi	sp,sp,20
   464f0:	f800283a 	ret
   464f4:	32bffc04 	addi	r10,r6,-16
   464f8:	5014d13a 	srli	r10,r10,4
   464fc:	20800404 	addi	r2,r4,16
   46500:	2007883a 	mov	r3,r4
   46504:	5008913a 	slli	r4,r10,4
   46508:	280f883a 	mov	r7,r5
   4650c:	1105883a 	add	r2,r2,r4
   46510:	3a000017 	ldw	r8,0(r7)
   46514:	18c00404 	addi	r3,r3,16
   46518:	39c00404 	addi	r7,r7,16
   4651c:	1a3ffc15 	stw	r8,-16(r3)
   46520:	3a3ffd17 	ldw	r8,-12(r7)
   46524:	1a3ffd15 	stw	r8,-12(r3)
   46528:	3a3ffe17 	ldw	r8,-8(r7)
   4652c:	1a3ffe15 	stw	r8,-8(r3)
   46530:	3a3fff17 	ldw	r8,-4(r7)
   46534:	1a3fff15 	stw	r8,-4(r3)
   46538:	18bff51e 	bne	r3,r2,46510 <memcpy+0x90>
   4653c:	52800044 	addi	r10,r10,1
   46540:	5014913a 	slli	r10,r10,4
   46544:	308003cc 	andi	r2,r6,15
   46548:	010000c4 	movi	r4,3
   4654c:	8287883a 	add	r3,r16,r10
   46550:	2a95883a 	add	r10,r5,r10
   46554:	2080182e 	bgeu	r4,r2,465b8 <memcpy+0x138>
   46558:	147fff04 	addi	r17,r2,-4
   4655c:	8808d0ba 	srli	r4,r17,2
   46560:	1a400104 	addi	r9,r3,4
   46564:	180d883a 	mov	r6,r3
   46568:	2105883a 	add	r2,r4,r4
   4656c:	1085883a 	add	r2,r2,r2
   46570:	4893883a 	add	r9,r9,r2
   46574:	500f883a 	mov	r7,r10
   46578:	3a000017 	ldw	r8,0(r7)
   4657c:	31800104 	addi	r6,r6,4
   46580:	39c00104 	addi	r7,r7,4
   46584:	323fff15 	stw	r8,-4(r6)
   46588:	327ffb1e 	bne	r6,r9,46578 <memcpy+0xf8>
   4658c:	20800044 	addi	r2,r4,1
   46590:	1085883a 	add	r2,r2,r2
   46594:	1085883a 	add	r2,r2,r2
   46598:	017fff04 	movi	r5,-4
   4659c:	18a5883a 	add	r18,r3,r2
   465a0:	50a7883a 	add	r19,r10,r2
   465a4:	0040e000 	call	40e00 <__mulsi3>
   465a8:	1445883a 	add	r2,r2,r17
   465ac:	980b883a 	mov	r5,r19
   465b0:	9007883a 	mov	r3,r18
   465b4:	003fc006 	br	464b8 <memcpy+0x38>
   465b8:	500b883a 	mov	r5,r10
   465bc:	003fbe06 	br	464b8 <memcpy+0x38>

000465c0 <memmove>:
   465c0:	defffb04 	addi	sp,sp,-20
   465c4:	dc000015 	stw	r16,0(sp)
   465c8:	dfc00415 	stw	ra,16(sp)
   465cc:	dcc00315 	stw	r19,12(sp)
   465d0:	dc800215 	stw	r18,8(sp)
   465d4:	dc400115 	stw	r17,4(sp)
   465d8:	2021883a 	mov	r16,r4
   465dc:	300f883a 	mov	r7,r6
   465e0:	2900122e 	bgeu	r5,r4,4662c <memmove+0x6c>
   465e4:	2987883a 	add	r3,r5,r6
   465e8:	20c0102e 	bgeu	r4,r3,4662c <memmove+0x6c>
   465ec:	218b883a 	add	r5,r4,r6
   465f0:	1989c83a 	sub	r4,r3,r6
   465f4:	30000526 	beq	r6,zero,4660c <memmove+0x4c>
   465f8:	18ffffc4 	addi	r3,r3,-1
   465fc:	18800003 	ldbu	r2,0(r3)
   46600:	297fffc4 	addi	r5,r5,-1
   46604:	28800005 	stb	r2,0(r5)
   46608:	193ffb1e 	bne	r3,r4,465f8 <memmove+0x38>
   4660c:	8005883a 	mov	r2,r16
   46610:	dfc00417 	ldw	ra,16(sp)
   46614:	dcc00317 	ldw	r19,12(sp)
   46618:	dc800217 	ldw	r18,8(sp)
   4661c:	dc400117 	ldw	r17,4(sp)
   46620:	dc000017 	ldw	r16,0(sp)
   46624:	dec00504 	addi	sp,sp,20
   46628:	f800283a 	ret
   4662c:	008003c4 	movi	r2,15
   46630:	1180422e 	bgeu	r2,r6,4673c <memmove+0x17c>
   46634:	2c04b03a 	or	r2,r5,r16
   46638:	108000cc 	andi	r2,r2,3
   4663c:	10003f1e 	bne	r2,zero,4673c <memmove+0x17c>
   46640:	32bffc04 	addi	r10,r6,-16
   46644:	5014d13a 	srli	r10,r10,4
   46648:	81000404 	addi	r4,r16,16
   4664c:	8007883a 	mov	r3,r16
   46650:	5004913a 	slli	r2,r10,4
   46654:	280f883a 	mov	r7,r5
   46658:	2089883a 	add	r4,r4,r2
   4665c:	38800017 	ldw	r2,0(r7)
   46660:	18c00404 	addi	r3,r3,16
   46664:	39c00404 	addi	r7,r7,16
   46668:	18bffc15 	stw	r2,-16(r3)
   4666c:	38bffd17 	ldw	r2,-12(r7)
   46670:	18bffd15 	stw	r2,-12(r3)
   46674:	38bffe17 	ldw	r2,-8(r7)
   46678:	18bffe15 	stw	r2,-8(r3)
   4667c:	38bfff17 	ldw	r2,-4(r7)
   46680:	18bfff15 	stw	r2,-4(r3)
   46684:	193ff51e 	bne	r3,r4,4665c <memmove+0x9c>
   46688:	52800044 	addi	r10,r10,1
   4668c:	5014913a 	slli	r10,r10,4
   46690:	31c003cc 	andi	r7,r6,15
   46694:	008000c4 	movi	r2,3
   46698:	8287883a 	add	r3,r16,r10
   4669c:	2a95883a 	add	r10,r5,r10
   466a0:	11c0282e 	bgeu	r2,r7,46744 <memmove+0x184>
   466a4:	3c7fff04 	addi	r17,r7,-4
   466a8:	8808d0ba 	srli	r4,r17,2
   466ac:	1a400104 	addi	r9,r3,4
   466b0:	180d883a 	mov	r6,r3
   466b4:	2105883a 	add	r2,r4,r4
   466b8:	1085883a 	add	r2,r2,r2
   466bc:	4893883a 	add	r9,r9,r2
   466c0:	5005883a 	mov	r2,r10
   466c4:	12000017 	ldw	r8,0(r2)
   466c8:	31800104 	addi	r6,r6,4
   466cc:	10800104 	addi	r2,r2,4
   466d0:	323fff15 	stw	r8,-4(r6)
   466d4:	327ffb1e 	bne	r6,r9,466c4 <memmove+0x104>
   466d8:	20800044 	addi	r2,r4,1
   466dc:	1085883a 	add	r2,r2,r2
   466e0:	1085883a 	add	r2,r2,r2
   466e4:	017fff04 	movi	r5,-4
   466e8:	18a5883a 	add	r18,r3,r2
   466ec:	50a7883a 	add	r19,r10,r2
   466f0:	0040e000 	call	40e00 <__mulsi3>
   466f4:	144f883a 	add	r7,r2,r17
   466f8:	980b883a 	mov	r5,r19
   466fc:	9007883a 	mov	r3,r18
   46700:	383fc226 	beq	r7,zero,4660c <memmove+0x4c>
   46704:	19cf883a 	add	r7,r3,r7
   46708:	29800003 	ldbu	r6,0(r5)
   4670c:	18c00044 	addi	r3,r3,1
   46710:	29400044 	addi	r5,r5,1
   46714:	19bfffc5 	stb	r6,-1(r3)
   46718:	19fffb1e 	bne	r3,r7,46708 <memmove+0x148>
   4671c:	8005883a 	mov	r2,r16
   46720:	dfc00417 	ldw	ra,16(sp)
   46724:	dcc00317 	ldw	r19,12(sp)
   46728:	dc800217 	ldw	r18,8(sp)
   4672c:	dc400117 	ldw	r17,4(sp)
   46730:	dc000017 	ldw	r16,0(sp)
   46734:	dec00504 	addi	sp,sp,20
   46738:	f800283a 	ret
   4673c:	8007883a 	mov	r3,r16
   46740:	003fef06 	br	46700 <memmove+0x140>
   46744:	500b883a 	mov	r5,r10
   46748:	003fed06 	br	46700 <memmove+0x140>

0004674c <memset>:
   4674c:	00c000c4 	movi	r3,3
   46750:	2005883a 	mov	r2,r4
   46754:	29403fcc 	andi	r5,r5,255
   46758:	19802d2e 	bgeu	r3,r6,46810 <memset+0xc4>
   4675c:	20c6703a 	and	r3,r4,r3
   46760:	18002e1e 	bne	r3,zero,4681c <memset+0xd0>
   46764:	2806923a 	slli	r3,r5,8
   46768:	010003c4 	movi	r4,15
   4676c:	3011883a 	mov	r8,r6
   46770:	1946b03a 	or	r3,r3,r5
   46774:	180e943a 	slli	r7,r3,16
   46778:	38ceb03a 	or	r7,r7,r3
   4677c:	1007883a 	mov	r3,r2
   46780:	21800f2e 	bgeu	r4,r6,467c0 <memset+0x74>
   46784:	19c00015 	stw	r7,0(r3)
   46788:	19c00115 	stw	r7,4(r3)
   4678c:	19c00215 	stw	r7,8(r3)
   46790:	19c00315 	stw	r7,12(r3)
   46794:	423ffc04 	addi	r8,r8,-16
   46798:	18c00404 	addi	r3,r3,16
   4679c:	223ff936 	bltu	r4,r8,46784 <memset+0x38>
   467a0:	30fffc04 	addi	r3,r6,-16
   467a4:	1806d13a 	srli	r3,r3,4
   467a8:	318003cc 	andi	r6,r6,15
   467ac:	010000c4 	movi	r4,3
   467b0:	18c00044 	addi	r3,r3,1
   467b4:	1806913a 	slli	r3,r3,4
   467b8:	10c7883a 	add	r3,r2,r3
   467bc:	21800e2e 	bgeu	r4,r6,467f8 <memset+0xac>
   467c0:	1813883a 	mov	r9,r3
   467c4:	3011883a 	mov	r8,r6
   467c8:	010000c4 	movi	r4,3
   467cc:	49c00015 	stw	r7,0(r9)
   467d0:	423fff04 	addi	r8,r8,-4
   467d4:	4a400104 	addi	r9,r9,4
   467d8:	223ffc36 	bltu	r4,r8,467cc <memset+0x80>
   467dc:	313fff04 	addi	r4,r6,-4
   467e0:	2008d0ba 	srli	r4,r4,2
   467e4:	318000cc 	andi	r6,r6,3
   467e8:	21000044 	addi	r4,r4,1
   467ec:	2109883a 	add	r4,r4,r4
   467f0:	2109883a 	add	r4,r4,r4
   467f4:	1907883a 	add	r3,r3,r4
   467f8:	30000a26 	beq	r6,zero,46824 <memset+0xd8>
   467fc:	198d883a 	add	r6,r3,r6
   46800:	19400005 	stb	r5,0(r3)
   46804:	18c00044 	addi	r3,r3,1
   46808:	19bffd1e 	bne	r3,r6,46800 <memset+0xb4>
   4680c:	f800283a 	ret
   46810:	2007883a 	mov	r3,r4
   46814:	303ff91e 	bne	r6,zero,467fc <memset+0xb0>
   46818:	00000206 	br	46824 <memset+0xd8>
   4681c:	2007883a 	mov	r3,r4
   46820:	003ff606 	br	467fc <memset+0xb0>
   46824:	f800283a 	ret

00046828 <_Balloc>:
   46828:	20801317 	ldw	r2,76(r4)
   4682c:	defffc04 	addi	sp,sp,-16
   46830:	dc400115 	stw	r17,4(sp)
   46834:	dc000015 	stw	r16,0(sp)
   46838:	dfc00315 	stw	ra,12(sp)
   4683c:	dc800215 	stw	r18,8(sp)
   46840:	2023883a 	mov	r17,r4
   46844:	2821883a 	mov	r16,r5
   46848:	10000f26 	beq	r2,zero,46888 <_Balloc+0x60>
   4684c:	8407883a 	add	r3,r16,r16
   46850:	18c7883a 	add	r3,r3,r3
   46854:	10c7883a 	add	r3,r2,r3
   46858:	18800017 	ldw	r2,0(r3)
   4685c:	10001126 	beq	r2,zero,468a4 <_Balloc+0x7c>
   46860:	11000017 	ldw	r4,0(r2)
   46864:	19000015 	stw	r4,0(r3)
   46868:	10000415 	stw	zero,16(r2)
   4686c:	10000315 	stw	zero,12(r2)
   46870:	dfc00317 	ldw	ra,12(sp)
   46874:	dc800217 	ldw	r18,8(sp)
   46878:	dc400117 	ldw	r17,4(sp)
   4687c:	dc000017 	ldw	r16,0(sp)
   46880:	dec00404 	addi	sp,sp,16
   46884:	f800283a 	ret
   46888:	01400104 	movi	r5,4
   4688c:	01800404 	movi	r6,16
   46890:	004818c0 	call	4818c <_calloc_r>
   46894:	88801315 	stw	r2,76(r17)
   46898:	103fec1e 	bne	r2,zero,4684c <_Balloc+0x24>
   4689c:	0005883a 	mov	r2,zero
   468a0:	003ff306 	br	46870 <_Balloc+0x48>
   468a4:	01400044 	movi	r5,1
   468a8:	2c24983a 	sll	r18,r5,r16
   468ac:	8809883a 	mov	r4,r17
   468b0:	91800144 	addi	r6,r18,5
   468b4:	318d883a 	add	r6,r6,r6
   468b8:	318d883a 	add	r6,r6,r6
   468bc:	004818c0 	call	4818c <_calloc_r>
   468c0:	103ff626 	beq	r2,zero,4689c <_Balloc+0x74>
   468c4:	14000115 	stw	r16,4(r2)
   468c8:	14800215 	stw	r18,8(r2)
   468cc:	003fe606 	br	46868 <_Balloc+0x40>

000468d0 <_Bfree>:
   468d0:	28000826 	beq	r5,zero,468f4 <_Bfree+0x24>
   468d4:	28c00117 	ldw	r3,4(r5)
   468d8:	20801317 	ldw	r2,76(r4)
   468dc:	18c7883a 	add	r3,r3,r3
   468e0:	18c7883a 	add	r3,r3,r3
   468e4:	10c5883a 	add	r2,r2,r3
   468e8:	10c00017 	ldw	r3,0(r2)
   468ec:	28c00015 	stw	r3,0(r5)
   468f0:	11400015 	stw	r5,0(r2)
   468f4:	f800283a 	ret

000468f8 <__multadd>:
   468f8:	defff604 	addi	sp,sp,-40
   468fc:	dd400515 	stw	r21,20(sp)
   46900:	2d400417 	ldw	r21,16(r5)
   46904:	df000815 	stw	fp,32(sp)
   46908:	ddc00715 	stw	r23,28(sp)
   4690c:	dd800615 	stw	r22,24(sp)
   46910:	dd000415 	stw	r20,16(sp)
   46914:	dc400115 	stw	r17,4(sp)
   46918:	dc000015 	stw	r16,0(sp)
   4691c:	dfc00915 	stw	ra,36(sp)
   46920:	dcc00315 	stw	r19,12(sp)
   46924:	dc800215 	stw	r18,8(sp)
   46928:	282d883a 	mov	r22,r5
   4692c:	202f883a 	mov	r23,r4
   46930:	3029883a 	mov	r20,r6
   46934:	3839883a 	mov	fp,r7
   46938:	2c000504 	addi	r16,r5,20
   4693c:	0023883a 	mov	r17,zero
   46940:	84c00017 	ldw	r19,0(r16)
   46944:	a00b883a 	mov	r5,r20
   46948:	8c400044 	addi	r17,r17,1
   4694c:	993fffcc 	andi	r4,r19,65535
   46950:	0040e000 	call	40e00 <__mulsi3>
   46954:	1725883a 	add	r18,r2,fp
   46958:	9808d43a 	srli	r4,r19,16
   4695c:	9026d43a 	srli	r19,r18,16
   46960:	a00b883a 	mov	r5,r20
   46964:	0040e000 	call	40e00 <__mulsi3>
   46968:	988f883a 	add	r7,r19,r2
   4696c:	3804943a 	slli	r2,r7,16
   46970:	94bfffcc 	andi	r18,r18,65535
   46974:	3838d43a 	srli	fp,r7,16
   46978:	14a5883a 	add	r18,r2,r18
   4697c:	84800015 	stw	r18,0(r16)
   46980:	84000104 	addi	r16,r16,4
   46984:	8d7fee16 	blt	r17,r21,46940 <__multadd+0x48>
   46988:	e0000926 	beq	fp,zero,469b0 <__multadd+0xb8>
   4698c:	b0800217 	ldw	r2,8(r22)
   46990:	a880140e 	bge	r21,r2,469e4 <__multadd+0xec>
   46994:	a8800144 	addi	r2,r21,5
   46998:	1085883a 	add	r2,r2,r2
   4699c:	1085883a 	add	r2,r2,r2
   469a0:	b085883a 	add	r2,r22,r2
   469a4:	ad400044 	addi	r21,r21,1
   469a8:	17000015 	stw	fp,0(r2)
   469ac:	b5400415 	stw	r21,16(r22)
   469b0:	b005883a 	mov	r2,r22
   469b4:	dfc00917 	ldw	ra,36(sp)
   469b8:	df000817 	ldw	fp,32(sp)
   469bc:	ddc00717 	ldw	r23,28(sp)
   469c0:	dd800617 	ldw	r22,24(sp)
   469c4:	dd400517 	ldw	r21,20(sp)
   469c8:	dd000417 	ldw	r20,16(sp)
   469cc:	dcc00317 	ldw	r19,12(sp)
   469d0:	dc800217 	ldw	r18,8(sp)
   469d4:	dc400117 	ldw	r17,4(sp)
   469d8:	dc000017 	ldw	r16,0(sp)
   469dc:	dec00a04 	addi	sp,sp,40
   469e0:	f800283a 	ret
   469e4:	b1400117 	ldw	r5,4(r22)
   469e8:	b809883a 	mov	r4,r23
   469ec:	29400044 	addi	r5,r5,1
   469f0:	00468280 	call	46828 <_Balloc>
   469f4:	b1800417 	ldw	r6,16(r22)
   469f8:	b1400304 	addi	r5,r22,12
   469fc:	11000304 	addi	r4,r2,12
   46a00:	31800084 	addi	r6,r6,2
   46a04:	318d883a 	add	r6,r6,r6
   46a08:	318d883a 	add	r6,r6,r6
   46a0c:	1021883a 	mov	r16,r2
   46a10:	00464800 	call	46480 <memcpy>
   46a14:	b0c00117 	ldw	r3,4(r22)
   46a18:	b8801317 	ldw	r2,76(r23)
   46a1c:	18c7883a 	add	r3,r3,r3
   46a20:	18c7883a 	add	r3,r3,r3
   46a24:	10c5883a 	add	r2,r2,r3
   46a28:	10c00017 	ldw	r3,0(r2)
   46a2c:	b0c00015 	stw	r3,0(r22)
   46a30:	15800015 	stw	r22,0(r2)
   46a34:	802d883a 	mov	r22,r16
   46a38:	003fd606 	br	46994 <__multadd+0x9c>

00046a3c <__s2b>:
   46a3c:	defff904 	addi	sp,sp,-28
   46a40:	dd000415 	stw	r20,16(sp)
   46a44:	dc400115 	stw	r17,4(sp)
   46a48:	2829883a 	mov	r20,r5
   46a4c:	2023883a 	mov	r17,r4
   46a50:	01400244 	movi	r5,9
   46a54:	39000204 	addi	r4,r7,8
   46a58:	dcc00315 	stw	r19,12(sp)
   46a5c:	dc800215 	stw	r18,8(sp)
   46a60:	dfc00615 	stw	ra,24(sp)
   46a64:	dd400515 	stw	r21,20(sp)
   46a68:	dc000015 	stw	r16,0(sp)
   46a6c:	3825883a 	mov	r18,r7
   46a70:	3027883a 	mov	r19,r6
   46a74:	0040d440 	call	40d44 <__divsi3>
   46a78:	00c00044 	movi	r3,1
   46a7c:	000b883a 	mov	r5,zero
   46a80:	1880030e 	bge	r3,r2,46a90 <__s2b+0x54>
   46a84:	18c7883a 	add	r3,r3,r3
   46a88:	29400044 	addi	r5,r5,1
   46a8c:	18bffd16 	blt	r3,r2,46a84 <__s2b+0x48>
   46a90:	8809883a 	mov	r4,r17
   46a94:	00468280 	call	46828 <_Balloc>
   46a98:	d8c00717 	ldw	r3,28(sp)
   46a9c:	10c00515 	stw	r3,20(r2)
   46aa0:	00c00044 	movi	r3,1
   46aa4:	10c00415 	stw	r3,16(r2)
   46aa8:	00c00244 	movi	r3,9
   46aac:	1cc0210e 	bge	r3,r19,46b34 <__s2b+0xf8>
   46ab0:	a0eb883a 	add	r21,r20,r3
   46ab4:	a821883a 	mov	r16,r21
   46ab8:	a4e9883a 	add	r20,r20,r19
   46abc:	81c00007 	ldb	r7,0(r16)
   46ac0:	8809883a 	mov	r4,r17
   46ac4:	84000044 	addi	r16,r16,1
   46ac8:	100b883a 	mov	r5,r2
   46acc:	01800284 	movi	r6,10
   46ad0:	39fff404 	addi	r7,r7,-48
   46ad4:	00468f80 	call	468f8 <__multadd>
   46ad8:	853ff81e 	bne	r16,r20,46abc <__s2b+0x80>
   46adc:	ace1883a 	add	r16,r21,r19
   46ae0:	843ffe04 	addi	r16,r16,-8
   46ae4:	9c800a0e 	bge	r19,r18,46b10 <__s2b+0xd4>
   46ae8:	94e5c83a 	sub	r18,r18,r19
   46aec:	84a5883a 	add	r18,r16,r18
   46af0:	81c00007 	ldb	r7,0(r16)
   46af4:	8809883a 	mov	r4,r17
   46af8:	84000044 	addi	r16,r16,1
   46afc:	100b883a 	mov	r5,r2
   46b00:	01800284 	movi	r6,10
   46b04:	39fff404 	addi	r7,r7,-48
   46b08:	00468f80 	call	468f8 <__multadd>
   46b0c:	84bff81e 	bne	r16,r18,46af0 <__s2b+0xb4>
   46b10:	dfc00617 	ldw	ra,24(sp)
   46b14:	dd400517 	ldw	r21,20(sp)
   46b18:	dd000417 	ldw	r20,16(sp)
   46b1c:	dcc00317 	ldw	r19,12(sp)
   46b20:	dc800217 	ldw	r18,8(sp)
   46b24:	dc400117 	ldw	r17,4(sp)
   46b28:	dc000017 	ldw	r16,0(sp)
   46b2c:	dec00704 	addi	sp,sp,28
   46b30:	f800283a 	ret
   46b34:	a4000284 	addi	r16,r20,10
   46b38:	1827883a 	mov	r19,r3
   46b3c:	003fe906 	br	46ae4 <__s2b+0xa8>

00046b40 <__hi0bits>:
   46b40:	20bfffec 	andhi	r2,r4,65535
   46b44:	1000141e 	bne	r2,zero,46b98 <__hi0bits+0x58>
   46b48:	2008943a 	slli	r4,r4,16
   46b4c:	00800404 	movi	r2,16
   46b50:	20ffc02c 	andhi	r3,r4,65280
   46b54:	1800021e 	bne	r3,zero,46b60 <__hi0bits+0x20>
   46b58:	2008923a 	slli	r4,r4,8
   46b5c:	10800204 	addi	r2,r2,8
   46b60:	20fc002c 	andhi	r3,r4,61440
   46b64:	1800021e 	bne	r3,zero,46b70 <__hi0bits+0x30>
   46b68:	2008913a 	slli	r4,r4,4
   46b6c:	10800104 	addi	r2,r2,4
   46b70:	20f0002c 	andhi	r3,r4,49152
   46b74:	1800031e 	bne	r3,zero,46b84 <__hi0bits+0x44>
   46b78:	2109883a 	add	r4,r4,r4
   46b7c:	10800084 	addi	r2,r2,2
   46b80:	2109883a 	add	r4,r4,r4
   46b84:	20000316 	blt	r4,zero,46b94 <__hi0bits+0x54>
   46b88:	2110002c 	andhi	r4,r4,16384
   46b8c:	2000041e 	bne	r4,zero,46ba0 <__hi0bits+0x60>
   46b90:	00800804 	movi	r2,32
   46b94:	f800283a 	ret
   46b98:	0005883a 	mov	r2,zero
   46b9c:	003fec06 	br	46b50 <__hi0bits+0x10>
   46ba0:	10800044 	addi	r2,r2,1
   46ba4:	f800283a 	ret

00046ba8 <__lo0bits>:
   46ba8:	20c00017 	ldw	r3,0(r4)
   46bac:	188001cc 	andi	r2,r3,7
   46bb0:	10000826 	beq	r2,zero,46bd4 <__lo0bits+0x2c>
   46bb4:	1880004c 	andi	r2,r3,1
   46bb8:	1000211e 	bne	r2,zero,46c40 <__lo0bits+0x98>
   46bbc:	1880008c 	andi	r2,r3,2
   46bc0:	1000211e 	bne	r2,zero,46c48 <__lo0bits+0xa0>
   46bc4:	1806d0ba 	srli	r3,r3,2
   46bc8:	00800084 	movi	r2,2
   46bcc:	20c00015 	stw	r3,0(r4)
   46bd0:	f800283a 	ret
   46bd4:	18bfffcc 	andi	r2,r3,65535
   46bd8:	10001326 	beq	r2,zero,46c28 <__lo0bits+0x80>
   46bdc:	0005883a 	mov	r2,zero
   46be0:	19403fcc 	andi	r5,r3,255
   46be4:	2800021e 	bne	r5,zero,46bf0 <__lo0bits+0x48>
   46be8:	1806d23a 	srli	r3,r3,8
   46bec:	10800204 	addi	r2,r2,8
   46bf0:	194003cc 	andi	r5,r3,15
   46bf4:	2800021e 	bne	r5,zero,46c00 <__lo0bits+0x58>
   46bf8:	1806d13a 	srli	r3,r3,4
   46bfc:	10800104 	addi	r2,r2,4
   46c00:	194000cc 	andi	r5,r3,3
   46c04:	2800021e 	bne	r5,zero,46c10 <__lo0bits+0x68>
   46c08:	1806d0ba 	srli	r3,r3,2
   46c0c:	10800084 	addi	r2,r2,2
   46c10:	1940004c 	andi	r5,r3,1
   46c14:	2800081e 	bne	r5,zero,46c38 <__lo0bits+0x90>
   46c18:	1806d07a 	srli	r3,r3,1
   46c1c:	1800051e 	bne	r3,zero,46c34 <__lo0bits+0x8c>
   46c20:	00800804 	movi	r2,32
   46c24:	f800283a 	ret
   46c28:	1806d43a 	srli	r3,r3,16
   46c2c:	00800404 	movi	r2,16
   46c30:	003feb06 	br	46be0 <__lo0bits+0x38>
   46c34:	10800044 	addi	r2,r2,1
   46c38:	20c00015 	stw	r3,0(r4)
   46c3c:	f800283a 	ret
   46c40:	0005883a 	mov	r2,zero
   46c44:	f800283a 	ret
   46c48:	1806d07a 	srli	r3,r3,1
   46c4c:	00800044 	movi	r2,1
   46c50:	20c00015 	stw	r3,0(r4)
   46c54:	f800283a 	ret

00046c58 <__i2b>:
   46c58:	defffd04 	addi	sp,sp,-12
   46c5c:	dc000015 	stw	r16,0(sp)
   46c60:	04000044 	movi	r16,1
   46c64:	dc400115 	stw	r17,4(sp)
   46c68:	2823883a 	mov	r17,r5
   46c6c:	800b883a 	mov	r5,r16
   46c70:	dfc00215 	stw	ra,8(sp)
   46c74:	00468280 	call	46828 <_Balloc>
   46c78:	14400515 	stw	r17,20(r2)
   46c7c:	14000415 	stw	r16,16(r2)
   46c80:	dfc00217 	ldw	ra,8(sp)
   46c84:	dc400117 	ldw	r17,4(sp)
   46c88:	dc000017 	ldw	r16,0(sp)
   46c8c:	dec00304 	addi	sp,sp,12
   46c90:	f800283a 	ret

00046c94 <__multiply>:
   46c94:	defff004 	addi	sp,sp,-64
   46c98:	dc800815 	stw	r18,32(sp)
   46c9c:	dc400715 	stw	r17,28(sp)
   46ca0:	34800417 	ldw	r18,16(r6)
   46ca4:	2c400417 	ldw	r17,16(r5)
   46ca8:	ddc00d15 	stw	r23,52(sp)
   46cac:	dc000615 	stw	r16,24(sp)
   46cb0:	dfc00f15 	stw	ra,60(sp)
   46cb4:	df000e15 	stw	fp,56(sp)
   46cb8:	dd800c15 	stw	r22,48(sp)
   46cbc:	dd400b15 	stw	r21,44(sp)
   46cc0:	dd000a15 	stw	r20,40(sp)
   46cc4:	dcc00915 	stw	r19,36(sp)
   46cc8:	2821883a 	mov	r16,r5
   46ccc:	302f883a 	mov	r23,r6
   46cd0:	8c80050e 	bge	r17,r18,46ce8 <__multiply+0x54>
   46cd4:	8807883a 	mov	r3,r17
   46cd8:	3021883a 	mov	r16,r6
   46cdc:	9023883a 	mov	r17,r18
   46ce0:	282f883a 	mov	r23,r5
   46ce4:	1825883a 	mov	r18,r3
   46ce8:	80800217 	ldw	r2,8(r16)
   46cec:	8c87883a 	add	r3,r17,r18
   46cf0:	d8c00115 	stw	r3,4(sp)
   46cf4:	81400117 	ldw	r5,4(r16)
   46cf8:	10c0010e 	bge	r2,r3,46d00 <__multiply+0x6c>
   46cfc:	29400044 	addi	r5,r5,1
   46d00:	00468280 	call	46828 <_Balloc>
   46d04:	d8c00117 	ldw	r3,4(sp)
   46d08:	d8800515 	stw	r2,20(sp)
   46d0c:	14c00504 	addi	r19,r2,20
   46d10:	1d400144 	addi	r21,r3,5
   46d14:	ad6b883a 	add	r21,r21,r21
   46d18:	ad6b883a 	add	r21,r21,r21
   46d1c:	156b883a 	add	r21,r2,r21
   46d20:	dd400215 	stw	r21,8(sp)
   46d24:	9805883a 	mov	r2,r19
   46d28:	9d40042e 	bgeu	r19,r21,46d3c <__multiply+0xa8>
   46d2c:	d8c00217 	ldw	r3,8(sp)
   46d30:	10000015 	stw	zero,0(r2)
   46d34:	10800104 	addi	r2,r2,4
   46d38:	10fffc36 	bltu	r2,r3,46d2c <__multiply+0x98>
   46d3c:	94800144 	addi	r18,r18,5
   46d40:	94a5883a 	add	r18,r18,r18
   46d44:	94ad883a 	add	r22,r18,r18
   46d48:	8c400144 	addi	r17,r17,5
   46d4c:	8c63883a 	add	r17,r17,r17
   46d50:	bdad883a 	add	r22,r23,r22
   46d54:	80c00504 	addi	r3,r16,20
   46d58:	8c63883a 	add	r17,r17,r17
   46d5c:	bc800504 	addi	r18,r23,20
   46d60:	dd800315 	stw	r22,12(sp)
   46d64:	d8c00415 	stw	r3,16(sp)
   46d68:	dcc00015 	stw	r19,0(sp)
   46d6c:	8463883a 	add	r17,r16,r17
   46d70:	9580412e 	bgeu	r18,r22,46e78 <__multiply+0x1e4>
   46d74:	90800017 	ldw	r2,0(r18)
   46d78:	173fffcc 	andi	fp,r2,65535
   46d7c:	e0001a26 	beq	fp,zero,46de8 <__multiply+0x154>
   46d80:	dd000017 	ldw	r20,0(sp)
   46d84:	dd800417 	ldw	r22,16(sp)
   46d88:	002b883a 	mov	r21,zero
   46d8c:	b4c00017 	ldw	r19,0(r22)
   46d90:	a4000017 	ldw	r16,0(r20)
   46d94:	e00b883a 	mov	r5,fp
   46d98:	993fffcc 	andi	r4,r19,65535
   46d9c:	0040e000 	call	40e00 <__mulsi3>
   46da0:	9808d43a 	srli	r4,r19,16
   46da4:	817fffcc 	andi	r5,r16,65535
   46da8:	1145883a 	add	r2,r2,r5
   46dac:	e00b883a 	mov	r5,fp
   46db0:	1567883a 	add	r19,r2,r21
   46db4:	8020d43a 	srli	r16,r16,16
   46db8:	0040e000 	call	40e00 <__mulsi3>
   46dbc:	9808d43a 	srli	r4,r19,16
   46dc0:	1405883a 	add	r2,r2,r16
   46dc4:	a4c0000d 	sth	r19,0(r20)
   46dc8:	110f883a 	add	r7,r2,r4
   46dcc:	a1c0008d 	sth	r7,2(r20)
   46dd0:	b5800104 	addi	r22,r22,4
   46dd4:	382ad43a 	srli	r21,r7,16
   46dd8:	a5000104 	addi	r20,r20,4
   46ddc:	b47feb36 	bltu	r22,r17,46d8c <__multiply+0xf8>
   46de0:	a5400015 	stw	r21,0(r20)
   46de4:	90800017 	ldw	r2,0(r18)
   46de8:	1038d43a 	srli	fp,r2,16
   46dec:	e0001c26 	beq	fp,zero,46e60 <__multiply+0x1cc>
   46df0:	d8c00017 	ldw	r3,0(sp)
   46df4:	dd000417 	ldw	r20,16(sp)
   46df8:	002b883a 	mov	r21,zero
   46dfc:	1d800017 	ldw	r22,0(r3)
   46e00:	182f883a 	mov	r23,r3
   46e04:	b021883a 	mov	r16,r22
   46e08:	a4c00017 	ldw	r19,0(r20)
   46e0c:	8020d43a 	srli	r16,r16,16
   46e10:	e00b883a 	mov	r5,fp
   46e14:	993fffcc 	andi	r4,r19,65535
   46e18:	0040e000 	call	40e00 <__mulsi3>
   46e1c:	1405883a 	add	r2,r2,r16
   46e20:	9808d43a 	srli	r4,r19,16
   46e24:	156b883a 	add	r21,r2,r21
   46e28:	bdc00104 	addi	r23,r23,4
   46e2c:	bdbfff0d 	sth	r22,-4(r23)
   46e30:	bd7fff8d 	sth	r21,-2(r23)
   46e34:	bc000017 	ldw	r16,0(r23)
   46e38:	e00b883a 	mov	r5,fp
   46e3c:	0040e000 	call	40e00 <__mulsi3>
   46e40:	a80ed43a 	srli	r7,r21,16
   46e44:	813fffcc 	andi	r4,r16,65535
   46e48:	2085883a 	add	r2,r4,r2
   46e4c:	11ed883a 	add	r22,r2,r7
   46e50:	a5000104 	addi	r20,r20,4
   46e54:	b02ad43a 	srli	r21,r22,16
   46e58:	a47feb36 	bltu	r20,r17,46e08 <__multiply+0x174>
   46e5c:	bd800015 	stw	r22,0(r23)
   46e60:	d8c00017 	ldw	r3,0(sp)
   46e64:	94800104 	addi	r18,r18,4
   46e68:	18c00104 	addi	r3,r3,4
   46e6c:	d8c00015 	stw	r3,0(sp)
   46e70:	d8c00317 	ldw	r3,12(sp)
   46e74:	90ffbf36 	bltu	r18,r3,46d74 <__multiply+0xe0>
   46e78:	d8c00117 	ldw	r3,4(sp)
   46e7c:	00c00c0e 	bge	zero,r3,46eb0 <__multiply+0x21c>
   46e80:	d8c00217 	ldw	r3,8(sp)
   46e84:	18bfff17 	ldw	r2,-4(r3)
   46e88:	1d7fff04 	addi	r21,r3,-4
   46e8c:	10000326 	beq	r2,zero,46e9c <__multiply+0x208>
   46e90:	00000706 	br	46eb0 <__multiply+0x21c>
   46e94:	a8800017 	ldw	r2,0(r21)
   46e98:	1000051e 	bne	r2,zero,46eb0 <__multiply+0x21c>
   46e9c:	d8c00117 	ldw	r3,4(sp)
   46ea0:	ad7fff04 	addi	r21,r21,-4
   46ea4:	18ffffc4 	addi	r3,r3,-1
   46ea8:	d8c00115 	stw	r3,4(sp)
   46eac:	183ff91e 	bne	r3,zero,46e94 <__multiply+0x200>
   46eb0:	d8800517 	ldw	r2,20(sp)
   46eb4:	d8c00117 	ldw	r3,4(sp)
   46eb8:	10c00415 	stw	r3,16(r2)
   46ebc:	dfc00f17 	ldw	ra,60(sp)
   46ec0:	df000e17 	ldw	fp,56(sp)
   46ec4:	ddc00d17 	ldw	r23,52(sp)
   46ec8:	dd800c17 	ldw	r22,48(sp)
   46ecc:	dd400b17 	ldw	r21,44(sp)
   46ed0:	dd000a17 	ldw	r20,40(sp)
   46ed4:	dcc00917 	ldw	r19,36(sp)
   46ed8:	dc800817 	ldw	r18,32(sp)
   46edc:	dc400717 	ldw	r17,28(sp)
   46ee0:	dc000617 	ldw	r16,24(sp)
   46ee4:	dec01004 	addi	sp,sp,64
   46ee8:	f800283a 	ret

00046eec <__pow5mult>:
   46eec:	defffb04 	addi	sp,sp,-20
   46ef0:	dcc00315 	stw	r19,12(sp)
   46ef4:	dc800215 	stw	r18,8(sp)
   46ef8:	dc000015 	stw	r16,0(sp)
   46efc:	dfc00415 	stw	ra,16(sp)
   46f00:	dc400115 	stw	r17,4(sp)
   46f04:	308000cc 	andi	r2,r6,3
   46f08:	3021883a 	mov	r16,r6
   46f0c:	2027883a 	mov	r19,r4
   46f10:	2825883a 	mov	r18,r5
   46f14:	10002e1e 	bne	r2,zero,46fd0 <__pow5mult+0xe4>
   46f18:	8021d0ba 	srai	r16,r16,2
   46f1c:	80001a26 	beq	r16,zero,46f88 <__pow5mult+0x9c>
   46f20:	9c401217 	ldw	r17,72(r19)
   46f24:	8800061e 	bne	r17,zero,46f40 <__pow5mult+0x54>
   46f28:	00003406 	br	46ffc <__pow5mult+0x110>
   46f2c:	8021d07a 	srai	r16,r16,1
   46f30:	80001526 	beq	r16,zero,46f88 <__pow5mult+0x9c>
   46f34:	88c00017 	ldw	r3,0(r17)
   46f38:	18001b26 	beq	r3,zero,46fa8 <__pow5mult+0xbc>
   46f3c:	1823883a 	mov	r17,r3
   46f40:	80c0004c 	andi	r3,r16,1
   46f44:	183ff926 	beq	r3,zero,46f2c <__pow5mult+0x40>
   46f48:	900b883a 	mov	r5,r18
   46f4c:	880d883a 	mov	r6,r17
   46f50:	9809883a 	mov	r4,r19
   46f54:	0046c940 	call	46c94 <__multiply>
   46f58:	90001b26 	beq	r18,zero,46fc8 <__pow5mult+0xdc>
   46f5c:	91000117 	ldw	r4,4(r18)
   46f60:	98c01317 	ldw	r3,76(r19)
   46f64:	8021d07a 	srai	r16,r16,1
   46f68:	2109883a 	add	r4,r4,r4
   46f6c:	2109883a 	add	r4,r4,r4
   46f70:	1907883a 	add	r3,r3,r4
   46f74:	19000017 	ldw	r4,0(r3)
   46f78:	91000015 	stw	r4,0(r18)
   46f7c:	1c800015 	stw	r18,0(r3)
   46f80:	1025883a 	mov	r18,r2
   46f84:	803feb1e 	bne	r16,zero,46f34 <__pow5mult+0x48>
   46f88:	9005883a 	mov	r2,r18
   46f8c:	dfc00417 	ldw	ra,16(sp)
   46f90:	dcc00317 	ldw	r19,12(sp)
   46f94:	dc800217 	ldw	r18,8(sp)
   46f98:	dc400117 	ldw	r17,4(sp)
   46f9c:	dc000017 	ldw	r16,0(sp)
   46fa0:	dec00504 	addi	sp,sp,20
   46fa4:	f800283a 	ret
   46fa8:	880b883a 	mov	r5,r17
   46fac:	880d883a 	mov	r6,r17
   46fb0:	9809883a 	mov	r4,r19
   46fb4:	0046c940 	call	46c94 <__multiply>
   46fb8:	88800015 	stw	r2,0(r17)
   46fbc:	10000015 	stw	zero,0(r2)
   46fc0:	1023883a 	mov	r17,r2
   46fc4:	003fde06 	br	46f40 <__pow5mult+0x54>
   46fc8:	1025883a 	mov	r18,r2
   46fcc:	003fd706 	br	46f2c <__pow5mult+0x40>
   46fd0:	10bfffc4 	addi	r2,r2,-1
   46fd4:	1085883a 	add	r2,r2,r2
   46fd8:	00c00174 	movhi	r3,5
   46fdc:	18f56704 	addi	r3,r3,-10852
   46fe0:	1085883a 	add	r2,r2,r2
   46fe4:	1885883a 	add	r2,r3,r2
   46fe8:	11800017 	ldw	r6,0(r2)
   46fec:	000f883a 	mov	r7,zero
   46ff0:	00468f80 	call	468f8 <__multadd>
   46ff4:	1025883a 	mov	r18,r2
   46ff8:	003fc706 	br	46f18 <__pow5mult+0x2c>
   46ffc:	9809883a 	mov	r4,r19
   47000:	01409c44 	movi	r5,625
   47004:	0046c580 	call	46c58 <__i2b>
   47008:	98801215 	stw	r2,72(r19)
   4700c:	1023883a 	mov	r17,r2
   47010:	10000015 	stw	zero,0(r2)
   47014:	003fca06 	br	46f40 <__pow5mult+0x54>

00047018 <__lshift>:
   47018:	defff904 	addi	sp,sp,-28
   4701c:	dd400515 	stw	r21,20(sp)
   47020:	dc400115 	stw	r17,4(sp)
   47024:	2d400417 	ldw	r21,16(r5)
   47028:	3023d17a 	srai	r17,r6,5
   4702c:	28800217 	ldw	r2,8(r5)
   47030:	dd000415 	stw	r20,16(sp)
   47034:	8d6b883a 	add	r21,r17,r21
   47038:	dcc00315 	stw	r19,12(sp)
   4703c:	dc800215 	stw	r18,8(sp)
   47040:	dc000015 	stw	r16,0(sp)
   47044:	dfc00615 	stw	ra,24(sp)
   47048:	ac000044 	addi	r16,r21,1
   4704c:	2825883a 	mov	r18,r5
   47050:	3029883a 	mov	r20,r6
   47054:	2027883a 	mov	r19,r4
   47058:	29400117 	ldw	r5,4(r5)
   4705c:	1400030e 	bge	r2,r16,4706c <__lshift+0x54>
   47060:	1085883a 	add	r2,r2,r2
   47064:	29400044 	addi	r5,r5,1
   47068:	143ffd16 	blt	r2,r16,47060 <__lshift+0x48>
   4706c:	9809883a 	mov	r4,r19
   47070:	00468280 	call	46828 <_Balloc>
   47074:	10c00504 	addi	r3,r2,20
   47078:	0440090e 	bge	zero,r17,470a0 <__lshift+0x88>
   4707c:	000f883a 	mov	r7,zero
   47080:	18000015 	stw	zero,0(r3)
   47084:	39c00044 	addi	r7,r7,1
   47088:	18c00104 	addi	r3,r3,4
   4708c:	3c7ffc1e 	bne	r7,r17,47080 <__lshift+0x68>
   47090:	38c00144 	addi	r3,r7,5
   47094:	18c7883a 	add	r3,r3,r3
   47098:	18c7883a 	add	r3,r3,r3
   4709c:	10c7883a 	add	r3,r2,r3
   470a0:	92000417 	ldw	r8,16(r18)
   470a4:	a18007cc 	andi	r6,r20,31
   470a8:	91c00504 	addi	r7,r18,20
   470ac:	42000144 	addi	r8,r8,5
   470b0:	4211883a 	add	r8,r8,r8
   470b4:	4211883a 	add	r8,r8,r8
   470b8:	9211883a 	add	r8,r18,r8
   470bc:	30002226 	beq	r6,zero,47148 <__lshift+0x130>
   470c0:	02800804 	movi	r10,32
   470c4:	5195c83a 	sub	r10,r10,r6
   470c8:	000b883a 	mov	r5,zero
   470cc:	3a400017 	ldw	r9,0(r7)
   470d0:	18c00104 	addi	r3,r3,4
   470d4:	39c00104 	addi	r7,r7,4
   470d8:	4992983a 	sll	r9,r9,r6
   470dc:	2a4ab03a 	or	r5,r5,r9
   470e0:	197fff15 	stw	r5,-4(r3)
   470e4:	397fff17 	ldw	r5,-4(r7)
   470e8:	2a8ad83a 	srl	r5,r5,r10
   470ec:	3a3ff736 	bltu	r7,r8,470cc <__lshift+0xb4>
   470f0:	19400015 	stw	r5,0(r3)
   470f4:	28000126 	beq	r5,zero,470fc <__lshift+0xe4>
   470f8:	ac000084 	addi	r16,r21,2
   470fc:	91000117 	ldw	r4,4(r18)
   47100:	98c01317 	ldw	r3,76(r19)
   47104:	843fffc4 	addi	r16,r16,-1
   47108:	2109883a 	add	r4,r4,r4
   4710c:	2109883a 	add	r4,r4,r4
   47110:	1907883a 	add	r3,r3,r4
   47114:	19000017 	ldw	r4,0(r3)
   47118:	14000415 	stw	r16,16(r2)
   4711c:	91000015 	stw	r4,0(r18)
   47120:	1c800015 	stw	r18,0(r3)
   47124:	dfc00617 	ldw	ra,24(sp)
   47128:	dd400517 	ldw	r21,20(sp)
   4712c:	dd000417 	ldw	r20,16(sp)
   47130:	dcc00317 	ldw	r19,12(sp)
   47134:	dc800217 	ldw	r18,8(sp)
   47138:	dc400117 	ldw	r17,4(sp)
   4713c:	dc000017 	ldw	r16,0(sp)
   47140:	dec00704 	addi	sp,sp,28
   47144:	f800283a 	ret
   47148:	39400017 	ldw	r5,0(r7)
   4714c:	18c00104 	addi	r3,r3,4
   47150:	39c00104 	addi	r7,r7,4
   47154:	197fff15 	stw	r5,-4(r3)
   47158:	3a3fe82e 	bgeu	r7,r8,470fc <__lshift+0xe4>
   4715c:	39400017 	ldw	r5,0(r7)
   47160:	18c00104 	addi	r3,r3,4
   47164:	39c00104 	addi	r7,r7,4
   47168:	197fff15 	stw	r5,-4(r3)
   4716c:	3a3ff636 	bltu	r7,r8,47148 <__lshift+0x130>
   47170:	003fe206 	br	470fc <__lshift+0xe4>

00047174 <__mcmp>:
   47174:	20800417 	ldw	r2,16(r4)
   47178:	28c00417 	ldw	r3,16(r5)
   4717c:	10c5c83a 	sub	r2,r2,r3
   47180:	10000f1e 	bne	r2,zero,471c0 <__mcmp+0x4c>
   47184:	18c00144 	addi	r3,r3,5
   47188:	18c7883a 	add	r3,r3,r3
   4718c:	18c7883a 	add	r3,r3,r3
   47190:	21c00504 	addi	r7,r4,20
   47194:	28cb883a 	add	r5,r5,r3
   47198:	20c9883a 	add	r4,r4,r3
   4719c:	213fff04 	addi	r4,r4,-4
   471a0:	297fff04 	addi	r5,r5,-4
   471a4:	21800017 	ldw	r6,0(r4)
   471a8:	28c00017 	ldw	r3,0(r5)
   471ac:	30c0021e 	bne	r6,r3,471b8 <__mcmp+0x44>
   471b0:	393ffa36 	bltu	r7,r4,4719c <__mcmp+0x28>
   471b4:	f800283a 	ret
   471b8:	30c00236 	bltu	r6,r3,471c4 <__mcmp+0x50>
   471bc:	00800044 	movi	r2,1
   471c0:	f800283a 	ret
   471c4:	00bfffc4 	movi	r2,-1
   471c8:	f800283a 	ret

000471cc <__mdiff>:
   471cc:	defffb04 	addi	sp,sp,-20
   471d0:	dc000015 	stw	r16,0(sp)
   471d4:	2821883a 	mov	r16,r5
   471d8:	dc800215 	stw	r18,8(sp)
   471dc:	300b883a 	mov	r5,r6
   471e0:	2025883a 	mov	r18,r4
   471e4:	8009883a 	mov	r4,r16
   471e8:	dc400115 	stw	r17,4(sp)
   471ec:	dfc00415 	stw	ra,16(sp)
   471f0:	dcc00315 	stw	r19,12(sp)
   471f4:	3023883a 	mov	r17,r6
   471f8:	00471740 	call	47174 <__mcmp>
   471fc:	10005026 	beq	r2,zero,47340 <__mdiff+0x174>
   47200:	10004a16 	blt	r2,zero,4732c <__mdiff+0x160>
   47204:	0027883a 	mov	r19,zero
   47208:	81400117 	ldw	r5,4(r16)
   4720c:	9009883a 	mov	r4,r18
   47210:	00468280 	call	46828 <_Balloc>
   47214:	82400417 	ldw	r9,16(r16)
   47218:	89800417 	ldw	r6,16(r17)
   4721c:	14c00315 	stw	r19,12(r2)
   47220:	4b800144 	addi	r14,r9,5
   47224:	31800144 	addi	r6,r6,5
   47228:	739d883a 	add	r14,r14,r14
   4722c:	318d883a 	add	r6,r6,r6
   47230:	739d883a 	add	r14,r14,r14
   47234:	318d883a 	add	r6,r6,r6
   47238:	81c00504 	addi	r7,r16,20
   4723c:	839d883a 	add	r14,r16,r14
   47240:	8a000504 	addi	r8,r17,20
   47244:	898d883a 	add	r6,r17,r6
   47248:	10c00504 	addi	r3,r2,20
   4724c:	0009883a 	mov	r4,zero
   47250:	3b000017 	ldw	r12,0(r7)
   47254:	42c00017 	ldw	r11,0(r8)
   47258:	42000104 	addi	r8,r8,4
   4725c:	62bfffcc 	andi	r10,r12,65535
   47260:	5b7fffcc 	andi	r13,r11,65535
   47264:	5109883a 	add	r4,r10,r4
   47268:	2355c83a 	sub	r10,r4,r13
   4726c:	5816d43a 	srli	r11,r11,16
   47270:	6008d43a 	srli	r4,r12,16
   47274:	501bd43a 	srai	r13,r10,16
   47278:	1a80000d 	sth	r10,0(r3)
   4727c:	22c9c83a 	sub	r4,r4,r11
   47280:	2349883a 	add	r4,r4,r13
   47284:	1900008d 	sth	r4,2(r3)
   47288:	39c00104 	addi	r7,r7,4
   4728c:	2009d43a 	srai	r4,r4,16
   47290:	18c00104 	addi	r3,r3,4
   47294:	41bfee36 	bltu	r8,r6,47250 <__mdiff+0x84>
   47298:	180b883a 	mov	r5,r3
   4729c:	3815883a 	mov	r10,r7
   472a0:	3b80132e 	bgeu	r7,r14,472f0 <__mdiff+0x124>
   472a4:	3a000017 	ldw	r8,0(r7)
   472a8:	18c00104 	addi	r3,r3,4
   472ac:	39c00104 	addi	r7,r7,4
   472b0:	41bfffcc 	andi	r6,r8,65535
   472b4:	310d883a 	add	r6,r6,r4
   472b8:	3009d43a 	srai	r4,r6,16
   472bc:	4010d43a 	srli	r8,r8,16
   472c0:	19bfff0d 	sth	r6,-4(r3)
   472c4:	2209883a 	add	r4,r4,r8
   472c8:	193fff8d 	sth	r4,-2(r3)
   472cc:	2009d43a 	srai	r4,r4,16
   472d0:	3bbff436 	bltu	r7,r14,472a4 <__mdiff+0xd8>
   472d4:	0286303a 	nor	r3,zero,r10
   472d8:	1b87883a 	add	r3,r3,r14
   472dc:	1806d0ba 	srli	r3,r3,2
   472e0:	18c00044 	addi	r3,r3,1
   472e4:	18c7883a 	add	r3,r3,r3
   472e8:	18c7883a 	add	r3,r3,r3
   472ec:	28c7883a 	add	r3,r5,r3
   472f0:	193fff17 	ldw	r4,-4(r3)
   472f4:	18ffff04 	addi	r3,r3,-4
   472f8:	2000041e 	bne	r4,zero,4730c <__mdiff+0x140>
   472fc:	18ffff04 	addi	r3,r3,-4
   47300:	19000017 	ldw	r4,0(r3)
   47304:	4a7fffc4 	addi	r9,r9,-1
   47308:	203ffc26 	beq	r4,zero,472fc <__mdiff+0x130>
   4730c:	12400415 	stw	r9,16(r2)
   47310:	dfc00417 	ldw	ra,16(sp)
   47314:	dcc00317 	ldw	r19,12(sp)
   47318:	dc800217 	ldw	r18,8(sp)
   4731c:	dc400117 	ldw	r17,4(sp)
   47320:	dc000017 	ldw	r16,0(sp)
   47324:	dec00504 	addi	sp,sp,20
   47328:	f800283a 	ret
   4732c:	8005883a 	mov	r2,r16
   47330:	04c00044 	movi	r19,1
   47334:	8821883a 	mov	r16,r17
   47338:	1023883a 	mov	r17,r2
   4733c:	003fb206 	br	47208 <__mdiff+0x3c>
   47340:	9009883a 	mov	r4,r18
   47344:	000b883a 	mov	r5,zero
   47348:	00468280 	call	46828 <_Balloc>
   4734c:	00c00044 	movi	r3,1
   47350:	10c00415 	stw	r3,16(r2)
   47354:	10000515 	stw	zero,20(r2)
   47358:	dfc00417 	ldw	ra,16(sp)
   4735c:	dcc00317 	ldw	r19,12(sp)
   47360:	dc800217 	ldw	r18,8(sp)
   47364:	dc400117 	ldw	r17,4(sp)
   47368:	dc000017 	ldw	r16,0(sp)
   4736c:	dec00504 	addi	sp,sp,20
   47370:	f800283a 	ret

00047374 <__ulp>:
   47374:	295ffc2c 	andhi	r5,r5,32752
   47378:	00bf3034 	movhi	r2,64704
   4737c:	2887883a 	add	r3,r5,r2
   47380:	00c0020e 	bge	zero,r3,4738c <__ulp+0x18>
   47384:	0005883a 	mov	r2,zero
   47388:	f800283a 	ret
   4738c:	00c7c83a 	sub	r3,zero,r3
   47390:	1805d53a 	srai	r2,r3,20
   47394:	00c004c4 	movi	r3,19
   47398:	18800a0e 	bge	r3,r2,473c4 <__ulp+0x50>
   4739c:	01000c84 	movi	r4,50
   473a0:	0007883a 	mov	r3,zero
   473a4:	20800516 	blt	r4,r2,473bc <__ulp+0x48>
   473a8:	01000cc4 	movi	r4,51
   473ac:	2085c83a 	sub	r2,r4,r2
   473b0:	01000044 	movi	r4,1
   473b4:	2084983a 	sll	r2,r4,r2
   473b8:	f800283a 	ret
   473bc:	00800044 	movi	r2,1
   473c0:	f800283a 	ret
   473c4:	00c00234 	movhi	r3,8
   473c8:	1887d83a 	sra	r3,r3,r2
   473cc:	0005883a 	mov	r2,zero
   473d0:	f800283a 	ret

000473d4 <__b2d>:
   473d4:	defffa04 	addi	sp,sp,-24
   473d8:	dc000015 	stw	r16,0(sp)
   473dc:	24000417 	ldw	r16,16(r4)
   473e0:	dc400115 	stw	r17,4(sp)
   473e4:	dcc00315 	stw	r19,12(sp)
   473e8:	84000144 	addi	r16,r16,5
   473ec:	8421883a 	add	r16,r16,r16
   473f0:	8421883a 	add	r16,r16,r16
   473f4:	2421883a 	add	r16,r4,r16
   473f8:	847fff17 	ldw	r17,-4(r16)
   473fc:	24c00504 	addi	r19,r4,20
   47400:	dd000415 	stw	r20,16(sp)
   47404:	8809883a 	mov	r4,r17
   47408:	dc800215 	stw	r18,8(sp)
   4740c:	2829883a 	mov	r20,r5
   47410:	dfc00515 	stw	ra,20(sp)
   47414:	0046b400 	call	46b40 <__hi0bits>
   47418:	00c00804 	movi	r3,32
   4741c:	1887c83a 	sub	r3,r3,r2
   47420:	a0c00015 	stw	r3,0(r20)
   47424:	00c00284 	movi	r3,10
   47428:	84bfff04 	addi	r18,r16,-4
   4742c:	18801216 	blt	r3,r2,47478 <__b2d+0xa4>
   47430:	010002c4 	movi	r4,11
   47434:	2089c83a 	sub	r4,r4,r2
   47438:	8906d83a 	srl	r3,r17,r4
   4743c:	18cffc34 	orhi	r3,r3,16368
   47440:	9c80322e 	bgeu	r19,r18,4750c <__b2d+0x138>
   47444:	817ffe17 	ldw	r5,-8(r16)
   47448:	2908d83a 	srl	r4,r5,r4
   4744c:	10800544 	addi	r2,r2,21
   47450:	88a2983a 	sll	r17,r17,r2
   47454:	2444b03a 	or	r2,r4,r17
   47458:	dfc00517 	ldw	ra,20(sp)
   4745c:	dd000417 	ldw	r20,16(sp)
   47460:	dcc00317 	ldw	r19,12(sp)
   47464:	dc800217 	ldw	r18,8(sp)
   47468:	dc400117 	ldw	r17,4(sp)
   4746c:	dc000017 	ldw	r16,0(sp)
   47470:	dec00604 	addi	sp,sp,24
   47474:	f800283a 	ret
   47478:	9c801636 	bltu	r19,r18,474d4 <__b2d+0x100>
   4747c:	113ffd44 	addi	r4,r2,-11
   47480:	000b883a 	mov	r5,zero
   47484:	20001726 	beq	r4,zero,474e4 <__b2d+0x110>
   47488:	00c00ac4 	movi	r3,43
   4748c:	1885c83a 	sub	r2,r3,r2
   47490:	8906983a 	sll	r3,r17,r4
   47494:	288cd83a 	srl	r6,r5,r2
   47498:	18cffc34 	orhi	r3,r3,16368
   4749c:	1986b03a 	or	r3,r3,r6
   474a0:	9c801c2e 	bgeu	r19,r18,47514 <__b2d+0x140>
   474a4:	91bfff17 	ldw	r6,-4(r18)
   474a8:	3084d83a 	srl	r2,r6,r2
   474ac:	2908983a 	sll	r4,r5,r4
   474b0:	1104b03a 	or	r2,r2,r4
   474b4:	dfc00517 	ldw	ra,20(sp)
   474b8:	dd000417 	ldw	r20,16(sp)
   474bc:	dcc00317 	ldw	r19,12(sp)
   474c0:	dc800217 	ldw	r18,8(sp)
   474c4:	dc400117 	ldw	r17,4(sp)
   474c8:	dc000017 	ldw	r16,0(sp)
   474cc:	dec00604 	addi	sp,sp,24
   474d0:	f800283a 	ret
   474d4:	113ffd44 	addi	r4,r2,-11
   474d8:	84bffe04 	addi	r18,r16,-8
   474dc:	817ffe17 	ldw	r5,-8(r16)
   474e0:	203fe91e 	bne	r4,zero,47488 <__b2d+0xb4>
   474e4:	88cffc34 	orhi	r3,r17,16368
   474e8:	2805883a 	mov	r2,r5
   474ec:	dfc00517 	ldw	ra,20(sp)
   474f0:	dd000417 	ldw	r20,16(sp)
   474f4:	dcc00317 	ldw	r19,12(sp)
   474f8:	dc800217 	ldw	r18,8(sp)
   474fc:	dc400117 	ldw	r17,4(sp)
   47500:	dc000017 	ldw	r16,0(sp)
   47504:	dec00604 	addi	sp,sp,24
   47508:	f800283a 	ret
   4750c:	0009883a 	mov	r4,zero
   47510:	003fce06 	br	4744c <__b2d+0x78>
   47514:	0005883a 	mov	r2,zero
   47518:	003fe406 	br	474ac <__b2d+0xd8>

0004751c <__d2b>:
   4751c:	defff804 	addi	sp,sp,-32
   47520:	dc400315 	stw	r17,12(sp)
   47524:	3023883a 	mov	r17,r6
   47528:	dc800415 	stw	r18,16(sp)
   4752c:	8824907a 	slli	r18,r17,1
   47530:	dcc00515 	stw	r19,20(sp)
   47534:	2827883a 	mov	r19,r5
   47538:	9024d57a 	srli	r18,r18,21
   4753c:	01400044 	movi	r5,1
   47540:	dd000615 	stw	r20,24(sp)
   47544:	dc000215 	stw	r16,8(sp)
   47548:	dfc00715 	stw	ra,28(sp)
   4754c:	3829883a 	mov	r20,r7
   47550:	00468280 	call	46828 <_Balloc>
   47554:	1021883a 	mov	r16,r2
   47558:	00800434 	movhi	r2,16
   4755c:	10bfffc4 	addi	r2,r2,-1
   47560:	88a2703a 	and	r17,r17,r2
   47564:	90000126 	beq	r18,zero,4756c <__d2b+0x50>
   47568:	8c400434 	orhi	r17,r17,16
   4756c:	dc400015 	stw	r17,0(sp)
   47570:	98002226 	beq	r19,zero,475fc <__d2b+0xe0>
   47574:	d9000104 	addi	r4,sp,4
   47578:	dcc00115 	stw	r19,4(sp)
   4757c:	0046ba80 	call	46ba8 <__lo0bits>
   47580:	d8c00017 	ldw	r3,0(sp)
   47584:	10002d1e 	bne	r2,zero,4763c <__d2b+0x120>
   47588:	d9000117 	ldw	r4,4(sp)
   4758c:	81000515 	stw	r4,20(r16)
   47590:	1823003a 	cmpeq	r17,r3,zero
   47594:	01000084 	movi	r4,2
   47598:	2463c83a 	sub	r17,r4,r17
   4759c:	80c00615 	stw	r3,24(r16)
   475a0:	84400415 	stw	r17,16(r16)
   475a4:	90001d1e 	bne	r18,zero,4761c <__d2b+0x100>
   475a8:	88c00104 	addi	r3,r17,4
   475ac:	18c7883a 	add	r3,r3,r3
   475b0:	18c7883a 	add	r3,r3,r3
   475b4:	80c7883a 	add	r3,r16,r3
   475b8:	19000017 	ldw	r4,0(r3)
   475bc:	10bef384 	addi	r2,r2,-1074
   475c0:	a0800015 	stw	r2,0(r20)
   475c4:	0046b400 	call	46b40 <__hi0bits>
   475c8:	8822917a 	slli	r17,r17,5
   475cc:	d8c00817 	ldw	r3,32(sp)
   475d0:	8885c83a 	sub	r2,r17,r2
   475d4:	18800015 	stw	r2,0(r3)
   475d8:	8005883a 	mov	r2,r16
   475dc:	dfc00717 	ldw	ra,28(sp)
   475e0:	dd000617 	ldw	r20,24(sp)
   475e4:	dcc00517 	ldw	r19,20(sp)
   475e8:	dc800417 	ldw	r18,16(sp)
   475ec:	dc400317 	ldw	r17,12(sp)
   475f0:	dc000217 	ldw	r16,8(sp)
   475f4:	dec00804 	addi	sp,sp,32
   475f8:	f800283a 	ret
   475fc:	d809883a 	mov	r4,sp
   47600:	0046ba80 	call	46ba8 <__lo0bits>
   47604:	d8c00017 	ldw	r3,0(sp)
   47608:	04400044 	movi	r17,1
   4760c:	84400415 	stw	r17,16(r16)
   47610:	80c00515 	stw	r3,20(r16)
   47614:	10800804 	addi	r2,r2,32
   47618:	903fe326 	beq	r18,zero,475a8 <__d2b+0x8c>
   4761c:	00c00d44 	movi	r3,53
   47620:	94bef344 	addi	r18,r18,-1075
   47624:	90a5883a 	add	r18,r18,r2
   47628:	1885c83a 	sub	r2,r3,r2
   4762c:	d8c00817 	ldw	r3,32(sp)
   47630:	a4800015 	stw	r18,0(r20)
   47634:	18800015 	stw	r2,0(r3)
   47638:	003fe706 	br	475d8 <__d2b+0xbc>
   4763c:	01000804 	movi	r4,32
   47640:	2089c83a 	sub	r4,r4,r2
   47644:	1908983a 	sll	r4,r3,r4
   47648:	d9400117 	ldw	r5,4(sp)
   4764c:	1886d83a 	srl	r3,r3,r2
   47650:	2148b03a 	or	r4,r4,r5
   47654:	81000515 	stw	r4,20(r16)
   47658:	d8c00015 	stw	r3,0(sp)
   4765c:	003fcc06 	br	47590 <__d2b+0x74>

00047660 <__ratio>:
   47660:	defff904 	addi	sp,sp,-28
   47664:	dc400315 	stw	r17,12(sp)
   47668:	2823883a 	mov	r17,r5
   4766c:	d9400104 	addi	r5,sp,4
   47670:	dfc00615 	stw	ra,24(sp)
   47674:	dcc00515 	stw	r19,20(sp)
   47678:	dc800415 	stw	r18,16(sp)
   4767c:	2027883a 	mov	r19,r4
   47680:	dc000215 	stw	r16,8(sp)
   47684:	00473d40 	call	473d4 <__b2d>
   47688:	8809883a 	mov	r4,r17
   4768c:	d80b883a 	mov	r5,sp
   47690:	1025883a 	mov	r18,r2
   47694:	1821883a 	mov	r16,r3
   47698:	00473d40 	call	473d4 <__b2d>
   4769c:	99400417 	ldw	r5,16(r19)
   476a0:	89000417 	ldw	r4,16(r17)
   476a4:	d9800117 	ldw	r6,4(sp)
   476a8:	2909c83a 	sub	r4,r5,r4
   476ac:	d9400017 	ldw	r5,0(sp)
   476b0:	2008917a 	slli	r4,r4,5
   476b4:	314bc83a 	sub	r5,r6,r5
   476b8:	290b883a 	add	r5,r5,r4
   476bc:	01400e0e 	bge	zero,r5,476f8 <__ratio+0x98>
   476c0:	280a953a 	slli	r5,r5,20
   476c4:	2c21883a 	add	r16,r5,r16
   476c8:	9009883a 	mov	r4,r18
   476cc:	800b883a 	mov	r5,r16
   476d0:	100d883a 	mov	r6,r2
   476d4:	180f883a 	mov	r7,r3
   476d8:	00499140 	call	49914 <__divdf3>
   476dc:	dfc00617 	ldw	ra,24(sp)
   476e0:	dcc00517 	ldw	r19,20(sp)
   476e4:	dc800417 	ldw	r18,16(sp)
   476e8:	dc400317 	ldw	r17,12(sp)
   476ec:	dc000217 	ldw	r16,8(sp)
   476f0:	dec00704 	addi	sp,sp,28
   476f4:	f800283a 	ret
   476f8:	280a953a 	slli	r5,r5,20
   476fc:	1947c83a 	sub	r3,r3,r5
   47700:	003ff106 	br	476c8 <__ratio+0x68>

00047704 <_mprec_log10>:
   47704:	defffe04 	addi	sp,sp,-8
   47708:	dc000015 	stw	r16,0(sp)
   4770c:	dfc00115 	stw	ra,4(sp)
   47710:	008005c4 	movi	r2,23
   47714:	2021883a 	mov	r16,r4
   47718:	11000d0e 	bge	r2,r4,47750 <_mprec_log10+0x4c>
   4771c:	0005883a 	mov	r2,zero
   47720:	00cffc34 	movhi	r3,16368
   47724:	843fffc4 	addi	r16,r16,-1
   47728:	1009883a 	mov	r4,r2
   4772c:	180b883a 	mov	r5,r3
   47730:	000d883a 	mov	r6,zero
   47734:	01d00934 	movhi	r7,16420
   47738:	00496300 	call	49630 <__muldf3>
   4773c:	803ff91e 	bne	r16,zero,47724 <_mprec_log10+0x20>
   47740:	dfc00117 	ldw	ra,4(sp)
   47744:	dc000017 	ldw	r16,0(sp)
   47748:	dec00204 	addi	sp,sp,8
   4774c:	f800283a 	ret
   47750:	202090fa 	slli	r16,r4,3
   47754:	00800174 	movhi	r2,5
   47758:	10b53504 	addi	r2,r2,-11052
   4775c:	1421883a 	add	r16,r2,r16
   47760:	80800017 	ldw	r2,0(r16)
   47764:	80c00117 	ldw	r3,4(r16)
   47768:	dfc00117 	ldw	ra,4(sp)
   4776c:	dc000017 	ldw	r16,0(sp)
   47770:	dec00204 	addi	sp,sp,8
   47774:	f800283a 	ret

00047778 <__copybits>:
   47778:	297fffc4 	addi	r5,r5,-1
   4777c:	31c00417 	ldw	r7,16(r6)
   47780:	2811d17a 	srai	r8,r5,5
   47784:	30800504 	addi	r2,r6,20
   47788:	39c00144 	addi	r7,r7,5
   4778c:	42000044 	addi	r8,r8,1
   47790:	39cf883a 	add	r7,r7,r7
   47794:	4211883a 	add	r8,r8,r8
   47798:	39cf883a 	add	r7,r7,r7
   4779c:	4211883a 	add	r8,r8,r8
   477a0:	31cf883a 	add	r7,r6,r7
   477a4:	2211883a 	add	r8,r4,r8
   477a8:	11c00d2e 	bgeu	r2,r7,477e0 <__copybits+0x68>
   477ac:	2007883a 	mov	r3,r4
   477b0:	11400017 	ldw	r5,0(r2)
   477b4:	18c00104 	addi	r3,r3,4
   477b8:	10800104 	addi	r2,r2,4
   477bc:	197fff15 	stw	r5,-4(r3)
   477c0:	11fffb36 	bltu	r2,r7,477b0 <__copybits+0x38>
   477c4:	3985c83a 	sub	r2,r7,r6
   477c8:	10bffac4 	addi	r2,r2,-21
   477cc:	1004d0ba 	srli	r2,r2,2
   477d0:	10800044 	addi	r2,r2,1
   477d4:	1085883a 	add	r2,r2,r2
   477d8:	1085883a 	add	r2,r2,r2
   477dc:	2089883a 	add	r4,r4,r2
   477e0:	2200032e 	bgeu	r4,r8,477f0 <__copybits+0x78>
   477e4:	20000015 	stw	zero,0(r4)
   477e8:	21000104 	addi	r4,r4,4
   477ec:	223ffd36 	bltu	r4,r8,477e4 <__copybits+0x6c>
   477f0:	f800283a 	ret

000477f4 <__any_on>:
   477f4:	21800417 	ldw	r6,16(r4)
   477f8:	2805d17a 	srai	r2,r5,5
   477fc:	20c00504 	addi	r3,r4,20
   47800:	30800f0e 	bge	r6,r2,47840 <__any_on+0x4c>
   47804:	3005883a 	mov	r2,r6
   47808:	10800144 	addi	r2,r2,5
   4780c:	1085883a 	add	r2,r2,r2
   47810:	1085883a 	add	r2,r2,r2
   47814:	2089883a 	add	r4,r4,r2
   47818:	1900152e 	bgeu	r3,r4,47870 <__any_on+0x7c>
   4781c:	20bfff17 	ldw	r2,-4(r4)
   47820:	213fff04 	addi	r4,r4,-4
   47824:	1000041e 	bne	r2,zero,47838 <__any_on+0x44>
   47828:	1900112e 	bgeu	r3,r4,47870 <__any_on+0x7c>
   4782c:	213fff04 	addi	r4,r4,-4
   47830:	20800017 	ldw	r2,0(r4)
   47834:	103ffc26 	beq	r2,zero,47828 <__any_on+0x34>
   47838:	00800044 	movi	r2,1
   4783c:	f800283a 	ret
   47840:	11bff10e 	bge	r2,r6,47808 <__any_on+0x14>
   47844:	294007cc 	andi	r5,r5,31
   47848:	283fef26 	beq	r5,zero,47808 <__any_on+0x14>
   4784c:	11800144 	addi	r6,r2,5
   47850:	318d883a 	add	r6,r6,r6
   47854:	318d883a 	add	r6,r6,r6
   47858:	218d883a 	add	r6,r4,r6
   4785c:	31800017 	ldw	r6,0(r6)
   47860:	314ed83a 	srl	r7,r6,r5
   47864:	394a983a 	sll	r5,r7,r5
   47868:	29bff31e 	bne	r5,r6,47838 <__any_on+0x44>
   4786c:	003fe606 	br	47808 <__any_on+0x14>
   47870:	0005883a 	mov	r2,zero
   47874:	f800283a 	ret

00047878 <_realloc_r>:
   47878:	defff504 	addi	sp,sp,-44
   4787c:	dd400615 	stw	r21,24(sp)
   47880:	dc800315 	stw	r18,12(sp)
   47884:	dc000115 	stw	r16,4(sp)
   47888:	dfc00a15 	stw	ra,40(sp)
   4788c:	df000915 	stw	fp,36(sp)
   47890:	ddc00815 	stw	r23,32(sp)
   47894:	dd800715 	stw	r22,28(sp)
   47898:	dd000515 	stw	r20,20(sp)
   4789c:	dcc00415 	stw	r19,16(sp)
   478a0:	dc400215 	stw	r17,8(sp)
   478a4:	2821883a 	mov	r16,r5
   478a8:	202b883a 	mov	r21,r4
   478ac:	3025883a 	mov	r18,r6
   478b0:	28009626 	beq	r5,zero,47b0c <_realloc_r+0x294>
   478b4:	004aba40 	call	4aba4 <__malloc_lock>
   478b8:	80bfff17 	ldw	r2,-4(r16)
   478bc:	04ffff04 	movi	r19,-4
   478c0:	90c002c4 	addi	r3,r18,11
   478c4:	01000584 	movi	r4,22
   478c8:	85bffe04 	addi	r22,r16,-8
   478cc:	14e6703a 	and	r19,r2,r19
   478d0:	20c0372e 	bgeu	r4,r3,479b0 <_realloc_r+0x138>
   478d4:	047ffe04 	movi	r17,-8
   478d8:	1c62703a 	and	r17,r3,r17
   478dc:	8807883a 	mov	r3,r17
   478e0:	88005a16 	blt	r17,zero,47a4c <_realloc_r+0x1d4>
   478e4:	8c805936 	bltu	r17,r18,47a4c <_realloc_r+0x1d4>
   478e8:	98c0340e 	bge	r19,r3,479bc <_realloc_r+0x144>
   478ec:	07000174 	movhi	fp,5
   478f0:	e736bd04 	addi	fp,fp,-9484
   478f4:	e1400217 	ldw	r5,8(fp)
   478f8:	b4c9883a 	add	r4,r22,r19
   478fc:	29009026 	beq	r5,r4,47b40 <_realloc_r+0x2c8>
   47900:	21800117 	ldw	r6,4(r4)
   47904:	01ffff84 	movi	r7,-2
   47908:	31ce703a 	and	r7,r6,r7
   4790c:	21cf883a 	add	r7,r4,r7
   47910:	39c00117 	ldw	r7,4(r7)
   47914:	39c0004c 	andi	r7,r7,1
   47918:	38004326 	beq	r7,zero,47a28 <_realloc_r+0x1b0>
   4791c:	000d883a 	mov	r6,zero
   47920:	0009883a 	mov	r4,zero
   47924:	1080004c 	andi	r2,r2,1
   47928:	10005a1e 	bne	r2,zero,47a94 <_realloc_r+0x21c>
   4792c:	85fffe17 	ldw	r23,-8(r16)
   47930:	00bfff04 	movi	r2,-4
   47934:	b5efc83a 	sub	r23,r22,r23
   47938:	b9c00117 	ldw	r7,4(r23)
   4793c:	388e703a 	and	r7,r7,r2
   47940:	3ccf883a 	add	r7,r7,r19
   47944:	20005226 	beq	r4,zero,47a90 <_realloc_r+0x218>
   47948:	31e9883a 	add	r20,r6,r7
   4794c:	2140c726 	beq	r4,r5,47c6c <_realloc_r+0x3f4>
   47950:	a0c04f16 	blt	r20,r3,47a90 <_realloc_r+0x218>
   47954:	20800317 	ldw	r2,12(r4)
   47958:	20c00217 	ldw	r3,8(r4)
   4795c:	99bfff04 	addi	r6,r19,-4
   47960:	01000904 	movi	r4,36
   47964:	18800315 	stw	r2,12(r3)
   47968:	10c00215 	stw	r3,8(r2)
   4796c:	b8c00217 	ldw	r3,8(r23)
   47970:	b8800317 	ldw	r2,12(r23)
   47974:	bc800204 	addi	r18,r23,8
   47978:	18800315 	stw	r2,12(r3)
   4797c:	10c00215 	stw	r3,8(r2)
   47980:	2180ed36 	bltu	r4,r6,47d38 <_realloc_r+0x4c0>
   47984:	008004c4 	movi	r2,19
   47988:	11809b2e 	bgeu	r2,r6,47bf8 <_realloc_r+0x380>
   4798c:	80800017 	ldw	r2,0(r16)
   47990:	b8800215 	stw	r2,8(r23)
   47994:	80800117 	ldw	r2,4(r16)
   47998:	b8800315 	stw	r2,12(r23)
   4799c:	008006c4 	movi	r2,27
   479a0:	1180f936 	bltu	r2,r6,47d88 <_realloc_r+0x510>
   479a4:	b8800404 	addi	r2,r23,16
   479a8:	80c00204 	addi	r3,r16,8
   479ac:	00009406 	br	47c00 <_realloc_r+0x388>
   479b0:	00c00404 	movi	r3,16
   479b4:	1823883a 	mov	r17,r3
   479b8:	003fca06 	br	478e4 <_realloc_r+0x6c>
   479bc:	9829883a 	mov	r20,r19
   479c0:	a447c83a 	sub	r3,r20,r17
   479c4:	010003c4 	movi	r4,15
   479c8:	1080004c 	andi	r2,r2,1
   479cc:	20c02336 	bltu	r4,r3,47a5c <_realloc_r+0x1e4>
   479d0:	1504b03a 	or	r2,r2,r20
   479d4:	b0800115 	stw	r2,4(r22)
   479d8:	b52d883a 	add	r22,r22,r20
   479dc:	b0800117 	ldw	r2,4(r22)
   479e0:	10800054 	ori	r2,r2,1
   479e4:	b0800115 	stw	r2,4(r22)
   479e8:	a809883a 	mov	r4,r21
   479ec:	004abc40 	call	4abc4 <__malloc_unlock>
   479f0:	8025883a 	mov	r18,r16
   479f4:	9005883a 	mov	r2,r18
   479f8:	dfc00a17 	ldw	ra,40(sp)
   479fc:	df000917 	ldw	fp,36(sp)
   47a00:	ddc00817 	ldw	r23,32(sp)
   47a04:	dd800717 	ldw	r22,28(sp)
   47a08:	dd400617 	ldw	r21,24(sp)
   47a0c:	dd000517 	ldw	r20,20(sp)
   47a10:	dcc00417 	ldw	r19,16(sp)
   47a14:	dc800317 	ldw	r18,12(sp)
   47a18:	dc400217 	ldw	r17,8(sp)
   47a1c:	dc000117 	ldw	r16,4(sp)
   47a20:	dec00b04 	addi	sp,sp,44
   47a24:	f800283a 	ret
   47a28:	01ffff04 	movi	r7,-4
   47a2c:	31cc703a 	and	r6,r6,r7
   47a30:	34e9883a 	add	r20,r6,r19
   47a34:	a0ffbb16 	blt	r20,r3,47924 <_realloc_r+0xac>
   47a38:	20c00317 	ldw	r3,12(r4)
   47a3c:	21000217 	ldw	r4,8(r4)
   47a40:	20c00315 	stw	r3,12(r4)
   47a44:	19000215 	stw	r4,8(r3)
   47a48:	003fdd06 	br	479c0 <_realloc_r+0x148>
   47a4c:	00800304 	movi	r2,12
   47a50:	a8800015 	stw	r2,0(r21)
   47a54:	0025883a 	mov	r18,zero
   47a58:	003fe606 	br	479f4 <_realloc_r+0x17c>
   47a5c:	1444b03a 	or	r2,r2,r17
   47a60:	b0800115 	stw	r2,4(r22)
   47a64:	b44b883a 	add	r5,r22,r17
   47a68:	18800054 	ori	r2,r3,1
   47a6c:	28800115 	stw	r2,4(r5)
   47a70:	28c7883a 	add	r3,r5,r3
   47a74:	18800117 	ldw	r2,4(r3)
   47a78:	a809883a 	mov	r4,r21
   47a7c:	29400204 	addi	r5,r5,8
   47a80:	10800054 	ori	r2,r2,1
   47a84:	18800115 	stw	r2,4(r3)
   47a88:	004506c0 	call	4506c <_free_r>
   47a8c:	003fd606 	br	479e8 <_realloc_r+0x170>
   47a90:	38c0330e 	bge	r7,r3,47b60 <_realloc_r+0x2e8>
   47a94:	900b883a 	mov	r5,r18
   47a98:	a809883a 	mov	r4,r21
   47a9c:	0045c040 	call	45c04 <_malloc_r>
   47aa0:	1025883a 	mov	r18,r2
   47aa4:	10001626 	beq	r2,zero,47b00 <_realloc_r+0x288>
   47aa8:	80bfff17 	ldw	r2,-4(r16)
   47aac:	00ffff84 	movi	r3,-2
   47ab0:	913ffe04 	addi	r4,r18,-8
   47ab4:	10c6703a 	and	r3,r2,r3
   47ab8:	b0c7883a 	add	r3,r22,r3
   47abc:	20c09926 	beq	r4,r3,47d24 <_realloc_r+0x4ac>
   47ac0:	99bfff04 	addi	r6,r19,-4
   47ac4:	00800904 	movi	r2,36
   47ac8:	11806436 	bltu	r2,r6,47c5c <_realloc_r+0x3e4>
   47acc:	00c004c4 	movi	r3,19
   47ad0:	19804036 	bltu	r3,r6,47bd4 <_realloc_r+0x35c>
   47ad4:	9005883a 	mov	r2,r18
   47ad8:	8007883a 	mov	r3,r16
   47adc:	19000017 	ldw	r4,0(r3)
   47ae0:	11000015 	stw	r4,0(r2)
   47ae4:	19000117 	ldw	r4,4(r3)
   47ae8:	11000115 	stw	r4,4(r2)
   47aec:	18c00217 	ldw	r3,8(r3)
   47af0:	10c00215 	stw	r3,8(r2)
   47af4:	a809883a 	mov	r4,r21
   47af8:	800b883a 	mov	r5,r16
   47afc:	004506c0 	call	4506c <_free_r>
   47b00:	a809883a 	mov	r4,r21
   47b04:	004abc40 	call	4abc4 <__malloc_unlock>
   47b08:	003fba06 	br	479f4 <_realloc_r+0x17c>
   47b0c:	300b883a 	mov	r5,r6
   47b10:	dfc00a17 	ldw	ra,40(sp)
   47b14:	df000917 	ldw	fp,36(sp)
   47b18:	ddc00817 	ldw	r23,32(sp)
   47b1c:	dd800717 	ldw	r22,28(sp)
   47b20:	dd400617 	ldw	r21,24(sp)
   47b24:	dd000517 	ldw	r20,20(sp)
   47b28:	dcc00417 	ldw	r19,16(sp)
   47b2c:	dc800317 	ldw	r18,12(sp)
   47b30:	dc400217 	ldw	r17,8(sp)
   47b34:	dc000117 	ldw	r16,4(sp)
   47b38:	dec00b04 	addi	sp,sp,44
   47b3c:	0045c041 	jmpi	45c04 <_malloc_r>
   47b40:	29800117 	ldw	r6,4(r5)
   47b44:	013fff04 	movi	r4,-4
   47b48:	89c00404 	addi	r7,r17,16
   47b4c:	310c703a 	and	r6,r6,r4
   47b50:	34c9883a 	add	r4,r6,r19
   47b54:	21c0340e 	bge	r4,r7,47c28 <_realloc_r+0x3b0>
   47b58:	2809883a 	mov	r4,r5
   47b5c:	003f7106 	br	47924 <_realloc_r+0xac>
   47b60:	b8800317 	ldw	r2,12(r23)
   47b64:	b8c00217 	ldw	r3,8(r23)
   47b68:	99bfff04 	addi	r6,r19,-4
   47b6c:	01000904 	movi	r4,36
   47b70:	18800315 	stw	r2,12(r3)
   47b74:	10c00215 	stw	r3,8(r2)
   47b78:	bc800204 	addi	r18,r23,8
   47b7c:	21807836 	bltu	r4,r6,47d60 <_realloc_r+0x4e8>
   47b80:	008004c4 	movi	r2,19
   47b84:	1180732e 	bgeu	r2,r6,47d54 <_realloc_r+0x4dc>
   47b88:	80800017 	ldw	r2,0(r16)
   47b8c:	b8800215 	stw	r2,8(r23)
   47b90:	80800117 	ldw	r2,4(r16)
   47b94:	b8800315 	stw	r2,12(r23)
   47b98:	008006c4 	movi	r2,27
   47b9c:	11808936 	bltu	r2,r6,47dc4 <_realloc_r+0x54c>
   47ba0:	b8800404 	addi	r2,r23,16
   47ba4:	80c00204 	addi	r3,r16,8
   47ba8:	19000017 	ldw	r4,0(r3)
   47bac:	9021883a 	mov	r16,r18
   47bb0:	3829883a 	mov	r20,r7
   47bb4:	11000015 	stw	r4,0(r2)
   47bb8:	19000117 	ldw	r4,4(r3)
   47bbc:	b82d883a 	mov	r22,r23
   47bc0:	11000115 	stw	r4,4(r2)
   47bc4:	18c00217 	ldw	r3,8(r3)
   47bc8:	10c00215 	stw	r3,8(r2)
   47bcc:	b8800117 	ldw	r2,4(r23)
   47bd0:	003f7b06 	br	479c0 <_realloc_r+0x148>
   47bd4:	80c00017 	ldw	r3,0(r16)
   47bd8:	90c00015 	stw	r3,0(r18)
   47bdc:	80c00117 	ldw	r3,4(r16)
   47be0:	90c00115 	stw	r3,4(r18)
   47be4:	00c006c4 	movi	r3,27
   47be8:	19804636 	bltu	r3,r6,47d04 <_realloc_r+0x48c>
   47bec:	90800204 	addi	r2,r18,8
   47bf0:	80c00204 	addi	r3,r16,8
   47bf4:	003fb906 	br	47adc <_realloc_r+0x264>
   47bf8:	9005883a 	mov	r2,r18
   47bfc:	8007883a 	mov	r3,r16
   47c00:	19000017 	ldw	r4,0(r3)
   47c04:	9021883a 	mov	r16,r18
   47c08:	b82d883a 	mov	r22,r23
   47c0c:	11000015 	stw	r4,0(r2)
   47c10:	19000117 	ldw	r4,4(r3)
   47c14:	11000115 	stw	r4,4(r2)
   47c18:	18c00217 	ldw	r3,8(r3)
   47c1c:	10c00215 	stw	r3,8(r2)
   47c20:	b8800117 	ldw	r2,4(r23)
   47c24:	003f6606 	br	479c0 <_realloc_r+0x148>
   47c28:	2445c83a 	sub	r2,r4,r17
   47c2c:	b46d883a 	add	r22,r22,r17
   47c30:	10800054 	ori	r2,r2,1
   47c34:	b0800115 	stw	r2,4(r22)
   47c38:	80bfff17 	ldw	r2,-4(r16)
   47c3c:	a809883a 	mov	r4,r21
   47c40:	e5800215 	stw	r22,8(fp)
   47c44:	1080004c 	andi	r2,r2,1
   47c48:	88a2b03a 	or	r17,r17,r2
   47c4c:	847fff15 	stw	r17,-4(r16)
   47c50:	004abc40 	call	4abc4 <__malloc_unlock>
   47c54:	8025883a 	mov	r18,r16
   47c58:	003f6606 	br	479f4 <_realloc_r+0x17c>
   47c5c:	9009883a 	mov	r4,r18
   47c60:	800b883a 	mov	r5,r16
   47c64:	00465c00 	call	465c0 <memmove>
   47c68:	003fa206 	br	47af4 <_realloc_r+0x27c>
   47c6c:	88800404 	addi	r2,r17,16
   47c70:	a0bf8716 	blt	r20,r2,47a90 <_realloc_r+0x218>
   47c74:	b8800317 	ldw	r2,12(r23)
   47c78:	b8c00217 	ldw	r3,8(r23)
   47c7c:	99bfff04 	addi	r6,r19,-4
   47c80:	01000904 	movi	r4,36
   47c84:	18800315 	stw	r2,12(r3)
   47c88:	10c00215 	stw	r3,8(r2)
   47c8c:	bc800204 	addi	r18,r23,8
   47c90:	21806536 	bltu	r4,r6,47e28 <_realloc_r+0x5b0>
   47c94:	008004c4 	movi	r2,19
   47c98:	1180592e 	bgeu	r2,r6,47e00 <_realloc_r+0x588>
   47c9c:	80800017 	ldw	r2,0(r16)
   47ca0:	b8800215 	stw	r2,8(r23)
   47ca4:	80800117 	ldw	r2,4(r16)
   47ca8:	b8800315 	stw	r2,12(r23)
   47cac:	008006c4 	movi	r2,27
   47cb0:	11806136 	bltu	r2,r6,47e38 <_realloc_r+0x5c0>
   47cb4:	b8800404 	addi	r2,r23,16
   47cb8:	80c00204 	addi	r3,r16,8
   47cbc:	19000017 	ldw	r4,0(r3)
   47cc0:	11000015 	stw	r4,0(r2)
   47cc4:	19000117 	ldw	r4,4(r3)
   47cc8:	11000115 	stw	r4,4(r2)
   47ccc:	18c00217 	ldw	r3,8(r3)
   47cd0:	10c00215 	stw	r3,8(r2)
   47cd4:	a447c83a 	sub	r3,r20,r17
   47cd8:	bc45883a 	add	r2,r23,r17
   47cdc:	18c00054 	ori	r3,r3,1
   47ce0:	10c00115 	stw	r3,4(r2)
   47ce4:	b8c00117 	ldw	r3,4(r23)
   47ce8:	e0800215 	stw	r2,8(fp)
   47cec:	a809883a 	mov	r4,r21
   47cf0:	1880004c 	andi	r2,r3,1
   47cf4:	88a2b03a 	or	r17,r17,r2
   47cf8:	bc400115 	stw	r17,4(r23)
   47cfc:	004abc40 	call	4abc4 <__malloc_unlock>
   47d00:	003f3c06 	br	479f4 <_realloc_r+0x17c>
   47d04:	80c00217 	ldw	r3,8(r16)
   47d08:	90c00215 	stw	r3,8(r18)
   47d0c:	80c00317 	ldw	r3,12(r16)
   47d10:	90c00315 	stw	r3,12(r18)
   47d14:	30802426 	beq	r6,r2,47da8 <_realloc_r+0x530>
   47d18:	90800404 	addi	r2,r18,16
   47d1c:	80c00404 	addi	r3,r16,16
   47d20:	003f6e06 	br	47adc <_realloc_r+0x264>
   47d24:	953fff17 	ldw	r20,-4(r18)
   47d28:	00ffff04 	movi	r3,-4
   47d2c:	a0e8703a 	and	r20,r20,r3
   47d30:	a4e9883a 	add	r20,r20,r19
   47d34:	003f2206 	br	479c0 <_realloc_r+0x148>
   47d38:	800b883a 	mov	r5,r16
   47d3c:	9009883a 	mov	r4,r18
   47d40:	00465c00 	call	465c0 <memmove>
   47d44:	9021883a 	mov	r16,r18
   47d48:	b8800117 	ldw	r2,4(r23)
   47d4c:	b82d883a 	mov	r22,r23
   47d50:	003f1b06 	br	479c0 <_realloc_r+0x148>
   47d54:	9005883a 	mov	r2,r18
   47d58:	8007883a 	mov	r3,r16
   47d5c:	003f9206 	br	47ba8 <_realloc_r+0x330>
   47d60:	800b883a 	mov	r5,r16
   47d64:	9009883a 	mov	r4,r18
   47d68:	d9c00015 	stw	r7,0(sp)
   47d6c:	00465c00 	call	465c0 <memmove>
   47d70:	d9c00017 	ldw	r7,0(sp)
   47d74:	9021883a 	mov	r16,r18
   47d78:	b8800117 	ldw	r2,4(r23)
   47d7c:	3829883a 	mov	r20,r7
   47d80:	b82d883a 	mov	r22,r23
   47d84:	003f0e06 	br	479c0 <_realloc_r+0x148>
   47d88:	80800217 	ldw	r2,8(r16)
   47d8c:	b8800415 	stw	r2,16(r23)
   47d90:	80800317 	ldw	r2,12(r16)
   47d94:	b8800515 	stw	r2,20(r23)
   47d98:	31001226 	beq	r6,r4,47de4 <_realloc_r+0x56c>
   47d9c:	b8800604 	addi	r2,r23,24
   47da0:	80c00404 	addi	r3,r16,16
   47da4:	003f9606 	br	47c00 <_realloc_r+0x388>
   47da8:	81000417 	ldw	r4,16(r16)
   47dac:	90800604 	addi	r2,r18,24
   47db0:	80c00604 	addi	r3,r16,24
   47db4:	91000415 	stw	r4,16(r18)
   47db8:	81000517 	ldw	r4,20(r16)
   47dbc:	91000515 	stw	r4,20(r18)
   47dc0:	003f4606 	br	47adc <_realloc_r+0x264>
   47dc4:	80800217 	ldw	r2,8(r16)
   47dc8:	b8800415 	stw	r2,16(r23)
   47dcc:	80800317 	ldw	r2,12(r16)
   47dd0:	b8800515 	stw	r2,20(r23)
   47dd4:	31000d26 	beq	r6,r4,47e0c <_realloc_r+0x594>
   47dd8:	b8800604 	addi	r2,r23,24
   47ddc:	80c00404 	addi	r3,r16,16
   47de0:	003f7106 	br	47ba8 <_realloc_r+0x330>
   47de4:	81000417 	ldw	r4,16(r16)
   47de8:	b8800804 	addi	r2,r23,32
   47dec:	80c00604 	addi	r3,r16,24
   47df0:	b9000615 	stw	r4,24(r23)
   47df4:	81000517 	ldw	r4,20(r16)
   47df8:	b9000715 	stw	r4,28(r23)
   47dfc:	003f8006 	br	47c00 <_realloc_r+0x388>
   47e00:	9005883a 	mov	r2,r18
   47e04:	8007883a 	mov	r3,r16
   47e08:	003fac06 	br	47cbc <_realloc_r+0x444>
   47e0c:	81000417 	ldw	r4,16(r16)
   47e10:	b8800804 	addi	r2,r23,32
   47e14:	80c00604 	addi	r3,r16,24
   47e18:	b9000615 	stw	r4,24(r23)
   47e1c:	81000517 	ldw	r4,20(r16)
   47e20:	b9000715 	stw	r4,28(r23)
   47e24:	003f6006 	br	47ba8 <_realloc_r+0x330>
   47e28:	9009883a 	mov	r4,r18
   47e2c:	800b883a 	mov	r5,r16
   47e30:	00465c00 	call	465c0 <memmove>
   47e34:	003fa706 	br	47cd4 <_realloc_r+0x45c>
   47e38:	80800217 	ldw	r2,8(r16)
   47e3c:	b8800415 	stw	r2,16(r23)
   47e40:	80800317 	ldw	r2,12(r16)
   47e44:	b8800515 	stw	r2,20(r23)
   47e48:	31000326 	beq	r6,r4,47e58 <_realloc_r+0x5e0>
   47e4c:	b8800604 	addi	r2,r23,24
   47e50:	80c00404 	addi	r3,r16,16
   47e54:	003f9906 	br	47cbc <_realloc_r+0x444>
   47e58:	81000417 	ldw	r4,16(r16)
   47e5c:	b8800804 	addi	r2,r23,32
   47e60:	80c00604 	addi	r3,r16,24
   47e64:	b9000615 	stw	r4,24(r23)
   47e68:	81000517 	ldw	r4,20(r16)
   47e6c:	b9000715 	stw	r4,28(r23)
   47e70:	003f9206 	br	47cbc <_realloc_r+0x444>

00047e74 <__isinfd>:
   47e74:	0105c83a 	sub	r2,zero,r4
   47e78:	1108b03a 	or	r4,r2,r4
   47e7c:	2004d7fa 	srli	r2,r4,31
   47e80:	00e00034 	movhi	r3,32768
   47e84:	18ffffc4 	addi	r3,r3,-1
   47e88:	28ca703a 	and	r5,r5,r3
   47e8c:	1144b03a 	or	r2,r2,r5
   47e90:	00dffc34 	movhi	r3,32752
   47e94:	1885c83a 	sub	r2,r3,r2
   47e98:	0087c83a 	sub	r3,zero,r2
   47e9c:	1884b03a 	or	r2,r3,r2
   47ea0:	1005d7fa 	srai	r2,r2,31
   47ea4:	10800044 	addi	r2,r2,1
   47ea8:	f800283a 	ret

00047eac <__isnand>:
   47eac:	0105c83a 	sub	r2,zero,r4
   47eb0:	1108b03a 	or	r4,r2,r4
   47eb4:	2004d7fa 	srli	r2,r4,31
   47eb8:	00e00034 	movhi	r3,32768
   47ebc:	18ffffc4 	addi	r3,r3,-1
   47ec0:	28ca703a 	and	r5,r5,r3
   47ec4:	1144b03a 	or	r2,r2,r5
   47ec8:	00dffc34 	movhi	r3,32752
   47ecc:	1885c83a 	sub	r2,r3,r2
   47ed0:	1004d7fa 	srli	r2,r2,31
   47ed4:	f800283a 	ret

00047ed8 <_sbrk_r>:
   47ed8:	defffd04 	addi	sp,sp,-12
   47edc:	dc400115 	stw	r17,4(sp)
   47ee0:	dc000015 	stw	r16,0(sp)
   47ee4:	2023883a 	mov	r17,r4
   47ee8:	04000174 	movhi	r16,5
   47eec:	8402ec04 	addi	r16,r16,2992
   47ef0:	2809883a 	mov	r4,r5
   47ef4:	dfc00215 	stw	ra,8(sp)
   47ef8:	80000015 	stw	zero,0(r16)
   47efc:	004ada80 	call	4ada8 <sbrk>
   47f00:	00ffffc4 	movi	r3,-1
   47f04:	10c00526 	beq	r2,r3,47f1c <_sbrk_r+0x44>
   47f08:	dfc00217 	ldw	ra,8(sp)
   47f0c:	dc400117 	ldw	r17,4(sp)
   47f10:	dc000017 	ldw	r16,0(sp)
   47f14:	dec00304 	addi	sp,sp,12
   47f18:	f800283a 	ret
   47f1c:	80c00017 	ldw	r3,0(r16)
   47f20:	183ff926 	beq	r3,zero,47f08 <_sbrk_r+0x30>
   47f24:	88c00015 	stw	r3,0(r17)
   47f28:	dfc00217 	ldw	ra,8(sp)
   47f2c:	dc400117 	ldw	r17,4(sp)
   47f30:	dc000017 	ldw	r16,0(sp)
   47f34:	dec00304 	addi	sp,sp,12
   47f38:	f800283a 	ret

00047f3c <__sread>:
   47f3c:	defffe04 	addi	sp,sp,-8
   47f40:	dc000015 	stw	r16,0(sp)
   47f44:	2821883a 	mov	r16,r5
   47f48:	2940038f 	ldh	r5,14(r5)
   47f4c:	dfc00115 	stw	ra,4(sp)
   47f50:	00485440 	call	48544 <_read_r>
   47f54:	10000716 	blt	r2,zero,47f74 <__sread+0x38>
   47f58:	80c01417 	ldw	r3,80(r16)
   47f5c:	1887883a 	add	r3,r3,r2
   47f60:	80c01415 	stw	r3,80(r16)
   47f64:	dfc00117 	ldw	ra,4(sp)
   47f68:	dc000017 	ldw	r16,0(sp)
   47f6c:	dec00204 	addi	sp,sp,8
   47f70:	f800283a 	ret
   47f74:	80c0030b 	ldhu	r3,12(r16)
   47f78:	18fbffcc 	andi	r3,r3,61439
   47f7c:	80c0030d 	sth	r3,12(r16)
   47f80:	dfc00117 	ldw	ra,4(sp)
   47f84:	dc000017 	ldw	r16,0(sp)
   47f88:	dec00204 	addi	sp,sp,8
   47f8c:	f800283a 	ret

00047f90 <__swrite>:
   47f90:	2880030b 	ldhu	r2,12(r5)
   47f94:	defffb04 	addi	sp,sp,-20
   47f98:	dcc00315 	stw	r19,12(sp)
   47f9c:	10c0400c 	andi	r3,r2,256
   47fa0:	18ffffcc 	andi	r3,r3,65535
   47fa4:	18e0001c 	xori	r3,r3,32768
   47fa8:	dc800215 	stw	r18,8(sp)
   47fac:	dc400115 	stw	r17,4(sp)
   47fb0:	dc000015 	stw	r16,0(sp)
   47fb4:	dfc00415 	stw	ra,16(sp)
   47fb8:	18e00004 	addi	r3,r3,-32768
   47fbc:	2821883a 	mov	r16,r5
   47fc0:	2027883a 	mov	r19,r4
   47fc4:	3025883a 	mov	r18,r6
   47fc8:	3823883a 	mov	r17,r7
   47fcc:	18000526 	beq	r3,zero,47fe4 <__swrite+0x54>
   47fd0:	2940038f 	ldh	r5,14(r5)
   47fd4:	000d883a 	mov	r6,zero
   47fd8:	01c00084 	movi	r7,2
   47fdc:	00484d80 	call	484d8 <_lseek_r>
   47fe0:	8080030b 	ldhu	r2,12(r16)
   47fe4:	8140038f 	ldh	r5,14(r16)
   47fe8:	10bbffcc 	andi	r2,r2,61439
   47fec:	9809883a 	mov	r4,r19
   47ff0:	900d883a 	mov	r6,r18
   47ff4:	880f883a 	mov	r7,r17
   47ff8:	8080030d 	sth	r2,12(r16)
   47ffc:	dfc00417 	ldw	ra,16(sp)
   48000:	dcc00317 	ldw	r19,12(sp)
   48004:	dc800217 	ldw	r18,8(sp)
   48008:	dc400117 	ldw	r17,4(sp)
   4800c:	dc000017 	ldw	r16,0(sp)
   48010:	dec00504 	addi	sp,sp,20
   48014:	00481201 	jmpi	48120 <_write_r>

00048018 <__sseek>:
   48018:	defffe04 	addi	sp,sp,-8
   4801c:	dc000015 	stw	r16,0(sp)
   48020:	2821883a 	mov	r16,r5
   48024:	2940038f 	ldh	r5,14(r5)
   48028:	dfc00115 	stw	ra,4(sp)
   4802c:	00484d80 	call	484d8 <_lseek_r>
   48030:	00ffffc4 	movi	r3,-1
   48034:	10c00826 	beq	r2,r3,48058 <__sseek+0x40>
   48038:	80c0030b 	ldhu	r3,12(r16)
   4803c:	80801415 	stw	r2,80(r16)
   48040:	18c40014 	ori	r3,r3,4096
   48044:	80c0030d 	sth	r3,12(r16)
   48048:	dfc00117 	ldw	ra,4(sp)
   4804c:	dc000017 	ldw	r16,0(sp)
   48050:	dec00204 	addi	sp,sp,8
   48054:	f800283a 	ret
   48058:	80c0030b 	ldhu	r3,12(r16)
   4805c:	18fbffcc 	andi	r3,r3,61439
   48060:	80c0030d 	sth	r3,12(r16)
   48064:	dfc00117 	ldw	ra,4(sp)
   48068:	dc000017 	ldw	r16,0(sp)
   4806c:	dec00204 	addi	sp,sp,8
   48070:	f800283a 	ret

00048074 <__sclose>:
   48074:	2940038f 	ldh	r5,14(r5)
   48078:	00482581 	jmpi	48258 <_close_r>

0004807c <strcmp>:
   4807c:	2904b03a 	or	r2,r5,r4
   48080:	108000cc 	andi	r2,r2,3
   48084:	1000171e 	bne	r2,zero,480e4 <strcmp+0x68>
   48088:	20800017 	ldw	r2,0(r4)
   4808c:	28c00017 	ldw	r3,0(r5)
   48090:	10c0141e 	bne	r2,r3,480e4 <strcmp+0x68>
   48094:	027fbff4 	movhi	r9,65279
   48098:	4a7fbfc4 	addi	r9,r9,-257
   4809c:	1247883a 	add	r3,r2,r9
   480a0:	0084303a 	nor	r2,zero,r2
   480a4:	1884703a 	and	r2,r3,r2
   480a8:	02202074 	movhi	r8,32897
   480ac:	42202004 	addi	r8,r8,-32640
   480b0:	1204703a 	and	r2,r2,r8
   480b4:	10000226 	beq	r2,zero,480c0 <strcmp+0x44>
   480b8:	00001706 	br	48118 <strcmp+0x9c>
   480bc:	3000161e 	bne	r6,zero,48118 <strcmp+0x9c>
   480c0:	21000104 	addi	r4,r4,4
   480c4:	20800017 	ldw	r2,0(r4)
   480c8:	29400104 	addi	r5,r5,4
   480cc:	28c00017 	ldw	r3,0(r5)
   480d0:	124f883a 	add	r7,r2,r9
   480d4:	008c303a 	nor	r6,zero,r2
   480d8:	398c703a 	and	r6,r7,r6
   480dc:	320c703a 	and	r6,r6,r8
   480e0:	10fff626 	beq	r2,r3,480bc <strcmp+0x40>
   480e4:	20800007 	ldb	r2,0(r4)
   480e8:	1000051e 	bne	r2,zero,48100 <strcmp+0x84>
   480ec:	00000606 	br	48108 <strcmp+0x8c>
   480f0:	21000044 	addi	r4,r4,1
   480f4:	20800007 	ldb	r2,0(r4)
   480f8:	29400044 	addi	r5,r5,1
   480fc:	10000226 	beq	r2,zero,48108 <strcmp+0x8c>
   48100:	28c00007 	ldb	r3,0(r5)
   48104:	10fffa26 	beq	r2,r3,480f0 <strcmp+0x74>
   48108:	20c00003 	ldbu	r3,0(r4)
   4810c:	28800003 	ldbu	r2,0(r5)
   48110:	1885c83a 	sub	r2,r3,r2
   48114:	f800283a 	ret
   48118:	0005883a 	mov	r2,zero
   4811c:	f800283a 	ret

00048120 <_write_r>:
   48120:	defffd04 	addi	sp,sp,-12
   48124:	dc400115 	stw	r17,4(sp)
   48128:	dc000015 	stw	r16,0(sp)
   4812c:	2023883a 	mov	r17,r4
   48130:	04000174 	movhi	r16,5
   48134:	8402ec04 	addi	r16,r16,2992
   48138:	2809883a 	mov	r4,r5
   4813c:	300b883a 	mov	r5,r6
   48140:	380d883a 	mov	r6,r7
   48144:	dfc00215 	stw	ra,8(sp)
   48148:	80000015 	stw	zero,0(r16)
   4814c:	004aea80 	call	4aea8 <write>
   48150:	00ffffc4 	movi	r3,-1
   48154:	10c00526 	beq	r2,r3,4816c <_write_r+0x4c>
   48158:	dfc00217 	ldw	ra,8(sp)
   4815c:	dc400117 	ldw	r17,4(sp)
   48160:	dc000017 	ldw	r16,0(sp)
   48164:	dec00304 	addi	sp,sp,12
   48168:	f800283a 	ret
   4816c:	80c00017 	ldw	r3,0(r16)
   48170:	183ff926 	beq	r3,zero,48158 <_write_r+0x38>
   48174:	88c00015 	stw	r3,0(r17)
   48178:	dfc00217 	ldw	ra,8(sp)
   4817c:	dc400117 	ldw	r17,4(sp)
   48180:	dc000017 	ldw	r16,0(sp)
   48184:	dec00304 	addi	sp,sp,12
   48188:	f800283a 	ret

0004818c <_calloc_r>:
   4818c:	defffe04 	addi	sp,sp,-8
   48190:	dc000015 	stw	r16,0(sp)
   48194:	2021883a 	mov	r16,r4
   48198:	3009883a 	mov	r4,r6
   4819c:	dfc00115 	stw	ra,4(sp)
   481a0:	0040e000 	call	40e00 <__mulsi3>
   481a4:	8009883a 	mov	r4,r16
   481a8:	100b883a 	mov	r5,r2
   481ac:	0045c040 	call	45c04 <_malloc_r>
   481b0:	1021883a 	mov	r16,r2
   481b4:	10000c26 	beq	r2,zero,481e8 <_calloc_r+0x5c>
   481b8:	11bfff17 	ldw	r6,-4(r2)
   481bc:	00ffff04 	movi	r3,-4
   481c0:	00800904 	movi	r2,36
   481c4:	30cc703a 	and	r6,r6,r3
   481c8:	30cd883a 	add	r6,r6,r3
   481cc:	11801436 	bltu	r2,r6,48220 <_calloc_r+0x94>
   481d0:	00c004c4 	movi	r3,19
   481d4:	19800936 	bltu	r3,r6,481fc <_calloc_r+0x70>
   481d8:	8005883a 	mov	r2,r16
   481dc:	10000015 	stw	zero,0(r2)
   481e0:	10000115 	stw	zero,4(r2)
   481e4:	10000215 	stw	zero,8(r2)
   481e8:	8005883a 	mov	r2,r16
   481ec:	dfc00117 	ldw	ra,4(sp)
   481f0:	dc000017 	ldw	r16,0(sp)
   481f4:	dec00204 	addi	sp,sp,8
   481f8:	f800283a 	ret
   481fc:	80000015 	stw	zero,0(r16)
   48200:	80000115 	stw	zero,4(r16)
   48204:	00c006c4 	movi	r3,27
   48208:	19800d2e 	bgeu	r3,r6,48240 <_calloc_r+0xb4>
   4820c:	80000215 	stw	zero,8(r16)
   48210:	80000315 	stw	zero,12(r16)
   48214:	30800c26 	beq	r6,r2,48248 <_calloc_r+0xbc>
   48218:	80800404 	addi	r2,r16,16
   4821c:	003fef06 	br	481dc <_calloc_r+0x50>
   48220:	8009883a 	mov	r4,r16
   48224:	000b883a 	mov	r5,zero
   48228:	004674c0 	call	4674c <memset>
   4822c:	8005883a 	mov	r2,r16
   48230:	dfc00117 	ldw	ra,4(sp)
   48234:	dc000017 	ldw	r16,0(sp)
   48238:	dec00204 	addi	sp,sp,8
   4823c:	f800283a 	ret
   48240:	80800204 	addi	r2,r16,8
   48244:	003fe506 	br	481dc <_calloc_r+0x50>
   48248:	80000415 	stw	zero,16(r16)
   4824c:	80000515 	stw	zero,20(r16)
   48250:	80800604 	addi	r2,r16,24
   48254:	003fe106 	br	481dc <_calloc_r+0x50>

00048258 <_close_r>:
   48258:	defffd04 	addi	sp,sp,-12
   4825c:	dc400115 	stw	r17,4(sp)
   48260:	dc000015 	stw	r16,0(sp)
   48264:	2023883a 	mov	r17,r4
   48268:	04000174 	movhi	r16,5
   4826c:	8402ec04 	addi	r16,r16,2992
   48270:	2809883a 	mov	r4,r5
   48274:	dfc00215 	stw	ra,8(sp)
   48278:	80000015 	stw	zero,0(r16)
   4827c:	004a5f40 	call	4a5f4 <close>
   48280:	00ffffc4 	movi	r3,-1
   48284:	10c00526 	beq	r2,r3,4829c <_close_r+0x44>
   48288:	dfc00217 	ldw	ra,8(sp)
   4828c:	dc400117 	ldw	r17,4(sp)
   48290:	dc000017 	ldw	r16,0(sp)
   48294:	dec00304 	addi	sp,sp,12
   48298:	f800283a 	ret
   4829c:	80c00017 	ldw	r3,0(r16)
   482a0:	183ff926 	beq	r3,zero,48288 <_close_r+0x30>
   482a4:	88c00015 	stw	r3,0(r17)
   482a8:	dfc00217 	ldw	ra,8(sp)
   482ac:	dc400117 	ldw	r17,4(sp)
   482b0:	dc000017 	ldw	r16,0(sp)
   482b4:	dec00304 	addi	sp,sp,12
   482b8:	f800283a 	ret

000482bc <_fclose_r>:
   482bc:	defffc04 	addi	sp,sp,-16
   482c0:	dc400115 	stw	r17,4(sp)
   482c4:	dc000015 	stw	r16,0(sp)
   482c8:	dfc00315 	stw	ra,12(sp)
   482cc:	dc800215 	stw	r18,8(sp)
   482d0:	2821883a 	mov	r16,r5
   482d4:	2023883a 	mov	r17,r4
   482d8:	28003426 	beq	r5,zero,483ac <_fclose_r+0xf0>
   482dc:	0044ef00 	call	44ef0 <__sfp_lock_acquire>
   482e0:	88000226 	beq	r17,zero,482ec <_fclose_r+0x30>
   482e4:	88800e17 	ldw	r2,56(r17)
   482e8:	10003826 	beq	r2,zero,483cc <_fclose_r+0x110>
   482ec:	8080030f 	ldh	r2,12(r16)
   482f0:	10002526 	beq	r2,zero,48388 <_fclose_r+0xcc>
   482f4:	8809883a 	mov	r4,r17
   482f8:	800b883a 	mov	r5,r16
   482fc:	0044a2c0 	call	44a2c <_fflush_r>
   48300:	1025883a 	mov	r18,r2
   48304:	80800b17 	ldw	r2,44(r16)
   48308:	10000426 	beq	r2,zero,4831c <_fclose_r+0x60>
   4830c:	81400717 	ldw	r5,28(r16)
   48310:	8809883a 	mov	r4,r17
   48314:	103ee83a 	callr	r2
   48318:	10003516 	blt	r2,zero,483f0 <_fclose_r+0x134>
   4831c:	8080030b 	ldhu	r2,12(r16)
   48320:	1080200c 	andi	r2,r2,128
   48324:	10bfffcc 	andi	r2,r2,65535
   48328:	10a0001c 	xori	r2,r2,32768
   4832c:	10a00004 	addi	r2,r2,-32768
   48330:	10002b1e 	bne	r2,zero,483e0 <_fclose_r+0x124>
   48334:	81400c17 	ldw	r5,48(r16)
   48338:	28000526 	beq	r5,zero,48350 <_fclose_r+0x94>
   4833c:	80801004 	addi	r2,r16,64
   48340:	28800226 	beq	r5,r2,4834c <_fclose_r+0x90>
   48344:	8809883a 	mov	r4,r17
   48348:	004506c0 	call	4506c <_free_r>
   4834c:	80000c15 	stw	zero,48(r16)
   48350:	81401117 	ldw	r5,68(r16)
   48354:	28000326 	beq	r5,zero,48364 <_fclose_r+0xa8>
   48358:	8809883a 	mov	r4,r17
   4835c:	004506c0 	call	4506c <_free_r>
   48360:	80001115 	stw	zero,68(r16)
   48364:	8000030d 	sth	zero,12(r16)
   48368:	0044ef40 	call	44ef4 <__sfp_lock_release>
   4836c:	9005883a 	mov	r2,r18
   48370:	dfc00317 	ldw	ra,12(sp)
   48374:	dc800217 	ldw	r18,8(sp)
   48378:	dc400117 	ldw	r17,4(sp)
   4837c:	dc000017 	ldw	r16,0(sp)
   48380:	dec00404 	addi	sp,sp,16
   48384:	f800283a 	ret
   48388:	0044ef40 	call	44ef4 <__sfp_lock_release>
   4838c:	0025883a 	mov	r18,zero
   48390:	9005883a 	mov	r2,r18
   48394:	dfc00317 	ldw	ra,12(sp)
   48398:	dc800217 	ldw	r18,8(sp)
   4839c:	dc400117 	ldw	r17,4(sp)
   483a0:	dc000017 	ldw	r16,0(sp)
   483a4:	dec00404 	addi	sp,sp,16
   483a8:	f800283a 	ret
   483ac:	0025883a 	mov	r18,zero
   483b0:	9005883a 	mov	r2,r18
   483b4:	dfc00317 	ldw	ra,12(sp)
   483b8:	dc800217 	ldw	r18,8(sp)
   483bc:	dc400117 	ldw	r17,4(sp)
   483c0:	dc000017 	ldw	r16,0(sp)
   483c4:	dec00404 	addi	sp,sp,16
   483c8:	f800283a 	ret
   483cc:	8809883a 	mov	r4,r17
   483d0:	0044ce80 	call	44ce8 <__sinit>
   483d4:	8080030f 	ldh	r2,12(r16)
   483d8:	103fc61e 	bne	r2,zero,482f4 <_fclose_r+0x38>
   483dc:	003fea06 	br	48388 <_fclose_r+0xcc>
   483e0:	81400417 	ldw	r5,16(r16)
   483e4:	8809883a 	mov	r4,r17
   483e8:	004506c0 	call	4506c <_free_r>
   483ec:	003fd106 	br	48334 <_fclose_r+0x78>
   483f0:	04bfffc4 	movi	r18,-1
   483f4:	003fc906 	br	4831c <_fclose_r+0x60>

000483f8 <fclose>:
   483f8:	00800174 	movhi	r2,5
   483fc:	10bc4204 	addi	r2,r2,-3832
   48400:	200b883a 	mov	r5,r4
   48404:	11000017 	ldw	r4,0(r2)
   48408:	00482bc1 	jmpi	482bc <_fclose_r>

0004840c <_fstat_r>:
   4840c:	defffd04 	addi	sp,sp,-12
   48410:	dc400115 	stw	r17,4(sp)
   48414:	dc000015 	stw	r16,0(sp)
   48418:	2023883a 	mov	r17,r4
   4841c:	04000174 	movhi	r16,5
   48420:	8402ec04 	addi	r16,r16,2992
   48424:	2809883a 	mov	r4,r5
   48428:	300b883a 	mov	r5,r6
   4842c:	dfc00215 	stw	ra,8(sp)
   48430:	80000015 	stw	zero,0(r16)
   48434:	004a7780 	call	4a778 <fstat>
   48438:	00ffffc4 	movi	r3,-1
   4843c:	10c00526 	beq	r2,r3,48454 <_fstat_r+0x48>
   48440:	dfc00217 	ldw	ra,8(sp)
   48444:	dc400117 	ldw	r17,4(sp)
   48448:	dc000017 	ldw	r16,0(sp)
   4844c:	dec00304 	addi	sp,sp,12
   48450:	f800283a 	ret
   48454:	80c00017 	ldw	r3,0(r16)
   48458:	183ff926 	beq	r3,zero,48440 <_fstat_r+0x34>
   4845c:	88c00015 	stw	r3,0(r17)
   48460:	dfc00217 	ldw	ra,8(sp)
   48464:	dc400117 	ldw	r17,4(sp)
   48468:	dc000017 	ldw	r16,0(sp)
   4846c:	dec00304 	addi	sp,sp,12
   48470:	f800283a 	ret

00048474 <_isatty_r>:
   48474:	defffd04 	addi	sp,sp,-12
   48478:	dc400115 	stw	r17,4(sp)
   4847c:	dc000015 	stw	r16,0(sp)
   48480:	2023883a 	mov	r17,r4
   48484:	04000174 	movhi	r16,5
   48488:	8402ec04 	addi	r16,r16,2992
   4848c:	2809883a 	mov	r4,r5
   48490:	dfc00215 	stw	ra,8(sp)
   48494:	80000015 	stw	zero,0(r16)
   48498:	004a8780 	call	4a878 <isatty>
   4849c:	00ffffc4 	movi	r3,-1
   484a0:	10c00526 	beq	r2,r3,484b8 <_isatty_r+0x44>
   484a4:	dfc00217 	ldw	ra,8(sp)
   484a8:	dc400117 	ldw	r17,4(sp)
   484ac:	dc000017 	ldw	r16,0(sp)
   484b0:	dec00304 	addi	sp,sp,12
   484b4:	f800283a 	ret
   484b8:	80c00017 	ldw	r3,0(r16)
   484bc:	183ff926 	beq	r3,zero,484a4 <_isatty_r+0x30>
   484c0:	88c00015 	stw	r3,0(r17)
   484c4:	dfc00217 	ldw	ra,8(sp)
   484c8:	dc400117 	ldw	r17,4(sp)
   484cc:	dc000017 	ldw	r16,0(sp)
   484d0:	dec00304 	addi	sp,sp,12
   484d4:	f800283a 	ret

000484d8 <_lseek_r>:
   484d8:	defffd04 	addi	sp,sp,-12
   484dc:	dc400115 	stw	r17,4(sp)
   484e0:	dc000015 	stw	r16,0(sp)
   484e4:	2023883a 	mov	r17,r4
   484e8:	04000174 	movhi	r16,5
   484ec:	8402ec04 	addi	r16,r16,2992
   484f0:	2809883a 	mov	r4,r5
   484f4:	300b883a 	mov	r5,r6
   484f8:	380d883a 	mov	r6,r7
   484fc:	dfc00215 	stw	ra,8(sp)
   48500:	80000015 	stw	zero,0(r16)
   48504:	004aa580 	call	4aa58 <lseek>
   48508:	00ffffc4 	movi	r3,-1
   4850c:	10c00526 	beq	r2,r3,48524 <_lseek_r+0x4c>
   48510:	dfc00217 	ldw	ra,8(sp)
   48514:	dc400117 	ldw	r17,4(sp)
   48518:	dc000017 	ldw	r16,0(sp)
   4851c:	dec00304 	addi	sp,sp,12
   48520:	f800283a 	ret
   48524:	80c00017 	ldw	r3,0(r16)
   48528:	183ff926 	beq	r3,zero,48510 <_lseek_r+0x38>
   4852c:	88c00015 	stw	r3,0(r17)
   48530:	dfc00217 	ldw	ra,8(sp)
   48534:	dc400117 	ldw	r17,4(sp)
   48538:	dc000017 	ldw	r16,0(sp)
   4853c:	dec00304 	addi	sp,sp,12
   48540:	f800283a 	ret

00048544 <_read_r>:
   48544:	defffd04 	addi	sp,sp,-12
   48548:	dc400115 	stw	r17,4(sp)
   4854c:	dc000015 	stw	r16,0(sp)
   48550:	2023883a 	mov	r17,r4
   48554:	04000174 	movhi	r16,5
   48558:	8402ec04 	addi	r16,r16,2992
   4855c:	2809883a 	mov	r4,r5
   48560:	300b883a 	mov	r5,r6
   48564:	380d883a 	mov	r6,r7
   48568:	dfc00215 	stw	ra,8(sp)
   4856c:	80000015 	stw	zero,0(r16)
   48570:	004ac340 	call	4ac34 <read>
   48574:	00ffffc4 	movi	r3,-1
   48578:	10c00526 	beq	r2,r3,48590 <_read_r+0x4c>
   4857c:	dfc00217 	ldw	ra,8(sp)
   48580:	dc400117 	ldw	r17,4(sp)
   48584:	dc000017 	ldw	r16,0(sp)
   48588:	dec00304 	addi	sp,sp,12
   4858c:	f800283a 	ret
   48590:	80c00017 	ldw	r3,0(r16)
   48594:	183ff926 	beq	r3,zero,4857c <_read_r+0x38>
   48598:	88c00015 	stw	r3,0(r17)
   4859c:	dfc00217 	ldw	ra,8(sp)
   485a0:	dc400117 	ldw	r17,4(sp)
   485a4:	dc000017 	ldw	r16,0(sp)
   485a8:	dec00304 	addi	sp,sp,12
   485ac:	f800283a 	ret

000485b0 <__udivdi3>:
   485b0:	defff504 	addi	sp,sp,-44
   485b4:	dd000515 	stw	r20,20(sp)
   485b8:	dcc00415 	stw	r19,16(sp)
   485bc:	dc800315 	stw	r18,12(sp)
   485c0:	dc400215 	stw	r17,8(sp)
   485c4:	dc000115 	stw	r16,4(sp)
   485c8:	dfc00a15 	stw	ra,40(sp)
   485cc:	df000915 	stw	fp,36(sp)
   485d0:	ddc00815 	stw	r23,32(sp)
   485d4:	dd800715 	stw	r22,28(sp)
   485d8:	dd400615 	stw	r21,24(sp)
   485dc:	2025883a 	mov	r18,r4
   485e0:	2823883a 	mov	r17,r5
   485e4:	3021883a 	mov	r16,r6
   485e8:	2027883a 	mov	r19,r4
   485ec:	2829883a 	mov	r20,r5
   485f0:	3800451e 	bne	r7,zero,48708 <__udivdi3+0x158>
   485f4:	2980652e 	bgeu	r5,r6,4878c <__udivdi3+0x1dc>
   485f8:	00bfffd4 	movui	r2,65535
   485fc:	1180b436 	bltu	r2,r6,488d0 <__udivdi3+0x320>
   48600:	00803fc4 	movi	r2,255
   48604:	11816636 	bltu	r2,r6,48ba0 <__udivdi3+0x5f0>
   48608:	0005883a 	mov	r2,zero
   4860c:	0007883a 	mov	r3,zero
   48610:	3084d83a 	srl	r2,r6,r2
   48614:	01000174 	movhi	r4,5
   48618:	21356f04 	addi	r4,r4,-10820
   4861c:	2085883a 	add	r2,r4,r2
   48620:	10800003 	ldbu	r2,0(r2)
   48624:	10c7883a 	add	r3,r2,r3
   48628:	00800804 	movi	r2,32
   4862c:	10c5c83a 	sub	r2,r2,r3
   48630:	10000526 	beq	r2,zero,48648 <__udivdi3+0x98>
   48634:	88a2983a 	sll	r17,r17,r2
   48638:	90c6d83a 	srl	r3,r18,r3
   4863c:	30a0983a 	sll	r16,r6,r2
   48640:	90a6983a 	sll	r19,r18,r2
   48644:	88e8b03a 	or	r20,r17,r3
   48648:	8022d43a 	srli	r17,r16,16
   4864c:	a009883a 	mov	r4,r20
   48650:	857fffcc 	andi	r21,r16,65535
   48654:	880b883a 	mov	r5,r17
   48658:	0040df80 	call	40df8 <__umodsi3>
   4865c:	a009883a 	mov	r4,r20
   48660:	880b883a 	mov	r5,r17
   48664:	102d883a 	mov	r22,r2
   48668:	0040df00 	call	40df0 <__udivsi3>
   4866c:	1009883a 	mov	r4,r2
   48670:	a80b883a 	mov	r5,r21
   48674:	1025883a 	mov	r18,r2
   48678:	0040e000 	call	40e00 <__mulsi3>
   4867c:	1009883a 	mov	r4,r2
   48680:	b006943a 	slli	r3,r22,16
   48684:	9804d43a 	srli	r2,r19,16
   48688:	1886b03a 	or	r3,r3,r2
   4868c:	1900052e 	bgeu	r3,r4,486a4 <__udivdi3+0xf4>
   48690:	1c07883a 	add	r3,r3,r16
   48694:	90bfffc4 	addi	r2,r18,-1
   48698:	1c000136 	bltu	r3,r16,486a0 <__udivdi3+0xf0>
   4869c:	19015536 	bltu	r3,r4,48bf4 <__udivdi3+0x644>
   486a0:	1025883a 	mov	r18,r2
   486a4:	1929c83a 	sub	r20,r3,r4
   486a8:	880b883a 	mov	r5,r17
   486ac:	a009883a 	mov	r4,r20
   486b0:	0040df80 	call	40df8 <__umodsi3>
   486b4:	102d883a 	mov	r22,r2
   486b8:	880b883a 	mov	r5,r17
   486bc:	a009883a 	mov	r4,r20
   486c0:	b02c943a 	slli	r22,r22,16
   486c4:	0040df00 	call	40df0 <__udivsi3>
   486c8:	1009883a 	mov	r4,r2
   486cc:	a80b883a 	mov	r5,r21
   486d0:	9cffffcc 	andi	r19,r19,65535
   486d4:	1023883a 	mov	r17,r2
   486d8:	b4e6b03a 	or	r19,r22,r19
   486dc:	0040e000 	call	40e00 <__mulsi3>
   486e0:	9880052e 	bgeu	r19,r2,486f8 <__udivdi3+0x148>
   486e4:	9c27883a 	add	r19,r19,r16
   486e8:	88ffffc4 	addi	r3,r17,-1
   486ec:	9c011436 	bltu	r19,r16,48b40 <__udivdi3+0x590>
   486f0:	9881132e 	bgeu	r19,r2,48b40 <__udivdi3+0x590>
   486f4:	8c7fff84 	addi	r17,r17,-2
   486f8:	9004943a 	slli	r2,r18,16
   486fc:	0007883a 	mov	r3,zero
   48700:	8884b03a 	or	r2,r17,r2
   48704:	00001506 	br	4875c <__udivdi3+0x1ac>
   48708:	29c06a36 	bltu	r5,r7,488b4 <__udivdi3+0x304>
   4870c:	00bfffd4 	movui	r2,65535
   48710:	11c06a2e 	bgeu	r2,r7,488bc <__udivdi3+0x30c>
   48714:	00804034 	movhi	r2,256
   48718:	10bfffc4 	addi	r2,r2,-1
   4871c:	11c11436 	bltu	r2,r7,48b70 <__udivdi3+0x5c0>
   48720:	00c00404 	movi	r3,16
   48724:	180b883a 	mov	r5,r3
   48728:	38c6d83a 	srl	r3,r7,r3
   4872c:	01000174 	movhi	r4,5
   48730:	21356f04 	addi	r4,r4,-10820
   48734:	04000804 	movi	r16,32
   48738:	20c7883a 	add	r3,r4,r3
   4873c:	18800003 	ldbu	r2,0(r3)
   48740:	1145883a 	add	r2,r2,r5
   48744:	80a1c83a 	sub	r16,r16,r2
   48748:	80006e1e 	bne	r16,zero,48904 <__udivdi3+0x354>
   4874c:	0007883a 	mov	r3,zero
   48750:	3c406a36 	bltu	r7,r17,488fc <__udivdi3+0x34c>
   48754:	9180692e 	bgeu	r18,r6,488fc <__udivdi3+0x34c>
   48758:	0005883a 	mov	r2,zero
   4875c:	dfc00a17 	ldw	ra,40(sp)
   48760:	df000917 	ldw	fp,36(sp)
   48764:	ddc00817 	ldw	r23,32(sp)
   48768:	dd800717 	ldw	r22,28(sp)
   4876c:	dd400617 	ldw	r21,24(sp)
   48770:	dd000517 	ldw	r20,20(sp)
   48774:	dcc00417 	ldw	r19,16(sp)
   48778:	dc800317 	ldw	r18,12(sp)
   4877c:	dc400217 	ldw	r17,8(sp)
   48780:	dc000117 	ldw	r16,4(sp)
   48784:	dec00b04 	addi	sp,sp,44
   48788:	f800283a 	ret
   4878c:	3000041e 	bne	r6,zero,487a0 <__udivdi3+0x1f0>
   48790:	01000044 	movi	r4,1
   48794:	000b883a 	mov	r5,zero
   48798:	0040df00 	call	40df0 <__udivsi3>
   4879c:	1021883a 	mov	r16,r2
   487a0:	00bfffd4 	movui	r2,65535
   487a4:	1400502e 	bgeu	r2,r16,488e8 <__udivdi3+0x338>
   487a8:	00804034 	movhi	r2,256
   487ac:	10bfffc4 	addi	r2,r2,-1
   487b0:	1400f536 	bltu	r2,r16,48b88 <__udivdi3+0x5d8>
   487b4:	00800404 	movi	r2,16
   487b8:	1007883a 	mov	r3,r2
   487bc:	8084d83a 	srl	r2,r16,r2
   487c0:	01000174 	movhi	r4,5
   487c4:	21356f04 	addi	r4,r4,-10820
   487c8:	2085883a 	add	r2,r4,r2
   487cc:	10800003 	ldbu	r2,0(r2)
   487d0:	10c7883a 	add	r3,r2,r3
   487d4:	00800804 	movi	r2,32
   487d8:	10c5c83a 	sub	r2,r2,r3
   487dc:	1000a01e 	bne	r2,zero,48a60 <__udivdi3+0x4b0>
   487e0:	8028d43a 	srli	r20,r16,16
   487e4:	8c23c83a 	sub	r17,r17,r16
   487e8:	857fffcc 	andi	r21,r16,65535
   487ec:	00c00044 	movi	r3,1
   487f0:	8809883a 	mov	r4,r17
   487f4:	a00b883a 	mov	r5,r20
   487f8:	d8c00015 	stw	r3,0(sp)
   487fc:	0040df80 	call	40df8 <__umodsi3>
   48800:	8809883a 	mov	r4,r17
   48804:	a00b883a 	mov	r5,r20
   48808:	102d883a 	mov	r22,r2
   4880c:	0040df00 	call	40df0 <__udivsi3>
   48810:	1009883a 	mov	r4,r2
   48814:	a80b883a 	mov	r5,r21
   48818:	1025883a 	mov	r18,r2
   4881c:	0040e000 	call	40e00 <__mulsi3>
   48820:	1009883a 	mov	r4,r2
   48824:	b00c943a 	slli	r6,r22,16
   48828:	9804d43a 	srli	r2,r19,16
   4882c:	d8c00017 	ldw	r3,0(sp)
   48830:	308cb03a 	or	r6,r6,r2
   48834:	3100052e 	bgeu	r6,r4,4884c <__udivdi3+0x29c>
   48838:	340d883a 	add	r6,r6,r16
   4883c:	90bfffc4 	addi	r2,r18,-1
   48840:	34000136 	bltu	r6,r16,48848 <__udivdi3+0x298>
   48844:	3100e836 	bltu	r6,r4,48be8 <__udivdi3+0x638>
   48848:	1025883a 	mov	r18,r2
   4884c:	3123c83a 	sub	r17,r6,r4
   48850:	8809883a 	mov	r4,r17
   48854:	a00b883a 	mov	r5,r20
   48858:	d8c00015 	stw	r3,0(sp)
   4885c:	0040df80 	call	40df8 <__umodsi3>
   48860:	102d883a 	mov	r22,r2
   48864:	8809883a 	mov	r4,r17
   48868:	a00b883a 	mov	r5,r20
   4886c:	b02c943a 	slli	r22,r22,16
   48870:	0040df00 	call	40df0 <__udivsi3>
   48874:	1009883a 	mov	r4,r2
   48878:	a80b883a 	mov	r5,r21
   4887c:	9cffffcc 	andi	r19,r19,65535
   48880:	1023883a 	mov	r17,r2
   48884:	b4e6b03a 	or	r19,r22,r19
   48888:	0040e000 	call	40e00 <__mulsi3>
   4888c:	d8c00017 	ldw	r3,0(sp)
   48890:	9880052e 	bgeu	r19,r2,488a8 <__udivdi3+0x2f8>
   48894:	9c27883a 	add	r19,r19,r16
   48898:	893fffc4 	addi	r4,r17,-1
   4889c:	9c00aa36 	bltu	r19,r16,48b48 <__udivdi3+0x598>
   488a0:	9880a92e 	bgeu	r19,r2,48b48 <__udivdi3+0x598>
   488a4:	8c7fff84 	addi	r17,r17,-2
   488a8:	9004943a 	slli	r2,r18,16
   488ac:	8884b03a 	or	r2,r17,r2
   488b0:	003faa06 	br	4875c <__udivdi3+0x1ac>
   488b4:	0007883a 	mov	r3,zero
   488b8:	003fa706 	br	48758 <__udivdi3+0x1a8>
   488bc:	00803fc4 	movi	r2,255
   488c0:	11c0ae36 	bltu	r2,r7,48b7c <__udivdi3+0x5cc>
   488c4:	0007883a 	mov	r3,zero
   488c8:	000b883a 	mov	r5,zero
   488cc:	003f9606 	br	48728 <__udivdi3+0x178>
   488d0:	00804034 	movhi	r2,256
   488d4:	10bfffc4 	addi	r2,r2,-1
   488d8:	1180ae36 	bltu	r2,r6,48b94 <__udivdi3+0x5e4>
   488dc:	00800404 	movi	r2,16
   488e0:	1007883a 	mov	r3,r2
   488e4:	003f4a06 	br	48610 <__udivdi3+0x60>
   488e8:	00803fc4 	movi	r2,255
   488ec:	1400af36 	bltu	r2,r16,48bac <__udivdi3+0x5fc>
   488f0:	0005883a 	mov	r2,zero
   488f4:	0007883a 	mov	r3,zero
   488f8:	003fb006 	br	487bc <__udivdi3+0x20c>
   488fc:	00800044 	movi	r2,1
   48900:	003f9606 	br	4875c <__udivdi3+0x1ac>
   48904:	3c0e983a 	sll	r7,r7,r16
   48908:	3086d83a 	srl	r3,r6,r2
   4890c:	88aed83a 	srl	r23,r17,r2
   48910:	9084d83a 	srl	r2,r18,r2
   48914:	38e6b03a 	or	r19,r7,r3
   48918:	9828d43a 	srli	r20,r19,16
   4891c:	8c22983a 	sll	r17,r17,r16
   48920:	b809883a 	mov	r4,r23
   48924:	a00b883a 	mov	r5,r20
   48928:	342a983a 	sll	r21,r6,r16
   4892c:	88a2b03a 	or	r17,r17,r2
   48930:	0040df80 	call	40df8 <__umodsi3>
   48934:	b809883a 	mov	r4,r23
   48938:	a00b883a 	mov	r5,r20
   4893c:	1039883a 	mov	fp,r2
   48940:	9dbfffcc 	andi	r22,r19,65535
   48944:	0040df00 	call	40df0 <__udivsi3>
   48948:	1009883a 	mov	r4,r2
   4894c:	b00b883a 	mov	r5,r22
   48950:	102f883a 	mov	r23,r2
   48954:	0040e000 	call	40e00 <__mulsi3>
   48958:	1009883a 	mov	r4,r2
   4895c:	e00e943a 	slli	r7,fp,16
   48960:	8804d43a 	srli	r2,r17,16
   48964:	388eb03a 	or	r7,r7,r2
   48968:	3900042e 	bgeu	r7,r4,4897c <__udivdi3+0x3cc>
   4896c:	3ccf883a 	add	r7,r7,r19
   48970:	b8bfffc4 	addi	r2,r23,-1
   48974:	3cc0942e 	bgeu	r7,r19,48bc8 <__udivdi3+0x618>
   48978:	102f883a 	mov	r23,r2
   4897c:	3939c83a 	sub	fp,r7,r4
   48980:	a00b883a 	mov	r5,r20
   48984:	e009883a 	mov	r4,fp
   48988:	0040df80 	call	40df8 <__umodsi3>
   4898c:	a00b883a 	mov	r5,r20
   48990:	e009883a 	mov	r4,fp
   48994:	d8800015 	stw	r2,0(sp)
   48998:	0040df00 	call	40df0 <__udivsi3>
   4899c:	1009883a 	mov	r4,r2
   489a0:	b00b883a 	mov	r5,r22
   489a4:	1029883a 	mov	r20,r2
   489a8:	0040e000 	call	40e00 <__mulsi3>
   489ac:	d8c00017 	ldw	r3,0(sp)
   489b0:	8c7fffcc 	andi	r17,r17,65535
   489b4:	1806943a 	slli	r3,r3,16
   489b8:	1c46b03a 	or	r3,r3,r17
   489bc:	1880042e 	bgeu	r3,r2,489d0 <__udivdi3+0x420>
   489c0:	1cc7883a 	add	r3,r3,r19
   489c4:	a13fffc4 	addi	r4,r20,-1
   489c8:	1cc07b2e 	bgeu	r3,r19,48bb8 <__udivdi3+0x608>
   489cc:	2029883a 	mov	r20,r4
   489d0:	b82e943a 	slli	r23,r23,16
   489d4:	a822d43a 	srli	r17,r21,16
   489d8:	ad7fffcc 	andi	r21,r21,65535
   489dc:	a5e8b03a 	or	r20,r20,r23
   489e0:	a5bfffcc 	andi	r22,r20,65535
   489e4:	b009883a 	mov	r4,r22
   489e8:	a80b883a 	mov	r5,r21
   489ec:	18afc83a 	sub	r23,r3,r2
   489f0:	a026d43a 	srli	r19,r20,16
   489f4:	0040e000 	call	40e00 <__mulsi3>
   489f8:	b009883a 	mov	r4,r22
   489fc:	880b883a 	mov	r5,r17
   48a00:	1039883a 	mov	fp,r2
   48a04:	0040e000 	call	40e00 <__mulsi3>
   48a08:	a80b883a 	mov	r5,r21
   48a0c:	9809883a 	mov	r4,r19
   48a10:	102d883a 	mov	r22,r2
   48a14:	0040e000 	call	40e00 <__mulsi3>
   48a18:	9809883a 	mov	r4,r19
   48a1c:	880b883a 	mov	r5,r17
   48a20:	102b883a 	mov	r21,r2
   48a24:	0040e000 	call	40e00 <__mulsi3>
   48a28:	100b883a 	mov	r5,r2
   48a2c:	e004d43a 	srli	r2,fp,16
   48a30:	ad89883a 	add	r4,r21,r22
   48a34:	2089883a 	add	r4,r4,r2
   48a38:	2540022e 	bgeu	r4,r21,48a44 <__udivdi3+0x494>
   48a3c:	00800074 	movhi	r2,1
   48a40:	288b883a 	add	r5,r5,r2
   48a44:	2004d43a 	srli	r2,r4,16
   48a48:	288b883a 	add	r5,r5,r2
   48a4c:	b9404536 	bltu	r23,r5,48b64 <__udivdi3+0x5b4>
   48a50:	b9403f26 	beq	r23,r5,48b50 <__udivdi3+0x5a0>
   48a54:	a005883a 	mov	r2,r20
   48a58:	0007883a 	mov	r3,zero
   48a5c:	003f3f06 	br	4875c <__udivdi3+0x1ac>
   48a60:	80a0983a 	sll	r16,r16,r2
   48a64:	88eed83a 	srl	r23,r17,r3
   48a68:	90c6d83a 	srl	r3,r18,r3
   48a6c:	8028d43a 	srli	r20,r16,16
   48a70:	88a2983a 	sll	r17,r17,r2
   48a74:	b809883a 	mov	r4,r23
   48a78:	a00b883a 	mov	r5,r20
   48a7c:	88ecb03a 	or	r22,r17,r3
   48a80:	90a6983a 	sll	r19,r18,r2
   48a84:	0040df80 	call	40df8 <__umodsi3>
   48a88:	b809883a 	mov	r4,r23
   48a8c:	a00b883a 	mov	r5,r20
   48a90:	1023883a 	mov	r17,r2
   48a94:	857fffcc 	andi	r21,r16,65535
   48a98:	0040df00 	call	40df0 <__udivsi3>
   48a9c:	1009883a 	mov	r4,r2
   48aa0:	a80b883a 	mov	r5,r21
   48aa4:	102f883a 	mov	r23,r2
   48aa8:	0040e000 	call	40e00 <__mulsi3>
   48aac:	1009883a 	mov	r4,r2
   48ab0:	880a943a 	slli	r5,r17,16
   48ab4:	b004d43a 	srli	r2,r22,16
   48ab8:	288ab03a 	or	r5,r5,r2
   48abc:	2900062e 	bgeu	r5,r4,48ad8 <__udivdi3+0x528>
   48ac0:	2c0b883a 	add	r5,r5,r16
   48ac4:	b8bfffc4 	addi	r2,r23,-1
   48ac8:	2c004536 	bltu	r5,r16,48be0 <__udivdi3+0x630>
   48acc:	2900442e 	bgeu	r5,r4,48be0 <__udivdi3+0x630>
   48ad0:	bdffff84 	addi	r23,r23,-2
   48ad4:	2c0b883a 	add	r5,r5,r16
   48ad8:	2925c83a 	sub	r18,r5,r4
   48adc:	9009883a 	mov	r4,r18
   48ae0:	a00b883a 	mov	r5,r20
   48ae4:	0040df80 	call	40df8 <__umodsi3>
   48ae8:	1023883a 	mov	r17,r2
   48aec:	9009883a 	mov	r4,r18
   48af0:	a00b883a 	mov	r5,r20
   48af4:	8822943a 	slli	r17,r17,16
   48af8:	0040df00 	call	40df0 <__udivsi3>
   48afc:	1009883a 	mov	r4,r2
   48b00:	a80b883a 	mov	r5,r21
   48b04:	b5bfffcc 	andi	r22,r22,65535
   48b08:	1025883a 	mov	r18,r2
   48b0c:	8da2b03a 	or	r17,r17,r22
   48b10:	0040e000 	call	40e00 <__mulsi3>
   48b14:	8880062e 	bgeu	r17,r2,48b30 <__udivdi3+0x580>
   48b18:	8c23883a 	add	r17,r17,r16
   48b1c:	90ffffc4 	addi	r3,r18,-1
   48b20:	8c002d36 	bltu	r17,r16,48bd8 <__udivdi3+0x628>
   48b24:	88802c2e 	bgeu	r17,r2,48bd8 <__udivdi3+0x628>
   48b28:	94bfff84 	addi	r18,r18,-2
   48b2c:	8c23883a 	add	r17,r17,r16
   48b30:	b806943a 	slli	r3,r23,16
   48b34:	88a3c83a 	sub	r17,r17,r2
   48b38:	90c6b03a 	or	r3,r18,r3
   48b3c:	003f2c06 	br	487f0 <__udivdi3+0x240>
   48b40:	1823883a 	mov	r17,r3
   48b44:	003eec06 	br	486f8 <__udivdi3+0x148>
   48b48:	2023883a 	mov	r17,r4
   48b4c:	003f5606 	br	488a8 <__udivdi3+0x2f8>
   48b50:	2008943a 	slli	r4,r4,16
   48b54:	9420983a 	sll	r16,r18,r16
   48b58:	e73fffcc 	andi	fp,fp,65535
   48b5c:	2709883a 	add	r4,r4,fp
   48b60:	813fbc2e 	bgeu	r16,r4,48a54 <__udivdi3+0x4a4>
   48b64:	a0bfffc4 	addi	r2,r20,-1
   48b68:	0007883a 	mov	r3,zero
   48b6c:	003efb06 	br	4875c <__udivdi3+0x1ac>
   48b70:	00c00604 	movi	r3,24
   48b74:	180b883a 	mov	r5,r3
   48b78:	003eeb06 	br	48728 <__udivdi3+0x178>
   48b7c:	00c00204 	movi	r3,8
   48b80:	180b883a 	mov	r5,r3
   48b84:	003ee806 	br	48728 <__udivdi3+0x178>
   48b88:	00800604 	movi	r2,24
   48b8c:	1007883a 	mov	r3,r2
   48b90:	003f0a06 	br	487bc <__udivdi3+0x20c>
   48b94:	00800604 	movi	r2,24
   48b98:	1007883a 	mov	r3,r2
   48b9c:	003e9c06 	br	48610 <__udivdi3+0x60>
   48ba0:	00800204 	movi	r2,8
   48ba4:	1007883a 	mov	r3,r2
   48ba8:	003e9906 	br	48610 <__udivdi3+0x60>
   48bac:	00800204 	movi	r2,8
   48bb0:	1007883a 	mov	r3,r2
   48bb4:	003f0106 	br	487bc <__udivdi3+0x20c>
   48bb8:	18bf842e 	bgeu	r3,r2,489cc <__udivdi3+0x41c>
   48bbc:	a53fff84 	addi	r20,r20,-2
   48bc0:	1cc7883a 	add	r3,r3,r19
   48bc4:	003f8206 	br	489d0 <__udivdi3+0x420>
   48bc8:	393f6b2e 	bgeu	r7,r4,48978 <__udivdi3+0x3c8>
   48bcc:	bdffff84 	addi	r23,r23,-2
   48bd0:	3ccf883a 	add	r7,r7,r19
   48bd4:	003f6906 	br	4897c <__udivdi3+0x3cc>
   48bd8:	1825883a 	mov	r18,r3
   48bdc:	003fd406 	br	48b30 <__udivdi3+0x580>
   48be0:	102f883a 	mov	r23,r2
   48be4:	003fbc06 	br	48ad8 <__udivdi3+0x528>
   48be8:	94bfff84 	addi	r18,r18,-2
   48bec:	340d883a 	add	r6,r6,r16
   48bf0:	003f1606 	br	4884c <__udivdi3+0x29c>
   48bf4:	94bfff84 	addi	r18,r18,-2
   48bf8:	1c07883a 	add	r3,r3,r16
   48bfc:	003ea906 	br	486a4 <__udivdi3+0xf4>

00048c00 <__umoddi3>:
   48c00:	defff304 	addi	sp,sp,-52
   48c04:	dd000715 	stw	r20,28(sp)
   48c08:	dcc00615 	stw	r19,24(sp)
   48c0c:	dc800515 	stw	r18,20(sp)
   48c10:	dc400415 	stw	r17,16(sp)
   48c14:	dc000315 	stw	r16,12(sp)
   48c18:	dfc00c15 	stw	ra,48(sp)
   48c1c:	df000b15 	stw	fp,44(sp)
   48c20:	ddc00a15 	stw	r23,40(sp)
   48c24:	dd800915 	stw	r22,36(sp)
   48c28:	dd400815 	stw	r21,32(sp)
   48c2c:	2025883a 	mov	r18,r4
   48c30:	2823883a 	mov	r17,r5
   48c34:	3021883a 	mov	r16,r6
   48c38:	2027883a 	mov	r19,r4
   48c3c:	2829883a 	mov	r20,r5
   48c40:	38003a1e 	bne	r7,zero,48d2c <__umoddi3+0x12c>
   48c44:	2980522e 	bgeu	r5,r6,48d90 <__umoddi3+0x190>
   48c48:	00bfffd4 	movui	r2,65535
   48c4c:	1180a436 	bltu	r2,r6,48ee0 <__umoddi3+0x2e0>
   48c50:	00803fc4 	movi	r2,255
   48c54:	11816036 	bltu	r2,r6,491d8 <__umoddi3+0x5d8>
   48c58:	0005883a 	mov	r2,zero
   48c5c:	0009883a 	mov	r4,zero
   48c60:	3084d83a 	srl	r2,r6,r2
   48c64:	00c00174 	movhi	r3,5
   48c68:	18f56f04 	addi	r3,r3,-10820
   48c6c:	05400804 	movi	r21,32
   48c70:	1885883a 	add	r2,r3,r2
   48c74:	10800003 	ldbu	r2,0(r2)
   48c78:	1109883a 	add	r4,r2,r4
   48c7c:	a92bc83a 	sub	r21,r21,r4
   48c80:	a8010e26 	beq	r21,zero,490bc <__umoddi3+0x4bc>
   48c84:	8d62983a 	sll	r17,r17,r21
   48c88:	9108d83a 	srl	r4,r18,r4
   48c8c:	3560983a 	sll	r16,r6,r21
   48c90:	9566983a 	sll	r19,r18,r21
   48c94:	8928b03a 	or	r20,r17,r4
   48c98:	8022d43a 	srli	r17,r16,16
   48c9c:	a009883a 	mov	r4,r20
   48ca0:	84bfffcc 	andi	r18,r16,65535
   48ca4:	880b883a 	mov	r5,r17
   48ca8:	0040df80 	call	40df8 <__umodsi3>
   48cac:	a009883a 	mov	r4,r20
   48cb0:	880b883a 	mov	r5,r17
   48cb4:	102d883a 	mov	r22,r2
   48cb8:	0040df00 	call	40df0 <__udivsi3>
   48cbc:	1009883a 	mov	r4,r2
   48cc0:	900b883a 	mov	r5,r18
   48cc4:	0040e000 	call	40e00 <__mulsi3>
   48cc8:	1009883a 	mov	r4,r2
   48ccc:	b006943a 	slli	r3,r22,16
   48cd0:	9804d43a 	srli	r2,r19,16
   48cd4:	1886b03a 	or	r3,r3,r2
   48cd8:	1900042e 	bgeu	r3,r4,48cec <__umoddi3+0xec>
   48cdc:	1c07883a 	add	r3,r3,r16
   48ce0:	1c000236 	bltu	r3,r16,48cec <__umoddi3+0xec>
   48ce4:	1900012e 	bgeu	r3,r4,48cec <__umoddi3+0xec>
   48ce8:	1c07883a 	add	r3,r3,r16
   48cec:	1929c83a 	sub	r20,r3,r4
   48cf0:	a009883a 	mov	r4,r20
   48cf4:	880b883a 	mov	r5,r17
   48cf8:	0040df80 	call	40df8 <__umodsi3>
   48cfc:	102d883a 	mov	r22,r2
   48d00:	a009883a 	mov	r4,r20
   48d04:	880b883a 	mov	r5,r17
   48d08:	b02c943a 	slli	r22,r22,16
   48d0c:	0040df00 	call	40df0 <__udivsi3>
   48d10:	1009883a 	mov	r4,r2
   48d14:	900b883a 	mov	r5,r18
   48d18:	9cffffcc 	andi	r19,r19,65535
   48d1c:	0040e000 	call	40e00 <__mulsi3>
   48d20:	b4e6b03a 	or	r19,r22,r19
   48d24:	9880572e 	bgeu	r19,r2,48e84 <__umoddi3+0x284>
   48d28:	00005206 	br	48e74 <__umoddi3+0x274>
   48d2c:	29c05936 	bltu	r5,r7,48e94 <__umoddi3+0x294>
   48d30:	00bfffd4 	movui	r2,65535
   48d34:	11c0652e 	bgeu	r2,r7,48ecc <__umoddi3+0x2cc>
   48d38:	00804034 	movhi	r2,256
   48d3c:	10bfffc4 	addi	r2,r2,-1
   48d40:	11c11936 	bltu	r2,r7,491a8 <__umoddi3+0x5a8>
   48d44:	00c00404 	movi	r3,16
   48d48:	1827883a 	mov	r19,r3
   48d4c:	38c6d83a 	srl	r3,r7,r3
   48d50:	01000174 	movhi	r4,5
   48d54:	21356f04 	addi	r4,r4,-10820
   48d58:	04000804 	movi	r16,32
   48d5c:	20c7883a 	add	r3,r4,r3
   48d60:	18800003 	ldbu	r2,0(r3)
   48d64:	14e7883a 	add	r19,r2,r19
   48d68:	84e1c83a 	sub	r16,r16,r19
   48d6c:	8000671e 	bne	r16,zero,48f0c <__umoddi3+0x30c>
   48d70:	3c400136 	bltu	r7,r17,48d78 <__umoddi3+0x178>
   48d74:	91812536 	bltu	r18,r6,4920c <__umoddi3+0x60c>
   48d78:	9185c83a 	sub	r2,r18,r6
   48d7c:	89e3c83a 	sub	r17,r17,r7
   48d80:	90a5803a 	cmpltu	r18,r18,r2
   48d84:	8ca9c83a 	sub	r20,r17,r18
   48d88:	a007883a 	mov	r3,r20
   48d8c:	00004306 	br	48e9c <__umoddi3+0x29c>
   48d90:	3000041e 	bne	r6,zero,48da4 <__umoddi3+0x1a4>
   48d94:	01000044 	movi	r4,1
   48d98:	000b883a 	mov	r5,zero
   48d9c:	0040df00 	call	40df0 <__udivsi3>
   48da0:	1021883a 	mov	r16,r2
   48da4:	00bfffd4 	movui	r2,65535
   48da8:	1400532e 	bgeu	r2,r16,48ef8 <__umoddi3+0x2f8>
   48dac:	00804034 	movhi	r2,256
   48db0:	10bfffc4 	addi	r2,r2,-1
   48db4:	14010536 	bltu	r2,r16,491cc <__umoddi3+0x5cc>
   48db8:	00800404 	movi	r2,16
   48dbc:	1007883a 	mov	r3,r2
   48dc0:	8084d83a 	srl	r2,r16,r2
   48dc4:	01000174 	movhi	r4,5
   48dc8:	21356f04 	addi	r4,r4,-10820
   48dcc:	05400804 	movi	r21,32
   48dd0:	2085883a 	add	r2,r4,r2
   48dd4:	10800003 	ldbu	r2,0(r2)
   48dd8:	10c7883a 	add	r3,r2,r3
   48ddc:	a8ebc83a 	sub	r21,r21,r3
   48de0:	a800b81e 	bne	r21,zero,490c4 <__umoddi3+0x4c4>
   48de4:	8028d43a 	srli	r20,r16,16
   48de8:	8c23c83a 	sub	r17,r17,r16
   48dec:	85bfffcc 	andi	r22,r16,65535
   48df0:	8809883a 	mov	r4,r17
   48df4:	a00b883a 	mov	r5,r20
   48df8:	0040df80 	call	40df8 <__umodsi3>
   48dfc:	8809883a 	mov	r4,r17
   48e00:	a00b883a 	mov	r5,r20
   48e04:	1025883a 	mov	r18,r2
   48e08:	0040df00 	call	40df0 <__udivsi3>
   48e0c:	1009883a 	mov	r4,r2
   48e10:	b00b883a 	mov	r5,r22
   48e14:	0040e000 	call	40e00 <__mulsi3>
   48e18:	1009883a 	mov	r4,r2
   48e1c:	9006943a 	slli	r3,r18,16
   48e20:	9804d43a 	srli	r2,r19,16
   48e24:	1886b03a 	or	r3,r3,r2
   48e28:	1900032e 	bgeu	r3,r4,48e38 <__umoddi3+0x238>
   48e2c:	1c07883a 	add	r3,r3,r16
   48e30:	1c000136 	bltu	r3,r16,48e38 <__umoddi3+0x238>
   48e34:	1900f336 	bltu	r3,r4,49204 <__umoddi3+0x604>
   48e38:	1923c83a 	sub	r17,r3,r4
   48e3c:	8809883a 	mov	r4,r17
   48e40:	a00b883a 	mov	r5,r20
   48e44:	0040df80 	call	40df8 <__umodsi3>
   48e48:	102f883a 	mov	r23,r2
   48e4c:	8809883a 	mov	r4,r17
   48e50:	a00b883a 	mov	r5,r20
   48e54:	b82e943a 	slli	r23,r23,16
   48e58:	0040df00 	call	40df0 <__udivsi3>
   48e5c:	1009883a 	mov	r4,r2
   48e60:	b00b883a 	mov	r5,r22
   48e64:	9cffffcc 	andi	r19,r19,65535
   48e68:	0040e000 	call	40e00 <__mulsi3>
   48e6c:	bce6b03a 	or	r19,r23,r19
   48e70:	9880042e 	bgeu	r19,r2,48e84 <__umoddi3+0x284>
   48e74:	9c27883a 	add	r19,r19,r16
   48e78:	9c000236 	bltu	r19,r16,48e84 <__umoddi3+0x284>
   48e7c:	9880012e 	bgeu	r19,r2,48e84 <__umoddi3+0x284>
   48e80:	9c27883a 	add	r19,r19,r16
   48e84:	9885c83a 	sub	r2,r19,r2
   48e88:	1544d83a 	srl	r2,r2,r21
   48e8c:	0007883a 	mov	r3,zero
   48e90:	00000206 	br	48e9c <__umoddi3+0x29c>
   48e94:	2005883a 	mov	r2,r4
   48e98:	2807883a 	mov	r3,r5
   48e9c:	dfc00c17 	ldw	ra,48(sp)
   48ea0:	df000b17 	ldw	fp,44(sp)
   48ea4:	ddc00a17 	ldw	r23,40(sp)
   48ea8:	dd800917 	ldw	r22,36(sp)
   48eac:	dd400817 	ldw	r21,32(sp)
   48eb0:	dd000717 	ldw	r20,28(sp)
   48eb4:	dcc00617 	ldw	r19,24(sp)
   48eb8:	dc800517 	ldw	r18,20(sp)
   48ebc:	dc400417 	ldw	r17,16(sp)
   48ec0:	dc000317 	ldw	r16,12(sp)
   48ec4:	dec00d04 	addi	sp,sp,52
   48ec8:	f800283a 	ret
   48ecc:	00803fc4 	movi	r2,255
   48ed0:	11c0b236 	bltu	r2,r7,4919c <__umoddi3+0x59c>
   48ed4:	0007883a 	mov	r3,zero
   48ed8:	0027883a 	mov	r19,zero
   48edc:	003f9b06 	br	48d4c <__umoddi3+0x14c>
   48ee0:	00804034 	movhi	r2,256
   48ee4:	10bfffc4 	addi	r2,r2,-1
   48ee8:	1180b236 	bltu	r2,r6,491b4 <__umoddi3+0x5b4>
   48eec:	00800404 	movi	r2,16
   48ef0:	1009883a 	mov	r4,r2
   48ef4:	003f5a06 	br	48c60 <__umoddi3+0x60>
   48ef8:	00803fc4 	movi	r2,255
   48efc:	1400b036 	bltu	r2,r16,491c0 <__umoddi3+0x5c0>
   48f00:	0005883a 	mov	r2,zero
   48f04:	0007883a 	mov	r3,zero
   48f08:	003fad06 	br	48dc0 <__umoddi3+0x1c0>
   48f0c:	34c4d83a 	srl	r2,r6,r19
   48f10:	3c0e983a 	sll	r7,r7,r16
   48f14:	8cf8d83a 	srl	fp,r17,r19
   48f18:	8c22983a 	sll	r17,r17,r16
   48f1c:	38a8b03a 	or	r20,r7,r2
   48f20:	a02ad43a 	srli	r21,r20,16
   48f24:	94c4d83a 	srl	r2,r18,r19
   48f28:	e009883a 	mov	r4,fp
   48f2c:	a80b883a 	mov	r5,r21
   48f30:	342c983a 	sll	r22,r6,r16
   48f34:	88a2b03a 	or	r17,r17,r2
   48f38:	0040df80 	call	40df8 <__umodsi3>
   48f3c:	e009883a 	mov	r4,fp
   48f40:	a80b883a 	mov	r5,r21
   48f44:	a5ffffcc 	andi	r23,r20,65535
   48f48:	d8800215 	stw	r2,8(sp)
   48f4c:	0040df00 	call	40df0 <__udivsi3>
   48f50:	1009883a 	mov	r4,r2
   48f54:	b80b883a 	mov	r5,r23
   48f58:	1039883a 	mov	fp,r2
   48f5c:	0040e000 	call	40e00 <__mulsi3>
   48f60:	d8c00217 	ldw	r3,8(sp)
   48f64:	1009883a 	mov	r4,r2
   48f68:	8804d43a 	srli	r2,r17,16
   48f6c:	1806943a 	slli	r3,r3,16
   48f70:	9424983a 	sll	r18,r18,r16
   48f74:	1886b03a 	or	r3,r3,r2
   48f78:	1900042e 	bgeu	r3,r4,48f8c <__umoddi3+0x38c>
   48f7c:	1d07883a 	add	r3,r3,r20
   48f80:	e0bfffc4 	addi	r2,fp,-1
   48f84:	1d009b2e 	bgeu	r3,r20,491f4 <__umoddi3+0x5f4>
   48f88:	1039883a 	mov	fp,r2
   48f8c:	1907c83a 	sub	r3,r3,r4
   48f90:	1809883a 	mov	r4,r3
   48f94:	a80b883a 	mov	r5,r21
   48f98:	d8c00215 	stw	r3,8(sp)
   48f9c:	0040df80 	call	40df8 <__umodsi3>
   48fa0:	d8c00217 	ldw	r3,8(sp)
   48fa4:	a80b883a 	mov	r5,r21
   48fa8:	d8800015 	stw	r2,0(sp)
   48fac:	1809883a 	mov	r4,r3
   48fb0:	0040df00 	call	40df0 <__udivsi3>
   48fb4:	1009883a 	mov	r4,r2
   48fb8:	b80b883a 	mov	r5,r23
   48fbc:	102b883a 	mov	r21,r2
   48fc0:	0040e000 	call	40e00 <__mulsi3>
   48fc4:	d9c00017 	ldw	r7,0(sp)
   48fc8:	8c7fffcc 	andi	r17,r17,65535
   48fcc:	380e943a 	slli	r7,r7,16
   48fd0:	3c4eb03a 	or	r7,r7,r17
   48fd4:	3880042e 	bgeu	r7,r2,48fe8 <__umoddi3+0x3e8>
   48fd8:	3d0f883a 	add	r7,r7,r20
   48fdc:	a8ffffc4 	addi	r3,r21,-1
   48fe0:	3d00802e 	bgeu	r7,r20,491e4 <__umoddi3+0x5e4>
   48fe4:	182b883a 	mov	r21,r3
   48fe8:	e038943a 	slli	fp,fp,16
   48fec:	b010d43a 	srli	r8,r22,16
   48ff0:	b1bfffcc 	andi	r6,r22,65535
   48ff4:	af2ab03a 	or	r21,r21,fp
   48ff8:	a82ed43a 	srli	r23,r21,16
   48ffc:	ad7fffcc 	andi	r21,r21,65535
   49000:	300b883a 	mov	r5,r6
   49004:	a809883a 	mov	r4,r21
   49008:	38a3c83a 	sub	r17,r7,r2
   4900c:	d9800115 	stw	r6,4(sp)
   49010:	da000015 	stw	r8,0(sp)
   49014:	0040e000 	call	40e00 <__mulsi3>
   49018:	da000017 	ldw	r8,0(sp)
   4901c:	a809883a 	mov	r4,r21
   49020:	1039883a 	mov	fp,r2
   49024:	400b883a 	mov	r5,r8
   49028:	da000215 	stw	r8,8(sp)
   4902c:	0040e000 	call	40e00 <__mulsi3>
   49030:	d9800117 	ldw	r6,4(sp)
   49034:	b809883a 	mov	r4,r23
   49038:	d8800015 	stw	r2,0(sp)
   4903c:	300b883a 	mov	r5,r6
   49040:	0040e000 	call	40e00 <__mulsi3>
   49044:	d8c00217 	ldw	r3,8(sp)
   49048:	b809883a 	mov	r4,r23
   4904c:	102b883a 	mov	r21,r2
   49050:	180b883a 	mov	r5,r3
   49054:	0040e000 	call	40e00 <__mulsi3>
   49058:	d9c00017 	ldw	r7,0(sp)
   4905c:	1007883a 	mov	r3,r2
   49060:	e004d43a 	srli	r2,fp,16
   49064:	a9c9883a 	add	r4,r21,r7
   49068:	2089883a 	add	r4,r4,r2
   4906c:	2540022e 	bgeu	r4,r21,49078 <__umoddi3+0x478>
   49070:	00800074 	movhi	r2,1
   49074:	1887883a 	add	r3,r3,r2
   49078:	2004d43a 	srli	r2,r4,16
   4907c:	2008943a 	slli	r4,r4,16
   49080:	e73fffcc 	andi	fp,fp,65535
   49084:	1887883a 	add	r3,r3,r2
   49088:	2709883a 	add	r4,r4,fp
   4908c:	88c03d36 	bltu	r17,r3,49184 <__umoddi3+0x584>
   49090:	88c06126 	beq	r17,r3,49218 <__umoddi3+0x618>
   49094:	88c7c83a 	sub	r3,r17,r3
   49098:	202d883a 	mov	r22,r4
   4909c:	95adc83a 	sub	r22,r18,r22
   490a0:	95a5803a 	cmpltu	r18,r18,r22
   490a4:	1c87c83a 	sub	r3,r3,r18
   490a8:	1cc4983a 	sll	r2,r3,r19
   490ac:	b42cd83a 	srl	r22,r22,r16
   490b0:	1c06d83a 	srl	r3,r3,r16
   490b4:	1584b03a 	or	r2,r2,r22
   490b8:	003f7806 	br	48e9c <__umoddi3+0x29c>
   490bc:	002b883a 	mov	r21,zero
   490c0:	003ef506 	br	48c98 <__umoddi3+0x98>
   490c4:	8560983a 	sll	r16,r16,r21
   490c8:	88e6d83a 	srl	r19,r17,r3
   490cc:	90c6d83a 	srl	r3,r18,r3
   490d0:	8028d43a 	srli	r20,r16,16
   490d4:	8d62983a 	sll	r17,r17,r21
   490d8:	9809883a 	mov	r4,r19
   490dc:	a00b883a 	mov	r5,r20
   490e0:	88eeb03a 	or	r23,r17,r3
   490e4:	0040df80 	call	40df8 <__umodsi3>
   490e8:	9809883a 	mov	r4,r19
   490ec:	a00b883a 	mov	r5,r20
   490f0:	1023883a 	mov	r17,r2
   490f4:	85bfffcc 	andi	r22,r16,65535
   490f8:	0040df00 	call	40df0 <__udivsi3>
   490fc:	1009883a 	mov	r4,r2
   49100:	b00b883a 	mov	r5,r22
   49104:	0040e000 	call	40e00 <__mulsi3>
   49108:	1007883a 	mov	r3,r2
   4910c:	8808943a 	slli	r4,r17,16
   49110:	b804d43a 	srli	r2,r23,16
   49114:	9566983a 	sll	r19,r18,r21
   49118:	2088b03a 	or	r4,r4,r2
   4911c:	20c0042e 	bgeu	r4,r3,49130 <__umoddi3+0x530>
   49120:	2409883a 	add	r4,r4,r16
   49124:	24000236 	bltu	r4,r16,49130 <__umoddi3+0x530>
   49128:	20c0012e 	bgeu	r4,r3,49130 <__umoddi3+0x530>
   4912c:	2409883a 	add	r4,r4,r16
   49130:	20e5c83a 	sub	r18,r4,r3
   49134:	9009883a 	mov	r4,r18
   49138:	a00b883a 	mov	r5,r20
   4913c:	0040df80 	call	40df8 <__umodsi3>
   49140:	1023883a 	mov	r17,r2
   49144:	9009883a 	mov	r4,r18
   49148:	a00b883a 	mov	r5,r20
   4914c:	8822943a 	slli	r17,r17,16
   49150:	0040df00 	call	40df0 <__udivsi3>
   49154:	1009883a 	mov	r4,r2
   49158:	b00b883a 	mov	r5,r22
   4915c:	bdffffcc 	andi	r23,r23,65535
   49160:	0040e000 	call	40e00 <__mulsi3>
   49164:	8de2b03a 	or	r17,r17,r23
   49168:	8880042e 	bgeu	r17,r2,4917c <__umoddi3+0x57c>
   4916c:	8c23883a 	add	r17,r17,r16
   49170:	8c000236 	bltu	r17,r16,4917c <__umoddi3+0x57c>
   49174:	8880012e 	bgeu	r17,r2,4917c <__umoddi3+0x57c>
   49178:	8c23883a 	add	r17,r17,r16
   4917c:	88a3c83a 	sub	r17,r17,r2
   49180:	003f1b06 	br	48df0 <__umoddi3+0x1f0>
   49184:	25adc83a 	sub	r22,r4,r22
   49188:	1d07c83a 	sub	r3,r3,r20
   4918c:	2589803a 	cmpltu	r4,r4,r22
   49190:	1907c83a 	sub	r3,r3,r4
   49194:	88c7c83a 	sub	r3,r17,r3
   49198:	003fc006 	br	4909c <__umoddi3+0x49c>
   4919c:	00c00204 	movi	r3,8
   491a0:	1827883a 	mov	r19,r3
   491a4:	003ee906 	br	48d4c <__umoddi3+0x14c>
   491a8:	00c00604 	movi	r3,24
   491ac:	1827883a 	mov	r19,r3
   491b0:	003ee606 	br	48d4c <__umoddi3+0x14c>
   491b4:	00800604 	movi	r2,24
   491b8:	1009883a 	mov	r4,r2
   491bc:	003ea806 	br	48c60 <__umoddi3+0x60>
   491c0:	00800204 	movi	r2,8
   491c4:	1007883a 	mov	r3,r2
   491c8:	003efd06 	br	48dc0 <__umoddi3+0x1c0>
   491cc:	00800604 	movi	r2,24
   491d0:	1007883a 	mov	r3,r2
   491d4:	003efa06 	br	48dc0 <__umoddi3+0x1c0>
   491d8:	00800204 	movi	r2,8
   491dc:	1009883a 	mov	r4,r2
   491e0:	003e9f06 	br	48c60 <__umoddi3+0x60>
   491e4:	38bf7f2e 	bgeu	r7,r2,48fe4 <__umoddi3+0x3e4>
   491e8:	ad7fff84 	addi	r21,r21,-2
   491ec:	3d0f883a 	add	r7,r7,r20
   491f0:	003f7d06 	br	48fe8 <__umoddi3+0x3e8>
   491f4:	193f642e 	bgeu	r3,r4,48f88 <__umoddi3+0x388>
   491f8:	e73fff84 	addi	fp,fp,-2
   491fc:	1d07883a 	add	r3,r3,r20
   49200:	003f6206 	br	48f8c <__umoddi3+0x38c>
   49204:	1c07883a 	add	r3,r3,r16
   49208:	003f0b06 	br	48e38 <__umoddi3+0x238>
   4920c:	9005883a 	mov	r2,r18
   49210:	a007883a 	mov	r3,r20
   49214:	003f2106 	br	48e9c <__umoddi3+0x29c>
   49218:	913fda36 	bltu	r18,r4,49184 <__umoddi3+0x584>
   4921c:	202d883a 	mov	r22,r4
   49220:	0007883a 	mov	r3,zero
   49224:	003f9d06 	br	4909c <__umoddi3+0x49c>

00049228 <_fpadd_parts>:
   49228:	2005883a 	mov	r2,r4
   4922c:	21000017 	ldw	r4,0(r4)
   49230:	01c00044 	movi	r7,1
   49234:	3900622e 	bgeu	r7,r4,493c0 <_fpadd_parts+0x198>
   49238:	28c00017 	ldw	r3,0(r5)
   4923c:	38c05f2e 	bgeu	r7,r3,493bc <_fpadd_parts+0x194>
   49240:	01c00104 	movi	r7,4
   49244:	21c0c626 	beq	r4,r7,49560 <_fpadd_parts+0x338>
   49248:	19c05c26 	beq	r3,r7,493bc <_fpadd_parts+0x194>
   4924c:	01c00084 	movi	r7,2
   49250:	19c06b26 	beq	r3,r7,49400 <_fpadd_parts+0x1d8>
   49254:	21c05926 	beq	r4,r7,493bc <_fpadd_parts+0x194>
   49258:	11c00217 	ldw	r7,8(r2)
   4925c:	2ac00217 	ldw	r11,8(r5)
   49260:	13000317 	ldw	r12,12(r2)
   49264:	13400417 	ldw	r13,16(r2)
   49268:	3ac9c83a 	sub	r4,r7,r11
   4926c:	2a000317 	ldw	r8,12(r5)
   49270:	2a400417 	ldw	r9,16(r5)
   49274:	2015883a 	mov	r10,r4
   49278:	20007516 	blt	r4,zero,49450 <_fpadd_parts+0x228>
   4927c:	00c00fc4 	movi	r3,63
   49280:	1a805016 	blt	r3,r10,493c4 <_fpadd_parts+0x19c>
   49284:	0100870e 	bge	zero,r4,494a4 <_fpadd_parts+0x27c>
   49288:	50fff804 	addi	r3,r10,-32
   4928c:	18009916 	blt	r3,zero,494f4 <_fpadd_parts+0x2cc>
   49290:	48d6d83a 	srl	r11,r9,r3
   49294:	001d883a 	mov	r14,zero
   49298:	18009e16 	blt	r3,zero,49514 <_fpadd_parts+0x2ec>
   4929c:	01000044 	movi	r4,1
   492a0:	20c6983a 	sll	r3,r4,r3
   492a4:	0015883a 	mov	r10,zero
   492a8:	513fffc4 	addi	r4,r10,-1
   492ac:	2295403a 	cmpgeu	r10,r4,r10
   492b0:	1a87c83a 	sub	r3,r3,r10
   492b4:	1a52703a 	and	r9,r3,r9
   492b8:	2210703a 	and	r8,r4,r8
   492bc:	4250b03a 	or	r8,r8,r9
   492c0:	4010c03a 	cmpne	r8,r8,zero
   492c4:	42d0b03a 	or	r8,r8,r11
   492c8:	7013883a 	mov	r9,r14
   492cc:	11000117 	ldw	r4,4(r2)
   492d0:	28800117 	ldw	r2,4(r5)
   492d4:	20804126 	beq	r4,r2,493dc <_fpadd_parts+0x1b4>
   492d8:	20006326 	beq	r4,zero,49468 <_fpadd_parts+0x240>
   492dc:	4305c83a 	sub	r2,r8,r12
   492e0:	4091803a 	cmpltu	r8,r8,r2
   492e4:	4b47c83a 	sub	r3,r9,r13
   492e8:	1a07c83a 	sub	r3,r3,r8
   492ec:	18006316 	blt	r3,zero,4947c <_fpadd_parts+0x254>
   492f0:	30000115 	stw	zero,4(r6)
   492f4:	31c00215 	stw	r7,8(r6)
   492f8:	30800315 	stw	r2,12(r6)
   492fc:	30c00415 	stw	r3,16(r6)
   49300:	11ffffc4 	addi	r7,r2,-1
   49304:	388b403a 	cmpgeu	r5,r7,r2
   49308:	194bc83a 	sub	r5,r3,r5
   4930c:	01040034 	movhi	r4,4096
   49310:	213fffc4 	addi	r4,r4,-1
   49314:	21401736 	bltu	r4,r5,49374 <_fpadd_parts+0x14c>
   49318:	29008226 	beq	r5,r4,49524 <_fpadd_parts+0x2fc>
   4931c:	31400217 	ldw	r5,8(r6)
   49320:	02840034 	movhi	r10,4096
   49324:	52bfffc4 	addi	r10,r10,-1
   49328:	033fff84 	movi	r12,-2
   4932c:	297fffc4 	addi	r5,r5,-1
   49330:	00000106 	br	49338 <_fpadd_parts+0x110>
   49334:	3a804a26 	beq	r7,r10,49460 <_fpadd_parts+0x238>
   49338:	1089883a 	add	r4,r2,r2
   4933c:	2091803a 	cmpltu	r8,r4,r2
   49340:	18c7883a 	add	r3,r3,r3
   49344:	227fffc4 	addi	r9,r4,-1
   49348:	40d1883a 	add	r8,r8,r3
   4934c:	490f403a 	cmpgeu	r7,r9,r4
   49350:	41cfc83a 	sub	r7,r8,r7
   49354:	2817883a 	mov	r11,r5
   49358:	2005883a 	mov	r2,r4
   4935c:	4007883a 	mov	r3,r8
   49360:	297fffc4 	addi	r5,r5,-1
   49364:	51fff32e 	bgeu	r10,r7,49334 <_fpadd_parts+0x10c>
   49368:	31000315 	stw	r4,12(r6)
   4936c:	32000415 	stw	r8,16(r6)
   49370:	32c00215 	stw	r11,8(r6)
   49374:	010000c4 	movi	r4,3
   49378:	31000015 	stw	r4,0(r6)
   4937c:	01080034 	movhi	r4,8192
   49380:	213fffc4 	addi	r4,r4,-1
   49384:	20c00b2e 	bgeu	r4,r3,493b4 <_fpadd_parts+0x18c>
   49388:	180e97fa 	slli	r7,r3,31
   4938c:	1008d07a 	srli	r4,r2,1
   49390:	31400217 	ldw	r5,8(r6)
   49394:	1806d07a 	srli	r3,r3,1
   49398:	1080004c 	andi	r2,r2,1
   4939c:	3908b03a 	or	r4,r7,r4
   493a0:	1108b03a 	or	r4,r2,r4
   493a4:	29400044 	addi	r5,r5,1
   493a8:	31000315 	stw	r4,12(r6)
   493ac:	30c00415 	stw	r3,16(r6)
   493b0:	31400215 	stw	r5,8(r6)
   493b4:	3005883a 	mov	r2,r6
   493b8:	f800283a 	ret
   493bc:	2805883a 	mov	r2,r5
   493c0:	f800283a 	ret
   493c4:	59c01e0e 	bge	r11,r7,49440 <_fpadd_parts+0x218>
   493c8:	11000117 	ldw	r4,4(r2)
   493cc:	28800117 	ldw	r2,4(r5)
   493d0:	0011883a 	mov	r8,zero
   493d4:	0013883a 	mov	r9,zero
   493d8:	20bfbf1e 	bne	r4,r2,492d8 <_fpadd_parts+0xb0>
   493dc:	4305883a 	add	r2,r8,r12
   493e0:	1207803a 	cmpltu	r3,r2,r8
   493e4:	4b53883a 	add	r9,r9,r13
   493e8:	1a47883a 	add	r3,r3,r9
   493ec:	31000115 	stw	r4,4(r6)
   493f0:	31c00215 	stw	r7,8(r6)
   493f4:	30800315 	stw	r2,12(r6)
   493f8:	30c00415 	stw	r3,16(r6)
   493fc:	003fdd06 	br	49374 <_fpadd_parts+0x14c>
   49400:	20ffef1e 	bne	r4,r3,493c0 <_fpadd_parts+0x198>
   49404:	31000015 	stw	r4,0(r6)
   49408:	10c00117 	ldw	r3,4(r2)
   4940c:	30c00115 	stw	r3,4(r6)
   49410:	10c00217 	ldw	r3,8(r2)
   49414:	11000117 	ldw	r4,4(r2)
   49418:	29400117 	ldw	r5,4(r5)
   4941c:	30c00215 	stw	r3,8(r6)
   49420:	10c00317 	ldw	r3,12(r2)
   49424:	2908703a 	and	r4,r5,r4
   49428:	30c00315 	stw	r3,12(r6)
   4942c:	10c00417 	ldw	r3,16(r2)
   49430:	31000115 	stw	r4,4(r6)
   49434:	3005883a 	mov	r2,r6
   49438:	30c00415 	stw	r3,16(r6)
   4943c:	f800283a 	ret
   49440:	580f883a 	mov	r7,r11
   49444:	0019883a 	mov	r12,zero
   49448:	001b883a 	mov	r13,zero
   4944c:	003f9f06 	br	492cc <_fpadd_parts+0xa4>
   49450:	0115c83a 	sub	r10,zero,r4
   49454:	00c00fc4 	movi	r3,63
   49458:	1abfda16 	blt	r3,r10,493c4 <_fpadd_parts+0x19c>
   4945c:	003f8906 	br	49284 <_fpadd_parts+0x5c>
   49460:	627fb52e 	bgeu	r12,r9,49338 <_fpadd_parts+0x110>
   49464:	003fc006 	br	49368 <_fpadd_parts+0x140>
   49468:	6205c83a 	sub	r2,r12,r8
   4946c:	6099803a 	cmpltu	r12,r12,r2
   49470:	6a47c83a 	sub	r3,r13,r9
   49474:	1b07c83a 	sub	r3,r3,r12
   49478:	183f9d0e 	bge	r3,zero,492f0 <_fpadd_parts+0xc8>
   4947c:	0085c83a 	sub	r2,zero,r2
   49480:	1008c03a 	cmpne	r4,r2,zero
   49484:	00c7c83a 	sub	r3,zero,r3
   49488:	1907c83a 	sub	r3,r3,r4
   4948c:	01000044 	movi	r4,1
   49490:	31000115 	stw	r4,4(r6)
   49494:	31c00215 	stw	r7,8(r6)
   49498:	30800315 	stw	r2,12(r6)
   4949c:	30c00415 	stw	r3,16(r6)
   494a0:	003f9706 	br	49300 <_fpadd_parts+0xd8>
   494a4:	203f8926 	beq	r4,zero,492cc <_fpadd_parts+0xa4>
   494a8:	50fff804 	addi	r3,r10,-32
   494ac:	3a8f883a 	add	r7,r7,r10
   494b0:	18002316 	blt	r3,zero,49540 <_fpadd_parts+0x318>
   494b4:	68d6d83a 	srl	r11,r13,r3
   494b8:	001d883a 	mov	r14,zero
   494bc:	18001c16 	blt	r3,zero,49530 <_fpadd_parts+0x308>
   494c0:	01000044 	movi	r4,1
   494c4:	20c6983a 	sll	r3,r4,r3
   494c8:	0015883a 	mov	r10,zero
   494cc:	513fffc4 	addi	r4,r10,-1
   494d0:	2295403a 	cmpgeu	r10,r4,r10
   494d4:	1a87c83a 	sub	r3,r3,r10
   494d8:	1b5a703a 	and	r13,r3,r13
   494dc:	2318703a 	and	r12,r4,r12
   494e0:	6358b03a 	or	r12,r12,r13
   494e4:	6018c03a 	cmpne	r12,r12,zero
   494e8:	62d8b03a 	or	r12,r12,r11
   494ec:	701b883a 	mov	r13,r14
   494f0:	003f7606 	br	492cc <_fpadd_parts+0xa4>
   494f4:	4808907a 	slli	r4,r9,1
   494f8:	02c007c4 	movi	r11,31
   494fc:	5a97c83a 	sub	r11,r11,r10
   49500:	22c8983a 	sll	r4,r4,r11
   49504:	4296d83a 	srl	r11,r8,r10
   49508:	4a9cd83a 	srl	r14,r9,r10
   4950c:	22d6b03a 	or	r11,r4,r11
   49510:	003f6106 	br	49298 <_fpadd_parts+0x70>
   49514:	00c00044 	movi	r3,1
   49518:	1a94983a 	sll	r10,r3,r10
   4951c:	0007883a 	mov	r3,zero
   49520:	003f6106 	br	492a8 <_fpadd_parts+0x80>
   49524:	013fff84 	movi	r4,-2
   49528:	21ff7c2e 	bgeu	r4,r7,4931c <_fpadd_parts+0xf4>
   4952c:	003f9106 	br	49374 <_fpadd_parts+0x14c>
   49530:	00c00044 	movi	r3,1
   49534:	1a94983a 	sll	r10,r3,r10
   49538:	0007883a 	mov	r3,zero
   4953c:	003fe306 	br	494cc <_fpadd_parts+0x2a4>
   49540:	6816907a 	slli	r11,r13,1
   49544:	010007c4 	movi	r4,31
   49548:	2289c83a 	sub	r4,r4,r10
   4954c:	5908983a 	sll	r4,r11,r4
   49550:	6296d83a 	srl	r11,r12,r10
   49554:	6a9cd83a 	srl	r14,r13,r10
   49558:	22d6b03a 	or	r11,r4,r11
   4955c:	003fd706 	br	494bc <_fpadd_parts+0x294>
   49560:	193f971e 	bne	r3,r4,493c0 <_fpadd_parts+0x198>
   49564:	11000117 	ldw	r4,4(r2)
   49568:	28c00117 	ldw	r3,4(r5)
   4956c:	20ff9426 	beq	r4,r3,493c0 <_fpadd_parts+0x198>
   49570:	00800174 	movhi	r2,5
   49574:	10b56a04 	addi	r2,r2,-10840
   49578:	f800283a 	ret

0004957c <__adddf3>:
   4957c:	deffec04 	addi	sp,sp,-80
   49580:	d9001115 	stw	r4,68(sp)
   49584:	d9401215 	stw	r5,72(sp)
   49588:	d9001104 	addi	r4,sp,68
   4958c:	d9400a04 	addi	r5,sp,40
   49590:	dfc01315 	stw	ra,76(sp)
   49594:	d9c01015 	stw	r7,64(sp)
   49598:	d9800f15 	stw	r6,60(sp)
   4959c:	004a3480 	call	4a348 <__unpack_d>
   495a0:	d9000f04 	addi	r4,sp,60
   495a4:	d9400504 	addi	r5,sp,20
   495a8:	004a3480 	call	4a348 <__unpack_d>
   495ac:	d9000a04 	addi	r4,sp,40
   495b0:	d9400504 	addi	r5,sp,20
   495b4:	d80d883a 	mov	r6,sp
   495b8:	00492280 	call	49228 <_fpadd_parts>
   495bc:	1009883a 	mov	r4,r2
   495c0:	004a1240 	call	4a124 <__pack_d>
   495c4:	dfc01317 	ldw	ra,76(sp)
   495c8:	dec01404 	addi	sp,sp,80
   495cc:	f800283a 	ret

000495d0 <__subdf3>:
   495d0:	deffec04 	addi	sp,sp,-80
   495d4:	d9001115 	stw	r4,68(sp)
   495d8:	d9401215 	stw	r5,72(sp)
   495dc:	d9001104 	addi	r4,sp,68
   495e0:	d9400a04 	addi	r5,sp,40
   495e4:	dfc01315 	stw	ra,76(sp)
   495e8:	d9c01015 	stw	r7,64(sp)
   495ec:	d9800f15 	stw	r6,60(sp)
   495f0:	004a3480 	call	4a348 <__unpack_d>
   495f4:	d9000f04 	addi	r4,sp,60
   495f8:	d9400504 	addi	r5,sp,20
   495fc:	004a3480 	call	4a348 <__unpack_d>
   49600:	d8800617 	ldw	r2,24(sp)
   49604:	d9000a04 	addi	r4,sp,40
   49608:	d9400504 	addi	r5,sp,20
   4960c:	d80d883a 	mov	r6,sp
   49610:	1080005c 	xori	r2,r2,1
   49614:	d8800615 	stw	r2,24(sp)
   49618:	00492280 	call	49228 <_fpadd_parts>
   4961c:	1009883a 	mov	r4,r2
   49620:	004a1240 	call	4a124 <__pack_d>
   49624:	dfc01317 	ldw	ra,76(sp)
   49628:	dec01404 	addi	sp,sp,80
   4962c:	f800283a 	ret

00049630 <__muldf3>:
   49630:	deffe404 	addi	sp,sp,-112
   49634:	d9001115 	stw	r4,68(sp)
   49638:	d9401215 	stw	r5,72(sp)
   4963c:	d9001104 	addi	r4,sp,68
   49640:	d9400a04 	addi	r5,sp,40
   49644:	dfc01b15 	stw	ra,108(sp)
   49648:	d9800f15 	stw	r6,60(sp)
   4964c:	d9c01015 	stw	r7,64(sp)
   49650:	ddc01a15 	stw	r23,104(sp)
   49654:	dd801915 	stw	r22,100(sp)
   49658:	dd401815 	stw	r21,96(sp)
   4965c:	dd001715 	stw	r20,92(sp)
   49660:	dcc01615 	stw	r19,88(sp)
   49664:	dc801515 	stw	r18,84(sp)
   49668:	dc401415 	stw	r17,80(sp)
   4966c:	dc001315 	stw	r16,76(sp)
   49670:	004a3480 	call	4a348 <__unpack_d>
   49674:	d9000f04 	addi	r4,sp,60
   49678:	d9400504 	addi	r5,sp,20
   4967c:	004a3480 	call	4a348 <__unpack_d>
   49680:	d8c00a17 	ldw	r3,40(sp)
   49684:	00800044 	movi	r2,1
   49688:	10c01136 	bltu	r2,r3,496d0 <__muldf3+0xa0>
   4968c:	d8c00b17 	ldw	r3,44(sp)
   49690:	d8800617 	ldw	r2,24(sp)
   49694:	d9000a04 	addi	r4,sp,40
   49698:	1884c03a 	cmpne	r2,r3,r2
   4969c:	d8800b15 	stw	r2,44(sp)
   496a0:	004a1240 	call	4a124 <__pack_d>
   496a4:	dfc01b17 	ldw	ra,108(sp)
   496a8:	ddc01a17 	ldw	r23,104(sp)
   496ac:	dd801917 	ldw	r22,100(sp)
   496b0:	dd401817 	ldw	r21,96(sp)
   496b4:	dd001717 	ldw	r20,92(sp)
   496b8:	dcc01617 	ldw	r19,88(sp)
   496bc:	dc801517 	ldw	r18,84(sp)
   496c0:	dc401417 	ldw	r17,80(sp)
   496c4:	dc001317 	ldw	r16,76(sp)
   496c8:	dec01c04 	addi	sp,sp,112
   496cc:	f800283a 	ret
   496d0:	d9000517 	ldw	r4,20(sp)
   496d4:	11000636 	bltu	r2,r4,496f0 <__muldf3+0xc0>
   496d8:	d8800617 	ldw	r2,24(sp)
   496dc:	d8c00b17 	ldw	r3,44(sp)
   496e0:	d9000504 	addi	r4,sp,20
   496e4:	1884c03a 	cmpne	r2,r3,r2
   496e8:	d8800615 	stw	r2,24(sp)
   496ec:	003fec06 	br	496a0 <__muldf3+0x70>
   496f0:	00800104 	movi	r2,4
   496f4:	1880051e 	bne	r3,r2,4970c <__muldf3+0xdc>
   496f8:	00800084 	movi	r2,2
   496fc:	20bfe31e 	bne	r4,r2,4968c <__muldf3+0x5c>
   49700:	01000174 	movhi	r4,5
   49704:	21356a04 	addi	r4,r4,-10840
   49708:	003fe506 	br	496a0 <__muldf3+0x70>
   4970c:	2080031e 	bne	r4,r2,4971c <__muldf3+0xec>
   49710:	00800084 	movi	r2,2
   49714:	18bffa26 	beq	r3,r2,49700 <__muldf3+0xd0>
   49718:	003fef06 	br	496d8 <__muldf3+0xa8>
   4971c:	00800084 	movi	r2,2
   49720:	18bfda26 	beq	r3,r2,4968c <__muldf3+0x5c>
   49724:	20bfec26 	beq	r4,r2,496d8 <__muldf3+0xa8>
   49728:	dc000d17 	ldw	r16,52(sp)
   4972c:	dd000817 	ldw	r20,32(sp)
   49730:	dc800917 	ldw	r18,36(sp)
   49734:	8009883a 	mov	r4,r16
   49738:	000b883a 	mov	r5,zero
   4973c:	a00d883a 	mov	r6,r20
   49740:	000f883a 	mov	r7,zero
   49744:	0049f680 	call	49f68 <__muldi3>
   49748:	dc400e17 	ldw	r17,56(sp)
   4974c:	9009883a 	mov	r4,r18
   49750:	800d883a 	mov	r6,r16
   49754:	000b883a 	mov	r5,zero
   49758:	000f883a 	mov	r7,zero
   4975c:	102f883a 	mov	r23,r2
   49760:	1827883a 	mov	r19,r3
   49764:	0049f680 	call	49f68 <__muldi3>
   49768:	900d883a 	mov	r6,r18
   4976c:	8809883a 	mov	r4,r17
   49770:	000b883a 	mov	r5,zero
   49774:	000f883a 	mov	r7,zero
   49778:	102b883a 	mov	r21,r2
   4977c:	1821883a 	mov	r16,r3
   49780:	0049f680 	call	49f68 <__muldi3>
   49784:	8809883a 	mov	r4,r17
   49788:	000b883a 	mov	r5,zero
   4978c:	a00d883a 	mov	r6,r20
   49790:	000f883a 	mov	r7,zero
   49794:	102d883a 	mov	r22,r2
   49798:	1825883a 	mov	r18,r3
   4979c:	0049f680 	call	49f68 <__muldi3>
   497a0:	154b883a 	add	r5,r2,r21
   497a4:	2889803a 	cmpltu	r4,r5,r2
   497a8:	1c07883a 	add	r3,r3,r16
   497ac:	20c9883a 	add	r4,r4,r3
   497b0:	24004b36 	bltu	r4,r16,498e0 <__muldf3+0x2b0>
   497b4:	8100011e 	bne	r16,r4,497bc <__muldf3+0x18c>
   497b8:	2d404936 	bltu	r5,r21,498e0 <__muldf3+0x2b0>
   497bc:	0011883a 	mov	r8,zero
   497c0:	0007883a 	mov	r3,zero
   497c4:	2ccb883a 	add	r5,r5,r19
   497c8:	b80d883a 	mov	r6,r23
   497cc:	2cc0012e 	bgeu	r5,r19,497d4 <__muldf3+0x1a4>
   497d0:	02000044 	movi	r8,1
   497d4:	258f883a 	add	r7,r4,r22
   497d8:	3909803a 	cmpltu	r4,r7,r4
   497dc:	da400c17 	ldw	r9,48(sp)
   497e0:	2489883a 	add	r4,r4,r18
   497e4:	d8800717 	ldw	r2,28(sp)
   497e8:	20c9883a 	add	r4,r4,r3
   497ec:	da800b17 	ldw	r10,44(sp)
   497f0:	d8c00617 	ldw	r3,24(sp)
   497f4:	3a11883a 	add	r8,r7,r8
   497f8:	4885883a 	add	r2,r9,r2
   497fc:	50c6c03a 	cmpne	r3,r10,r3
   49800:	41cf803a 	cmpltu	r7,r8,r7
   49804:	12400104 	addi	r9,r2,4
   49808:	d8c00115 	stw	r3,4(sp)
   4980c:	3909883a 	add	r4,r7,r4
   49810:	da400215 	stw	r9,8(sp)
   49814:	03480034 	movhi	r13,8192
   49818:	6b7fffc4 	addi	r13,r13,-1
   4981c:	4007883a 	mov	r3,r8
   49820:	6900102e 	bgeu	r13,r4,49864 <__muldf3+0x234>
   49824:	10800144 	addi	r2,r2,5
   49828:	180ed07a 	srli	r7,r3,1
   4982c:	18c0004c 	andi	r3,r3,1
   49830:	201097fa 	slli	r8,r4,31
   49834:	281697fa 	slli	r11,r5,31
   49838:	2008d07a 	srli	r4,r4,1
   4983c:	3014d07a 	srli	r10,r6,1
   49840:	2812d07a 	srli	r9,r5,1
   49844:	1019883a 	mov	r12,r2
   49848:	18000226 	beq	r3,zero,49854 <__muldf3+0x224>
   4984c:	5a8cb03a 	or	r6,r11,r10
   49850:	49600034 	orhi	r5,r9,32768
   49854:	41c6b03a 	or	r3,r8,r7
   49858:	10800044 	addi	r2,r2,1
   4985c:	693ff236 	bltu	r13,r4,49828 <__muldf3+0x1f8>
   49860:	db000215 	stw	r12,8(sp)
   49864:	03440034 	movhi	r13,4096
   49868:	6b7fffc4 	addi	r13,r13,-1
   4986c:	69001336 	bltu	r13,r4,498bc <__muldf3+0x28c>
   49870:	d8800217 	ldw	r2,8(sp)
   49874:	10bfffc4 	addi	r2,r2,-1
   49878:	18d3883a 	add	r9,r3,r3
   4987c:	48c7803a 	cmpltu	r3,r9,r3
   49880:	2109883a 	add	r4,r4,r4
   49884:	190f883a 	add	r7,r3,r4
   49888:	3191883a 	add	r8,r6,r6
   4988c:	4197803a 	cmpltu	r11,r8,r6
   49890:	2955883a 	add	r10,r5,r5
   49894:	1019883a 	mov	r12,r2
   49898:	4807883a 	mov	r3,r9
   4989c:	3809883a 	mov	r4,r7
   498a0:	2800010e 	bge	r5,zero,498a8 <__muldf3+0x278>
   498a4:	48c00054 	ori	r3,r9,1
   498a8:	400d883a 	mov	r6,r8
   498ac:	5a8b883a 	add	r5,r11,r10
   498b0:	10bfffc4 	addi	r2,r2,-1
   498b4:	69fff02e 	bgeu	r13,r7,49878 <__muldf3+0x248>
   498b8:	db000215 	stw	r12,8(sp)
   498bc:	18803fcc 	andi	r2,r3,255
   498c0:	01c02004 	movi	r7,128
   498c4:	11c00926 	beq	r2,r7,498ec <__muldf3+0x2bc>
   498c8:	008000c4 	movi	r2,3
   498cc:	d9000415 	stw	r4,16(sp)
   498d0:	d8c00315 	stw	r3,12(sp)
   498d4:	d8800015 	stw	r2,0(sp)
   498d8:	d809883a 	mov	r4,sp
   498dc:	003f7006 	br	496a0 <__muldf3+0x70>
   498e0:	0011883a 	mov	r8,zero
   498e4:	00c00044 	movi	r3,1
   498e8:	003fb606 	br	497c4 <__muldf3+0x194>
   498ec:	19c0400c 	andi	r7,r3,256
   498f0:	383ff51e 	bne	r7,zero,498c8 <__muldf3+0x298>
   498f4:	314ab03a 	or	r5,r6,r5
   498f8:	283ff326 	beq	r5,zero,498c8 <__muldf3+0x298>
   498fc:	1885883a 	add	r2,r3,r2
   49900:	10cb803a 	cmpltu	r5,r2,r3
   49904:	00ffc004 	movi	r3,-256
   49908:	10c6703a 	and	r3,r2,r3
   4990c:	2909883a 	add	r4,r5,r4
   49910:	003fed06 	br	498c8 <__muldf3+0x298>

00049914 <__divdf3>:
   49914:	defff104 	addi	sp,sp,-60
   49918:	d9000c15 	stw	r4,48(sp)
   4991c:	d9400d15 	stw	r5,52(sp)
   49920:	d9000c04 	addi	r4,sp,48
   49924:	d9400504 	addi	r5,sp,20
   49928:	dfc00e15 	stw	ra,56(sp)
   4992c:	d9800a15 	stw	r6,40(sp)
   49930:	d9c00b15 	stw	r7,44(sp)
   49934:	004a3480 	call	4a348 <__unpack_d>
   49938:	d9000a04 	addi	r4,sp,40
   4993c:	d80b883a 	mov	r5,sp
   49940:	004a3480 	call	4a348 <__unpack_d>
   49944:	d8c00517 	ldw	r3,20(sp)
   49948:	00800044 	movi	r2,1
   4994c:	10c00536 	bltu	r2,r3,49964 <__divdf3+0x50>
   49950:	d9000504 	addi	r4,sp,20
   49954:	004a1240 	call	4a124 <__pack_d>
   49958:	dfc00e17 	ldw	ra,56(sp)
   4995c:	dec00f04 	addi	sp,sp,60
   49960:	f800283a 	ret
   49964:	d9000017 	ldw	r4,0(sp)
   49968:	11000536 	bltu	r2,r4,49980 <__divdf3+0x6c>
   4996c:	d809883a 	mov	r4,sp
   49970:	004a1240 	call	4a124 <__pack_d>
   49974:	dfc00e17 	ldw	ra,56(sp)
   49978:	dec00f04 	addi	sp,sp,60
   4997c:	f800283a 	ret
   49980:	d9800617 	ldw	r6,24(sp)
   49984:	d9400117 	ldw	r5,4(sp)
   49988:	00800104 	movi	r2,4
   4998c:	314af03a 	xor	r5,r6,r5
   49990:	d9400615 	stw	r5,24(sp)
   49994:	18800226 	beq	r3,r2,499a0 <__divdf3+0x8c>
   49998:	01400084 	movi	r5,2
   4999c:	1940041e 	bne	r3,r5,499b0 <__divdf3+0x9c>
   499a0:	193feb1e 	bne	r3,r4,49950 <__divdf3+0x3c>
   499a4:	01000174 	movhi	r4,5
   499a8:	21356a04 	addi	r4,r4,-10840
   499ac:	003fe906 	br	49954 <__divdf3+0x40>
   499b0:	20803326 	beq	r4,r2,49a80 <__divdf3+0x16c>
   499b4:	21403726 	beq	r4,r5,49a94 <__divdf3+0x180>
   499b8:	d8800217 	ldw	r2,8(sp)
   499bc:	d9000717 	ldw	r4,28(sp)
   499c0:	d8c00917 	ldw	r3,36(sp)
   499c4:	da000417 	ldw	r8,16(sp)
   499c8:	2089c83a 	sub	r4,r4,r2
   499cc:	d9000715 	stw	r4,28(sp)
   499d0:	d8800817 	ldw	r2,32(sp)
   499d4:	dbc00317 	ldw	r15,12(sp)
   499d8:	1a000236 	bltu	r3,r8,499e4 <__divdf3+0xd0>
   499dc:	40c0081e 	bne	r8,r3,49a00 <__divdf3+0xec>
   499e0:	13c0072e 	bgeu	r2,r15,49a00 <__divdf3+0xec>
   499e4:	108b883a 	add	r5,r2,r2
   499e8:	288d803a 	cmpltu	r6,r5,r2
   499ec:	18c7883a 	add	r3,r3,r3
   499f0:	213fffc4 	addi	r4,r4,-1
   499f4:	2805883a 	mov	r2,r5
   499f8:	30c7883a 	add	r3,r6,r3
   499fc:	d9000715 	stw	r4,28(sp)
   49a00:	01400f44 	movi	r5,61
   49a04:	000f883a 	mov	r7,zero
   49a08:	01040034 	movhi	r4,4096
   49a0c:	0019883a 	mov	r12,zero
   49a10:	001b883a 	mov	r13,zero
   49a14:	201697fa 	slli	r11,r4,31
   49a18:	3814d07a 	srli	r10,r7,1
   49a1c:	297fffc4 	addi	r5,r5,-1
   49a20:	1a000936 	bltu	r3,r8,49a48 <__divdf3+0x134>
   49a24:	13cdc83a 	sub	r6,r2,r15
   49a28:	1193803a 	cmpltu	r9,r2,r6
   49a2c:	1a1dc83a 	sub	r14,r3,r8
   49a30:	40c0011e 	bne	r8,r3,49a38 <__divdf3+0x124>
   49a34:	13c00436 	bltu	r2,r15,49a48 <__divdf3+0x134>
   49a38:	3005883a 	mov	r2,r6
   49a3c:	7247c83a 	sub	r3,r14,r9
   49a40:	61d8b03a 	or	r12,r12,r7
   49a44:	691ab03a 	or	r13,r13,r4
   49a48:	108d883a 	add	r6,r2,r2
   49a4c:	3093803a 	cmpltu	r9,r6,r2
   49a50:	18c7883a 	add	r3,r3,r3
   49a54:	5a8eb03a 	or	r7,r11,r10
   49a58:	2008d07a 	srli	r4,r4,1
   49a5c:	3005883a 	mov	r2,r6
   49a60:	48c7883a 	add	r3,r9,r3
   49a64:	283feb1e 	bne	r5,zero,49a14 <__divdf3+0x100>
   49a68:	61003fcc 	andi	r4,r12,255
   49a6c:	01402004 	movi	r5,128
   49a70:	21400b26 	beq	r4,r5,49aa0 <__divdf3+0x18c>
   49a74:	db000815 	stw	r12,32(sp)
   49a78:	db400915 	stw	r13,36(sp)
   49a7c:	003fb406 	br	49950 <__divdf3+0x3c>
   49a80:	d8000815 	stw	zero,32(sp)
   49a84:	d8000915 	stw	zero,36(sp)
   49a88:	d8000715 	stw	zero,28(sp)
   49a8c:	d9000504 	addi	r4,sp,20
   49a90:	003fb006 	br	49954 <__divdf3+0x40>
   49a94:	d8800515 	stw	r2,20(sp)
   49a98:	d9000504 	addi	r4,sp,20
   49a9c:	003fad06 	br	49954 <__divdf3+0x40>
   49aa0:	6140400c 	andi	r5,r12,256
   49aa4:	283ff31e 	bne	r5,zero,49a74 <__divdf3+0x160>
   49aa8:	30c4b03a 	or	r2,r6,r3
   49aac:	103ff126 	beq	r2,zero,49a74 <__divdf3+0x160>
   49ab0:	6109883a 	add	r4,r12,r4
   49ab4:	2305803a 	cmpltu	r2,r4,r12
   49ab8:	033fc004 	movi	r12,-256
   49abc:	2318703a 	and	r12,r4,r12
   49ac0:	135b883a 	add	r13,r2,r13
   49ac4:	003feb06 	br	49a74 <__divdf3+0x160>

00049ac8 <__eqdf2>:
   49ac8:	defff104 	addi	sp,sp,-60
   49acc:	d9000c15 	stw	r4,48(sp)
   49ad0:	d9400d15 	stw	r5,52(sp)
   49ad4:	d9000c04 	addi	r4,sp,48
   49ad8:	d9400504 	addi	r5,sp,20
   49adc:	dfc00e15 	stw	ra,56(sp)
   49ae0:	d9800a15 	stw	r6,40(sp)
   49ae4:	d9c00b15 	stw	r7,44(sp)
   49ae8:	004a3480 	call	4a348 <__unpack_d>
   49aec:	d9000a04 	addi	r4,sp,40
   49af0:	d80b883a 	mov	r5,sp
   49af4:	004a3480 	call	4a348 <__unpack_d>
   49af8:	d8c00517 	ldw	r3,20(sp)
   49afc:	00800044 	movi	r2,1
   49b00:	10c0052e 	bgeu	r2,r3,49b18 <__eqdf2+0x50>
   49b04:	d8c00017 	ldw	r3,0(sp)
   49b08:	10c0032e 	bgeu	r2,r3,49b18 <__eqdf2+0x50>
   49b0c:	d9000504 	addi	r4,sp,20
   49b10:	d80b883a 	mov	r5,sp
   49b14:	004a44c0 	call	4a44c <__fpcmp_parts_d>
   49b18:	dfc00e17 	ldw	ra,56(sp)
   49b1c:	dec00f04 	addi	sp,sp,60
   49b20:	f800283a 	ret

00049b24 <__nedf2>:
   49b24:	defff104 	addi	sp,sp,-60
   49b28:	d9000c15 	stw	r4,48(sp)
   49b2c:	d9400d15 	stw	r5,52(sp)
   49b30:	d9000c04 	addi	r4,sp,48
   49b34:	d9400504 	addi	r5,sp,20
   49b38:	dfc00e15 	stw	ra,56(sp)
   49b3c:	d9800a15 	stw	r6,40(sp)
   49b40:	d9c00b15 	stw	r7,44(sp)
   49b44:	004a3480 	call	4a348 <__unpack_d>
   49b48:	d9000a04 	addi	r4,sp,40
   49b4c:	d80b883a 	mov	r5,sp
   49b50:	004a3480 	call	4a348 <__unpack_d>
   49b54:	d8c00517 	ldw	r3,20(sp)
   49b58:	00800044 	movi	r2,1
   49b5c:	10c0052e 	bgeu	r2,r3,49b74 <__nedf2+0x50>
   49b60:	d8c00017 	ldw	r3,0(sp)
   49b64:	10c0032e 	bgeu	r2,r3,49b74 <__nedf2+0x50>
   49b68:	d9000504 	addi	r4,sp,20
   49b6c:	d80b883a 	mov	r5,sp
   49b70:	004a44c0 	call	4a44c <__fpcmp_parts_d>
   49b74:	dfc00e17 	ldw	ra,56(sp)
   49b78:	dec00f04 	addi	sp,sp,60
   49b7c:	f800283a 	ret

00049b80 <__gtdf2>:
   49b80:	defff104 	addi	sp,sp,-60
   49b84:	d9000c15 	stw	r4,48(sp)
   49b88:	d9400d15 	stw	r5,52(sp)
   49b8c:	d9000c04 	addi	r4,sp,48
   49b90:	d9400504 	addi	r5,sp,20
   49b94:	dfc00e15 	stw	ra,56(sp)
   49b98:	d9800a15 	stw	r6,40(sp)
   49b9c:	d9c00b15 	stw	r7,44(sp)
   49ba0:	004a3480 	call	4a348 <__unpack_d>
   49ba4:	d9000a04 	addi	r4,sp,40
   49ba8:	d80b883a 	mov	r5,sp
   49bac:	004a3480 	call	4a348 <__unpack_d>
   49bb0:	d8c00517 	ldw	r3,20(sp)
   49bb4:	00800044 	movi	r2,1
   49bb8:	10c0082e 	bgeu	r2,r3,49bdc <__gtdf2+0x5c>
   49bbc:	d8c00017 	ldw	r3,0(sp)
   49bc0:	10c0062e 	bgeu	r2,r3,49bdc <__gtdf2+0x5c>
   49bc4:	d9000504 	addi	r4,sp,20
   49bc8:	d80b883a 	mov	r5,sp
   49bcc:	004a44c0 	call	4a44c <__fpcmp_parts_d>
   49bd0:	dfc00e17 	ldw	ra,56(sp)
   49bd4:	dec00f04 	addi	sp,sp,60
   49bd8:	f800283a 	ret
   49bdc:	00bfffc4 	movi	r2,-1
   49be0:	003ffb06 	br	49bd0 <__gtdf2+0x50>

00049be4 <__gedf2>:
   49be4:	defff104 	addi	sp,sp,-60
   49be8:	d9000c15 	stw	r4,48(sp)
   49bec:	d9400d15 	stw	r5,52(sp)
   49bf0:	d9000c04 	addi	r4,sp,48
   49bf4:	d9400504 	addi	r5,sp,20
   49bf8:	dfc00e15 	stw	ra,56(sp)
   49bfc:	d9800a15 	stw	r6,40(sp)
   49c00:	d9c00b15 	stw	r7,44(sp)
   49c04:	004a3480 	call	4a348 <__unpack_d>
   49c08:	d9000a04 	addi	r4,sp,40
   49c0c:	d80b883a 	mov	r5,sp
   49c10:	004a3480 	call	4a348 <__unpack_d>
   49c14:	d8c00517 	ldw	r3,20(sp)
   49c18:	00800044 	movi	r2,1
   49c1c:	10c0082e 	bgeu	r2,r3,49c40 <__gedf2+0x5c>
   49c20:	d8c00017 	ldw	r3,0(sp)
   49c24:	10c0062e 	bgeu	r2,r3,49c40 <__gedf2+0x5c>
   49c28:	d9000504 	addi	r4,sp,20
   49c2c:	d80b883a 	mov	r5,sp
   49c30:	004a44c0 	call	4a44c <__fpcmp_parts_d>
   49c34:	dfc00e17 	ldw	ra,56(sp)
   49c38:	dec00f04 	addi	sp,sp,60
   49c3c:	f800283a 	ret
   49c40:	00bfffc4 	movi	r2,-1
   49c44:	003ffb06 	br	49c34 <__gedf2+0x50>

00049c48 <__ltdf2>:
   49c48:	defff104 	addi	sp,sp,-60
   49c4c:	d9000c15 	stw	r4,48(sp)
   49c50:	d9400d15 	stw	r5,52(sp)
   49c54:	d9000c04 	addi	r4,sp,48
   49c58:	d9400504 	addi	r5,sp,20
   49c5c:	dfc00e15 	stw	ra,56(sp)
   49c60:	d9800a15 	stw	r6,40(sp)
   49c64:	d9c00b15 	stw	r7,44(sp)
   49c68:	004a3480 	call	4a348 <__unpack_d>
   49c6c:	d9000a04 	addi	r4,sp,40
   49c70:	d80b883a 	mov	r5,sp
   49c74:	004a3480 	call	4a348 <__unpack_d>
   49c78:	d8c00517 	ldw	r3,20(sp)
   49c7c:	00800044 	movi	r2,1
   49c80:	10c0052e 	bgeu	r2,r3,49c98 <__ltdf2+0x50>
   49c84:	d8c00017 	ldw	r3,0(sp)
   49c88:	10c0032e 	bgeu	r2,r3,49c98 <__ltdf2+0x50>
   49c8c:	d9000504 	addi	r4,sp,20
   49c90:	d80b883a 	mov	r5,sp
   49c94:	004a44c0 	call	4a44c <__fpcmp_parts_d>
   49c98:	dfc00e17 	ldw	ra,56(sp)
   49c9c:	dec00f04 	addi	sp,sp,60
   49ca0:	f800283a 	ret

00049ca4 <__floatsidf>:
   49ca4:	2004d7fa 	srli	r2,r4,31
   49ca8:	defff904 	addi	sp,sp,-28
   49cac:	00c000c4 	movi	r3,3
   49cb0:	dfc00615 	stw	ra,24(sp)
   49cb4:	dc000515 	stw	r16,20(sp)
   49cb8:	d8c00015 	stw	r3,0(sp)
   49cbc:	d8800115 	stw	r2,4(sp)
   49cc0:	2000081e 	bne	r4,zero,49ce4 <__floatsidf+0x40>
   49cc4:	00800084 	movi	r2,2
   49cc8:	d8800015 	stw	r2,0(sp)
   49ccc:	d809883a 	mov	r4,sp
   49cd0:	004a1240 	call	4a124 <__pack_d>
   49cd4:	dfc00617 	ldw	ra,24(sp)
   49cd8:	dc000517 	ldw	r16,20(sp)
   49cdc:	dec00704 	addi	sp,sp,28
   49ce0:	f800283a 	ret
   49ce4:	00c00f04 	movi	r3,60
   49ce8:	d8c00215 	stw	r3,8(sp)
   49cec:	10000f1e 	bne	r2,zero,49d2c <__floatsidf+0x88>
   49cf0:	2021883a 	mov	r16,r4
   49cf4:	8009883a 	mov	r4,r16
   49cf8:	004a0780 	call	4a078 <__clzsi2>
   49cfc:	11000744 	addi	r4,r2,29
   49d00:	0100110e 	bge	zero,r4,49d48 <__floatsidf+0xa4>
   49d04:	10ffff44 	addi	r3,r2,-3
   49d08:	18001216 	blt	r3,zero,49d54 <__floatsidf+0xb0>
   49d0c:	80c6983a 	sll	r3,r16,r3
   49d10:	0009883a 	mov	r4,zero
   49d14:	014007c4 	movi	r5,31
   49d18:	2885c83a 	sub	r2,r5,r2
   49d1c:	d9000315 	stw	r4,12(sp)
   49d20:	d8c00415 	stw	r3,16(sp)
   49d24:	d8800215 	stw	r2,8(sp)
   49d28:	003fe806 	br	49ccc <__floatsidf+0x28>
   49d2c:	00a00034 	movhi	r2,32768
   49d30:	20800e26 	beq	r4,r2,49d6c <__floatsidf+0xc8>
   49d34:	0121c83a 	sub	r16,zero,r4
   49d38:	8009883a 	mov	r4,r16
   49d3c:	004a0780 	call	4a078 <__clzsi2>
   49d40:	11000744 	addi	r4,r2,29
   49d44:	013fef16 	blt	zero,r4,49d04 <__floatsidf+0x60>
   49d48:	dc000315 	stw	r16,12(sp)
   49d4c:	d8000415 	stw	zero,16(sp)
   49d50:	003fde06 	br	49ccc <__floatsidf+0x28>
   49d54:	800ad07a 	srli	r5,r16,1
   49d58:	00c007c4 	movi	r3,31
   49d5c:	1907c83a 	sub	r3,r3,r4
   49d60:	28c6d83a 	srl	r3,r5,r3
   49d64:	8108983a 	sll	r4,r16,r4
   49d68:	003fea06 	br	49d14 <__floatsidf+0x70>
   49d6c:	0005883a 	mov	r2,zero
   49d70:	00f07834 	movhi	r3,49632
   49d74:	003fd706 	br	49cd4 <__floatsidf+0x30>

00049d78 <__fixdfsi>:
   49d78:	defff804 	addi	sp,sp,-32
   49d7c:	d9000515 	stw	r4,20(sp)
   49d80:	d9400615 	stw	r5,24(sp)
   49d84:	d9000504 	addi	r4,sp,20
   49d88:	d80b883a 	mov	r5,sp
   49d8c:	dfc00715 	stw	ra,28(sp)
   49d90:	004a3480 	call	4a348 <__unpack_d>
   49d94:	d8800017 	ldw	r2,0(sp)
   49d98:	00c00084 	movi	r3,2
   49d9c:	10c01c26 	beq	r2,r3,49e10 <__fixdfsi+0x98>
   49da0:	00c00044 	movi	r3,1
   49da4:	18801a2e 	bgeu	r3,r2,49e10 <__fixdfsi+0x98>
   49da8:	00c00104 	movi	r3,4
   49dac:	10c01126 	beq	r2,r3,49df4 <__fixdfsi+0x7c>
   49db0:	d8800217 	ldw	r2,8(sp)
   49db4:	10001616 	blt	r2,zero,49e10 <__fixdfsi+0x98>
   49db8:	00c00784 	movi	r3,30
   49dbc:	18800d16 	blt	r3,r2,49df4 <__fixdfsi+0x7c>
   49dc0:	00c00f04 	movi	r3,60
   49dc4:	1885c83a 	sub	r2,r3,r2
   49dc8:	10fff804 	addi	r3,r2,-32
   49dcc:	d9400317 	ldw	r5,12(sp)
   49dd0:	d9000417 	ldw	r4,16(sp)
   49dd4:	18001616 	blt	r3,zero,49e30 <__fixdfsi+0xb8>
   49dd8:	20c4d83a 	srl	r2,r4,r3
   49ddc:	d8c00117 	ldw	r3,4(sp)
   49de0:	18000126 	beq	r3,zero,49de8 <__fixdfsi+0x70>
   49de4:	0085c83a 	sub	r2,zero,r2
   49de8:	dfc00717 	ldw	ra,28(sp)
   49dec:	dec00804 	addi	sp,sp,32
   49df0:	f800283a 	ret
   49df4:	d8800117 	ldw	r2,4(sp)
   49df8:	1000091e 	bne	r2,zero,49e20 <__fixdfsi+0xa8>
   49dfc:	00a00034 	movhi	r2,32768
   49e00:	10bfffc4 	addi	r2,r2,-1
   49e04:	dfc00717 	ldw	ra,28(sp)
   49e08:	dec00804 	addi	sp,sp,32
   49e0c:	f800283a 	ret
   49e10:	0005883a 	mov	r2,zero
   49e14:	dfc00717 	ldw	ra,28(sp)
   49e18:	dec00804 	addi	sp,sp,32
   49e1c:	f800283a 	ret
   49e20:	00a00034 	movhi	r2,32768
   49e24:	dfc00717 	ldw	ra,28(sp)
   49e28:	dec00804 	addi	sp,sp,32
   49e2c:	f800283a 	ret
   49e30:	2008907a 	slli	r4,r4,1
   49e34:	018007c4 	movi	r6,31
   49e38:	308dc83a 	sub	r6,r6,r2
   49e3c:	2188983a 	sll	r4,r4,r6
   49e40:	2884d83a 	srl	r2,r5,r2
   49e44:	2084b03a 	or	r2,r4,r2
   49e48:	003fe406 	br	49ddc <__fixdfsi+0x64>

00049e4c <__floatunsidf>:
   49e4c:	defff904 	addi	sp,sp,-28
   49e50:	dc000515 	stw	r16,20(sp)
   49e54:	dfc00615 	stw	ra,24(sp)
   49e58:	d8000115 	stw	zero,4(sp)
   49e5c:	2021883a 	mov	r16,r4
   49e60:	20001726 	beq	r4,zero,49ec0 <__floatunsidf+0x74>
   49e64:	008000c4 	movi	r2,3
   49e68:	d8800015 	stw	r2,0(sp)
   49e6c:	00800f04 	movi	r2,60
   49e70:	d8800215 	stw	r2,8(sp)
   49e74:	004a0780 	call	4a078 <__clzsi2>
   49e78:	10c00744 	addi	r3,r2,29
   49e7c:	18001816 	blt	r3,zero,49ee0 <__floatunsidf+0x94>
   49e80:	18002d26 	beq	r3,zero,49f38 <__floatunsidf+0xec>
   49e84:	113fff44 	addi	r4,r2,-3
   49e88:	20002e16 	blt	r4,zero,49f44 <__floatunsidf+0xf8>
   49e8c:	8108983a 	sll	r4,r16,r4
   49e90:	0021883a 	mov	r16,zero
   49e94:	014007c4 	movi	r5,31
   49e98:	2885c83a 	sub	r2,r5,r2
   49e9c:	dc000315 	stw	r16,12(sp)
   49ea0:	d9000415 	stw	r4,16(sp)
   49ea4:	d8800215 	stw	r2,8(sp)
   49ea8:	d809883a 	mov	r4,sp
   49eac:	004a1240 	call	4a124 <__pack_d>
   49eb0:	dfc00617 	ldw	ra,24(sp)
   49eb4:	dc000517 	ldw	r16,20(sp)
   49eb8:	dec00704 	addi	sp,sp,28
   49ebc:	f800283a 	ret
   49ec0:	00800084 	movi	r2,2
   49ec4:	d809883a 	mov	r4,sp
   49ec8:	d8800015 	stw	r2,0(sp)
   49ecc:	004a1240 	call	4a124 <__pack_d>
   49ed0:	dfc00617 	ldw	ra,24(sp)
   49ed4:	dc000517 	ldw	r16,20(sp)
   49ed8:	dec00704 	addi	sp,sp,28
   49edc:	f800283a 	ret
   49ee0:	00c7c83a 	sub	r3,zero,r3
   49ee4:	193ff804 	addi	r4,r3,-32
   49ee8:	20001c16 	blt	r4,zero,49f5c <__floatunsidf+0x110>
   49eec:	000b883a 	mov	r5,zero
   49ef0:	2009d7fa 	srai	r4,r4,31
   49ef4:	80c6d83a 	srl	r3,r16,r3
   49ef8:	297fffc4 	addi	r5,r5,-1
   49efc:	2c20703a 	and	r16,r5,r16
   49f00:	8020c03a 	cmpne	r16,r16,zero
   49f04:	1906703a 	and	r3,r3,r4
   49f08:	010007c4 	movi	r4,31
   49f0c:	80c6b03a 	or	r3,r16,r3
   49f10:	2085c83a 	sub	r2,r4,r2
   49f14:	d809883a 	mov	r4,sp
   49f18:	d8c00315 	stw	r3,12(sp)
   49f1c:	d8000415 	stw	zero,16(sp)
   49f20:	d8800215 	stw	r2,8(sp)
   49f24:	004a1240 	call	4a124 <__pack_d>
   49f28:	dfc00617 	ldw	ra,24(sp)
   49f2c:	dc000517 	ldw	r16,20(sp)
   49f30:	dec00704 	addi	sp,sp,28
   49f34:	f800283a 	ret
   49f38:	dc000315 	stw	r16,12(sp)
   49f3c:	d8000415 	stw	zero,16(sp)
   49f40:	003fd906 	br	49ea8 <__floatunsidf+0x5c>
   49f44:	800ad07a 	srli	r5,r16,1
   49f48:	010007c4 	movi	r4,31
   49f4c:	20c9c83a 	sub	r4,r4,r3
   49f50:	2908d83a 	srl	r4,r5,r4
   49f54:	80e0983a 	sll	r16,r16,r3
   49f58:	003fce06 	br	49e94 <__floatunsidf+0x48>
   49f5c:	01400044 	movi	r5,1
   49f60:	28ca983a 	sll	r5,r5,r3
   49f64:	003fe206 	br	49ef0 <__floatunsidf+0xa4>

00049f68 <__muldi3>:
   49f68:	defff604 	addi	sp,sp,-40
   49f6c:	dd400515 	stw	r21,20(sp)
   49f70:	dd000415 	stw	r20,16(sp)
   49f74:	257fffcc 	andi	r21,r4,65535
   49f78:	353fffcc 	andi	r20,r6,65535
   49f7c:	dcc00315 	stw	r19,12(sp)
   49f80:	3026d43a 	srli	r19,r6,16
   49f84:	dd800615 	stw	r22,24(sp)
   49f88:	dc800215 	stw	r18,8(sp)
   49f8c:	dc400115 	stw	r17,4(sp)
   49f90:	2024d43a 	srli	r18,r4,16
   49f94:	2023883a 	mov	r17,r4
   49f98:	282d883a 	mov	r22,r5
   49f9c:	a009883a 	mov	r4,r20
   49fa0:	a80b883a 	mov	r5,r21
   49fa4:	dfc00915 	stw	ra,36(sp)
   49fa8:	df000815 	stw	fp,32(sp)
   49fac:	ddc00715 	stw	r23,28(sp)
   49fb0:	3839883a 	mov	fp,r7
   49fb4:	dc000015 	stw	r16,0(sp)
   49fb8:	3021883a 	mov	r16,r6
   49fbc:	0040e000 	call	40e00 <__mulsi3>
   49fc0:	a80b883a 	mov	r5,r21
   49fc4:	9809883a 	mov	r4,r19
   49fc8:	102f883a 	mov	r23,r2
   49fcc:	0040e000 	call	40e00 <__mulsi3>
   49fd0:	a009883a 	mov	r4,r20
   49fd4:	900b883a 	mov	r5,r18
   49fd8:	102b883a 	mov	r21,r2
   49fdc:	0040e000 	call	40e00 <__mulsi3>
   49fe0:	9809883a 	mov	r4,r19
   49fe4:	900b883a 	mov	r5,r18
   49fe8:	1029883a 	mov	r20,r2
   49fec:	0040e000 	call	40e00 <__mulsi3>
   49ff0:	1007883a 	mov	r3,r2
   49ff4:	b804d43a 	srli	r2,r23,16
   49ff8:	a549883a 	add	r4,r20,r21
   49ffc:	2089883a 	add	r4,r4,r2
   4a000:	2500022e 	bgeu	r4,r20,4a00c <__muldi3+0xa4>
   4a004:	00800074 	movhi	r2,1
   4a008:	1887883a 	add	r3,r3,r2
   4a00c:	200cd43a 	srli	r6,r4,16
   4a010:	2004943a 	slli	r2,r4,16
   4a014:	e00b883a 	mov	r5,fp
   4a018:	8809883a 	mov	r4,r17
   4a01c:	bdffffcc 	andi	r23,r23,65535
   4a020:	19a3883a 	add	r17,r3,r6
   4a024:	15ef883a 	add	r23,r2,r23
   4a028:	0040e000 	call	40e00 <__mulsi3>
   4a02c:	8009883a 	mov	r4,r16
   4a030:	b00b883a 	mov	r5,r22
   4a034:	1025883a 	mov	r18,r2
   4a038:	0040e000 	call	40e00 <__mulsi3>
   4a03c:	9085883a 	add	r2,r18,r2
   4a040:	1447883a 	add	r3,r2,r17
   4a044:	b805883a 	mov	r2,r23
   4a048:	dfc00917 	ldw	ra,36(sp)
   4a04c:	df000817 	ldw	fp,32(sp)
   4a050:	ddc00717 	ldw	r23,28(sp)
   4a054:	dd800617 	ldw	r22,24(sp)
   4a058:	dd400517 	ldw	r21,20(sp)
   4a05c:	dd000417 	ldw	r20,16(sp)
   4a060:	dcc00317 	ldw	r19,12(sp)
   4a064:	dc800217 	ldw	r18,8(sp)
   4a068:	dc400117 	ldw	r17,4(sp)
   4a06c:	dc000017 	ldw	r16,0(sp)
   4a070:	dec00a04 	addi	sp,sp,40
   4a074:	f800283a 	ret

0004a078 <__clzsi2>:
   4a078:	00bfffd4 	movui	r2,65535
   4a07c:	11000b36 	bltu	r2,r4,4a0ac <__clzsi2+0x34>
   4a080:	00803fc4 	movi	r2,255
   4a084:	11001e2e 	bgeu	r2,r4,4a100 <__clzsi2+0x88>
   4a088:	00c00204 	movi	r3,8
   4a08c:	20c8d83a 	srl	r4,r4,r3
   4a090:	00c00174 	movhi	r3,5
   4a094:	18f56f04 	addi	r3,r3,-10820
   4a098:	00800604 	movi	r2,24
   4a09c:	1909883a 	add	r4,r3,r4
   4a0a0:	20c00003 	ldbu	r3,0(r4)
   4a0a4:	10c5c83a 	sub	r2,r2,r3
   4a0a8:	f800283a 	ret
   4a0ac:	00804034 	movhi	r2,256
   4a0b0:	10bfffc4 	addi	r2,r2,-1
   4a0b4:	11000936 	bltu	r2,r4,4a0dc <__clzsi2+0x64>
   4a0b8:	00800404 	movi	r2,16
   4a0bc:	1007883a 	mov	r3,r2
   4a0c0:	20c8d83a 	srl	r4,r4,r3
   4a0c4:	00c00174 	movhi	r3,5
   4a0c8:	18f56f04 	addi	r3,r3,-10820
   4a0cc:	1909883a 	add	r4,r3,r4
   4a0d0:	20c00003 	ldbu	r3,0(r4)
   4a0d4:	10c5c83a 	sub	r2,r2,r3
   4a0d8:	f800283a 	ret
   4a0dc:	00c00604 	movi	r3,24
   4a0e0:	20c8d83a 	srl	r4,r4,r3
   4a0e4:	00c00174 	movhi	r3,5
   4a0e8:	18f56f04 	addi	r3,r3,-10820
   4a0ec:	00800204 	movi	r2,8
   4a0f0:	1909883a 	add	r4,r3,r4
   4a0f4:	20c00003 	ldbu	r3,0(r4)
   4a0f8:	10c5c83a 	sub	r2,r2,r3
   4a0fc:	f800283a 	ret
   4a100:	0007883a 	mov	r3,zero
   4a104:	20c8d83a 	srl	r4,r4,r3
   4a108:	00c00174 	movhi	r3,5
   4a10c:	18f56f04 	addi	r3,r3,-10820
   4a110:	00800804 	movi	r2,32
   4a114:	1909883a 	add	r4,r3,r4
   4a118:	20c00003 	ldbu	r3,0(r4)
   4a11c:	10c5c83a 	sub	r2,r2,r3
   4a120:	f800283a 	ret

0004a124 <__pack_d>:
   4a124:	20800017 	ldw	r2,0(r4)
   4a128:	defff804 	addi	sp,sp,-32
   4a12c:	dcc00315 	stw	r19,12(sp)
   4a130:	dc800215 	stw	r18,8(sp)
   4a134:	dfc00715 	stw	ra,28(sp)
   4a138:	dd800615 	stw	r22,24(sp)
   4a13c:	dd400515 	stw	r21,20(sp)
   4a140:	dd000415 	stw	r20,16(sp)
   4a144:	dc400115 	stw	r17,4(sp)
   4a148:	dc000015 	stw	r16,0(sp)
   4a14c:	04800044 	movi	r18,1
   4a150:	24400317 	ldw	r17,12(r4)
   4a154:	24000417 	ldw	r16,16(r4)
   4a158:	24c00117 	ldw	r19,4(r4)
   4a15c:	9080422e 	bgeu	r18,r2,4a268 <__pack_d+0x144>
   4a160:	00c00104 	movi	r3,4
   4a164:	10c03c26 	beq	r2,r3,4a258 <__pack_d+0x134>
   4a168:	00c00084 	movi	r3,2
   4a16c:	10c01926 	beq	r2,r3,4a1d4 <__pack_d+0xb0>
   4a170:	8c04b03a 	or	r2,r17,r16
   4a174:	10001726 	beq	r2,zero,4a1d4 <__pack_d+0xb0>
   4a178:	21000217 	ldw	r4,8(r4)
   4a17c:	00bf0084 	movi	r2,-1022
   4a180:	20804016 	blt	r4,r2,4a284 <__pack_d+0x160>
   4a184:	0080ffc4 	movi	r2,1023
   4a188:	11003316 	blt	r2,r4,4a258 <__pack_d+0x134>
   4a18c:	88803fcc 	andi	r2,r17,255
   4a190:	00c02004 	movi	r3,128
   4a194:	10c02926 	beq	r2,r3,4a23c <__pack_d+0x118>
   4a198:	88801fc4 	addi	r2,r17,127
   4a19c:	1463803a 	cmpltu	r17,r2,r17
   4a1a0:	8c21883a 	add	r16,r17,r16
   4a1a4:	1023883a 	mov	r17,r2
   4a1a8:	00880034 	movhi	r2,8192
   4a1ac:	10bfffc4 	addi	r2,r2,-1
   4a1b0:	14001c36 	bltu	r2,r16,4a224 <__pack_d+0x100>
   4a1b4:	2100ffc4 	addi	r4,r4,1023
   4a1b8:	8006963a 	slli	r3,r16,24
   4a1bc:	8804d23a 	srli	r2,r17,8
   4a1c0:	8020913a 	slli	r16,r16,4
   4a1c4:	2101ffcc 	andi	r4,r4,2047
   4a1c8:	1884b03a 	or	r2,r3,r2
   4a1cc:	8020d33a 	srli	r16,r16,12
   4a1d0:	00000306 	br	4a1e0 <__pack_d+0xbc>
   4a1d4:	0009883a 	mov	r4,zero
   4a1d8:	0005883a 	mov	r2,zero
   4a1dc:	0021883a 	mov	r16,zero
   4a1e0:	2008953a 	slli	r4,r4,20
   4a1e4:	982697fa 	slli	r19,r19,31
   4a1e8:	00c00434 	movhi	r3,16
   4a1ec:	18ffffc4 	addi	r3,r3,-1
   4a1f0:	80e0703a 	and	r16,r16,r3
   4a1f4:	8106b03a 	or	r3,r16,r4
   4a1f8:	1cc6b03a 	or	r3,r3,r19
   4a1fc:	dfc00717 	ldw	ra,28(sp)
   4a200:	dd800617 	ldw	r22,24(sp)
   4a204:	dd400517 	ldw	r21,20(sp)
   4a208:	dd000417 	ldw	r20,16(sp)
   4a20c:	dcc00317 	ldw	r19,12(sp)
   4a210:	dc800217 	ldw	r18,8(sp)
   4a214:	dc400117 	ldw	r17,4(sp)
   4a218:	dc000017 	ldw	r16,0(sp)
   4a21c:	dec00804 	addi	sp,sp,32
   4a220:	f800283a 	ret
   4a224:	800697fa 	slli	r3,r16,31
   4a228:	8804d07a 	srli	r2,r17,1
   4a22c:	21010004 	addi	r4,r4,1024
   4a230:	8020d07a 	srli	r16,r16,1
   4a234:	18a2b03a 	or	r17,r3,r2
   4a238:	003fdf06 	br	4a1b8 <__pack_d+0x94>
   4a23c:	88c0400c 	andi	r3,r17,256
   4a240:	183fd926 	beq	r3,zero,4a1a8 <__pack_d+0x84>
   4a244:	8885883a 	add	r2,r17,r2
   4a248:	1463803a 	cmpltu	r17,r2,r17
   4a24c:	8c21883a 	add	r16,r17,r16
   4a250:	1023883a 	mov	r17,r2
   4a254:	003fd406 	br	4a1a8 <__pack_d+0x84>
   4a258:	0101ffc4 	movi	r4,2047
   4a25c:	0005883a 	mov	r2,zero
   4a260:	0021883a 	mov	r16,zero
   4a264:	003fde06 	br	4a1e0 <__pack_d+0xbc>
   4a268:	84000234 	orhi	r16,r16,8
   4a26c:	00c00434 	movhi	r3,16
   4a270:	18ffffc4 	addi	r3,r3,-1
   4a274:	8805883a 	mov	r2,r17
   4a278:	80e0703a 	and	r16,r16,r3
   4a27c:	0101ffc4 	movi	r4,2047
   4a280:	003fd706 	br	4a1e0 <__pack_d+0xbc>
   4a284:	1129c83a 	sub	r20,r2,r4
   4a288:	00800e04 	movi	r2,56
   4a28c:	15002716 	blt	r2,r20,4a32c <__pack_d+0x208>
   4a290:	800b883a 	mov	r5,r16
   4a294:	a00d883a 	mov	r6,r20
   4a298:	8809883a 	mov	r4,r17
   4a29c:	004a51c0 	call	4a51c <__lshrdi3>
   4a2a0:	9009883a 	mov	r4,r18
   4a2a4:	000b883a 	mov	r5,zero
   4a2a8:	a00d883a 	mov	r6,r20
   4a2ac:	102d883a 	mov	r22,r2
   4a2b0:	182b883a 	mov	r21,r3
   4a2b4:	004a5600 	call	4a560 <__ashldi3>
   4a2b8:	1009003a 	cmpeq	r4,r2,zero
   4a2bc:	1907c83a 	sub	r3,r3,r4
   4a2c0:	10bfffc4 	addi	r2,r2,-1
   4a2c4:	1c20703a 	and	r16,r3,r16
   4a2c8:	1444703a 	and	r2,r2,r17
   4a2cc:	1404b03a 	or	r2,r2,r16
   4a2d0:	1004c03a 	cmpne	r2,r2,zero
   4a2d4:	1584b03a 	or	r2,r2,r22
   4a2d8:	11003fcc 	andi	r4,r2,255
   4a2dc:	01402004 	movi	r5,128
   4a2e0:	a807883a 	mov	r3,r21
   4a2e4:	2140131e 	bne	r4,r5,4a334 <__pack_d+0x210>
   4a2e8:	1140400c 	andi	r5,r2,256
   4a2ec:	28000426 	beq	r5,zero,4a300 <__pack_d+0x1dc>
   4a2f0:	1109883a 	add	r4,r2,r4
   4a2f4:	2085803a 	cmpltu	r2,r4,r2
   4a2f8:	1547883a 	add	r3,r2,r21
   4a2fc:	2005883a 	mov	r2,r4
   4a300:	1808963a 	slli	r4,r3,24
   4a304:	1004d23a 	srli	r2,r2,8
   4a308:	1820913a 	slli	r16,r3,4
   4a30c:	01440034 	movhi	r5,4096
   4a310:	297fffc4 	addi	r5,r5,-1
   4a314:	2084b03a 	or	r2,r4,r2
   4a318:	8020d33a 	srli	r16,r16,12
   4a31c:	01000044 	movi	r4,1
   4a320:	28ffaf36 	bltu	r5,r3,4a1e0 <__pack_d+0xbc>
   4a324:	0009883a 	mov	r4,zero
   4a328:	003fad06 	br	4a1e0 <__pack_d+0xbc>
   4a32c:	0005883a 	mov	r2,zero
   4a330:	0007883a 	mov	r3,zero
   4a334:	11001fc4 	addi	r4,r2,127
   4a338:	2085803a 	cmpltu	r2,r4,r2
   4a33c:	10c7883a 	add	r3,r2,r3
   4a340:	2005883a 	mov	r2,r4
   4a344:	003fee06 	br	4a300 <__pack_d+0x1dc>

0004a348 <__unpack_d>:
   4a348:	21800117 	ldw	r6,4(r4)
   4a34c:	20c00017 	ldw	r3,0(r4)
   4a350:	3004d7fa 	srli	r2,r6,31
   4a354:	3008d53a 	srli	r4,r6,20
   4a358:	28800115 	stw	r2,4(r5)
   4a35c:	2101ffcc 	andi	r4,r4,2047
   4a360:	00800434 	movhi	r2,16
   4a364:	10bfffc4 	addi	r2,r2,-1
   4a368:	3084703a 	and	r2,r6,r2
   4a36c:	20001a1e 	bne	r4,zero,4a3d8 <__unpack_d+0x90>
   4a370:	1888b03a 	or	r4,r3,r2
   4a374:	20002626 	beq	r4,zero,4a410 <__unpack_d+0xc8>
   4a378:	1808d63a 	srli	r4,r3,24
   4a37c:	1004923a 	slli	r2,r2,8
   4a380:	01bf0084 	movi	r6,-1022
   4a384:	29800215 	stw	r6,8(r5)
   4a388:	2084b03a 	or	r2,r4,r2
   4a38c:	010000c4 	movi	r4,3
   4a390:	29000015 	stw	r4,0(r5)
   4a394:	02040034 	movhi	r8,4096
   4a398:	423fffc4 	addi	r8,r8,-1
   4a39c:	1806923a 	slli	r3,r3,8
   4a3a0:	40801836 	bltu	r8,r2,4a404 <__unpack_d+0xbc>
   4a3a4:	013f0044 	movi	r4,-1023
   4a3a8:	18cd883a 	add	r6,r3,r3
   4a3ac:	30c7803a 	cmpltu	r3,r6,r3
   4a3b0:	1085883a 	add	r2,r2,r2
   4a3b4:	1885883a 	add	r2,r3,r2
   4a3b8:	200f883a 	mov	r7,r4
   4a3bc:	3007883a 	mov	r3,r6
   4a3c0:	213fffc4 	addi	r4,r4,-1
   4a3c4:	40bff82e 	bgeu	r8,r2,4a3a8 <__unpack_d+0x60>
   4a3c8:	29c00215 	stw	r7,8(r5)
   4a3cc:	28c00315 	stw	r3,12(r5)
   4a3d0:	28800415 	stw	r2,16(r5)
   4a3d4:	f800283a 	ret
   4a3d8:	01c1ffc4 	movi	r7,2047
   4a3dc:	21c00f26 	beq	r4,r7,4a41c <__unpack_d+0xd4>
   4a3e0:	180cd63a 	srli	r6,r3,24
   4a3e4:	1004923a 	slli	r2,r2,8
   4a3e8:	213f0044 	addi	r4,r4,-1023
   4a3ec:	1806923a 	slli	r3,r3,8
   4a3f0:	3084b03a 	or	r2,r6,r2
   4a3f4:	29000215 	stw	r4,8(r5)
   4a3f8:	010000c4 	movi	r4,3
   4a3fc:	10840034 	orhi	r2,r2,4096
   4a400:	29000015 	stw	r4,0(r5)
   4a404:	28c00315 	stw	r3,12(r5)
   4a408:	28800415 	stw	r2,16(r5)
   4a40c:	f800283a 	ret
   4a410:	00800084 	movi	r2,2
   4a414:	28800015 	stw	r2,0(r5)
   4a418:	f800283a 	ret
   4a41c:	1888b03a 	or	r4,r3,r2
   4a420:	20000526 	beq	r4,zero,4a438 <__unpack_d+0xf0>
   4a424:	3180022c 	andhi	r6,r6,8
   4a428:	30000626 	beq	r6,zero,4a444 <__unpack_d+0xfc>
   4a42c:	01000044 	movi	r4,1
   4a430:	29000015 	stw	r4,0(r5)
   4a434:	003ff306 	br	4a404 <__unpack_d+0xbc>
   4a438:	00800104 	movi	r2,4
   4a43c:	28800015 	stw	r2,0(r5)
   4a440:	f800283a 	ret
   4a444:	28000015 	stw	zero,0(r5)
   4a448:	003fee06 	br	4a404 <__unpack_d+0xbc>

0004a44c <__fpcmp_parts_d>:
   4a44c:	20c00017 	ldw	r3,0(r4)
   4a450:	00800044 	movi	r2,1
   4a454:	10c0142e 	bgeu	r2,r3,4a4a8 <__fpcmp_parts_d+0x5c>
   4a458:	29800017 	ldw	r6,0(r5)
   4a45c:	1180122e 	bgeu	r2,r6,4a4a8 <__fpcmp_parts_d+0x5c>
   4a460:	01c00104 	movi	r7,4
   4a464:	19c02826 	beq	r3,r7,4a508 <__fpcmp_parts_d+0xbc>
   4a468:	31c00926 	beq	r6,r7,4a490 <__fpcmp_parts_d+0x44>
   4a46c:	01c00084 	movi	r7,2
   4a470:	19c00626 	beq	r3,r7,4a48c <__fpcmp_parts_d+0x40>
   4a474:	31c00a26 	beq	r6,r7,4a4a0 <__fpcmp_parts_d+0x54>
   4a478:	20c00117 	ldw	r3,4(r4)
   4a47c:	29800117 	ldw	r6,4(r5)
   4a480:	19800b26 	beq	r3,r6,4a4b0 <__fpcmp_parts_d+0x64>
   4a484:	1800041e 	bne	r3,zero,4a498 <__fpcmp_parts_d+0x4c>
   4a488:	f800283a 	ret
   4a48c:	30c01a26 	beq	r6,r3,4a4f8 <__fpcmp_parts_d+0xac>
   4a490:	28800117 	ldw	r2,4(r5)
   4a494:	1000041e 	bne	r2,zero,4a4a8 <__fpcmp_parts_d+0x5c>
   4a498:	00bfffc4 	movi	r2,-1
   4a49c:	f800283a 	ret
   4a4a0:	20800117 	ldw	r2,4(r4)
   4a4a4:	103ffc1e 	bne	r2,zero,4a498 <__fpcmp_parts_d+0x4c>
   4a4a8:	00800044 	movi	r2,1
   4a4ac:	f800283a 	ret
   4a4b0:	21c00217 	ldw	r7,8(r4)
   4a4b4:	29800217 	ldw	r6,8(r5)
   4a4b8:	31c0020e 	bge	r6,r7,4a4c4 <__fpcmp_parts_d+0x78>
   4a4bc:	183ff61e 	bne	r3,zero,4a498 <__fpcmp_parts_d+0x4c>
   4a4c0:	f800283a 	ret
   4a4c4:	39800a16 	blt	r7,r6,4a4f0 <__fpcmp_parts_d+0xa4>
   4a4c8:	20800417 	ldw	r2,16(r4)
   4a4cc:	29800417 	ldw	r6,16(r5)
   4a4d0:	21c00317 	ldw	r7,12(r4)
   4a4d4:	29000317 	ldw	r4,12(r5)
   4a4d8:	30800936 	bltu	r6,r2,4a500 <__fpcmp_parts_d+0xb4>
   4a4dc:	1180011e 	bne	r2,r6,4a4e4 <__fpcmp_parts_d+0x98>
   4a4e0:	21c00736 	bltu	r4,r7,4a500 <__fpcmp_parts_d+0xb4>
   4a4e4:	11800236 	bltu	r2,r6,4a4f0 <__fpcmp_parts_d+0xa4>
   4a4e8:	3080031e 	bne	r6,r2,4a4f8 <__fpcmp_parts_d+0xac>
   4a4ec:	3900022e 	bgeu	r7,r4,4a4f8 <__fpcmp_parts_d+0xac>
   4a4f0:	183fe926 	beq	r3,zero,4a498 <__fpcmp_parts_d+0x4c>
   4a4f4:	003fec06 	br	4a4a8 <__fpcmp_parts_d+0x5c>
   4a4f8:	0005883a 	mov	r2,zero
   4a4fc:	f800283a 	ret
   4a500:	183fe926 	beq	r3,zero,4a4a8 <__fpcmp_parts_d+0x5c>
   4a504:	003fe406 	br	4a498 <__fpcmp_parts_d+0x4c>
   4a508:	30ffe51e 	bne	r6,r3,4a4a0 <__fpcmp_parts_d+0x54>
   4a50c:	28c00117 	ldw	r3,4(r5)
   4a510:	20800117 	ldw	r2,4(r4)
   4a514:	1885c83a 	sub	r2,r3,r2
   4a518:	f800283a 	ret

0004a51c <__lshrdi3>:
   4a51c:	2005883a 	mov	r2,r4
   4a520:	2807883a 	mov	r3,r5
   4a524:	30000826 	beq	r6,zero,4a548 <__lshrdi3+0x2c>
   4a528:	01000804 	movi	r4,32
   4a52c:	2189c83a 	sub	r4,r4,r6
   4a530:	0100060e 	bge	zero,r4,4a54c <__lshrdi3+0x30>
   4a534:	1184d83a 	srl	r2,r2,r6
   4a538:	2908983a 	sll	r4,r5,r4
   4a53c:	298cd83a 	srl	r6,r5,r6
   4a540:	2084b03a 	or	r2,r4,r2
   4a544:	3007883a 	mov	r3,r6
   4a548:	f800283a 	ret
   4a54c:	0105c83a 	sub	r2,zero,r4
   4a550:	000d883a 	mov	r6,zero
   4a554:	2884d83a 	srl	r2,r5,r2
   4a558:	3007883a 	mov	r3,r6
   4a55c:	003ffa06 	br	4a548 <__lshrdi3+0x2c>

0004a560 <__ashldi3>:
   4a560:	2005883a 	mov	r2,r4
   4a564:	2807883a 	mov	r3,r5
   4a568:	30000826 	beq	r6,zero,4a58c <__ashldi3+0x2c>
   4a56c:	01000804 	movi	r4,32
   4a570:	2189c83a 	sub	r4,r4,r6
   4a574:	0100060e 	bge	zero,r4,4a590 <__ashldi3+0x30>
   4a578:	1108d83a 	srl	r4,r2,r4
   4a57c:	2986983a 	sll	r3,r5,r6
   4a580:	118c983a 	sll	r6,r2,r6
   4a584:	20c6b03a 	or	r3,r4,r3
   4a588:	3005883a 	mov	r2,r6
   4a58c:	f800283a 	ret
   4a590:	0107c83a 	sub	r3,zero,r4
   4a594:	000d883a 	mov	r6,zero
   4a598:	10c6983a 	sll	r3,r2,r3
   4a59c:	3005883a 	mov	r2,r6
   4a5a0:	003ffa06 	br	4a58c <__ashldi3+0x2c>

0004a5a4 <alt_get_errno>:
#undef errno

extern int errno;

static ALT_INLINE int* alt_get_errno(void)
{
   4a5a4:	defffe04 	addi	sp,sp,-8
   4a5a8:	dfc00115 	stw	ra,4(sp)
   4a5ac:	df000015 	stw	fp,0(sp)
   4a5b0:	d839883a 	mov	fp,sp
  return ((alt_errno) ? alt_errno() : &errno);
   4a5b4:	00800174 	movhi	r2,5
   4a5b8:	10bc4b04 	addi	r2,r2,-3796
   4a5bc:	10800017 	ldw	r2,0(r2)
   4a5c0:	10000526 	beq	r2,zero,4a5d8 <alt_get_errno+0x34>
   4a5c4:	00800174 	movhi	r2,5
   4a5c8:	10bc4b04 	addi	r2,r2,-3796
   4a5cc:	10800017 	ldw	r2,0(r2)
   4a5d0:	103ee83a 	callr	r2
   4a5d4:	00000206 	br	4a5e0 <alt_get_errno+0x3c>
   4a5d8:	00800174 	movhi	r2,5
   4a5dc:	1082ec04 	addi	r2,r2,2992
}
   4a5e0:	e037883a 	mov	sp,fp
   4a5e4:	dfc00117 	ldw	ra,4(sp)
   4a5e8:	df000017 	ldw	fp,0(sp)
   4a5ec:	dec00204 	addi	sp,sp,8
   4a5f0:	f800283a 	ret

0004a5f4 <close>:
 *
 * ALT_CLOSE is mapped onto the close() system call in alt_syscall.h
 */
 
int ALT_CLOSE (int fildes)
{
   4a5f4:	defffb04 	addi	sp,sp,-20
   4a5f8:	dfc00415 	stw	ra,16(sp)
   4a5fc:	df000315 	stw	fp,12(sp)
   4a600:	df000304 	addi	fp,sp,12
   4a604:	e13fff15 	stw	r4,-4(fp)
   * A common error case is that when the file descriptor was created, the call
   * to open() failed resulting in a negative file descriptor. This is trapped
   * below so that we don't try and process an invalid file descriptor.
   */

  fd = (fildes < 0) ? NULL : &alt_fd_list[fildes];
   4a608:	e0bfff17 	ldw	r2,-4(fp)
   4a60c:	10000716 	blt	r2,zero,4a62c <close+0x38>
   4a610:	e13fff17 	ldw	r4,-4(fp)
   4a614:	01400304 	movi	r5,12
   4a618:	0040e000 	call	40e00 <__mulsi3>
   4a61c:	00c00174 	movhi	r3,5
   4a620:	18f7c904 	addi	r3,r3,-8412
   4a624:	10c5883a 	add	r2,r2,r3
   4a628:	00000106 	br	4a630 <close+0x3c>
   4a62c:	0005883a 	mov	r2,zero
   4a630:	e0bffd15 	stw	r2,-12(fp)

  if (fd)
   4a634:	e0bffd17 	ldw	r2,-12(fp)
   4a638:	10001826 	beq	r2,zero,4a69c <close+0xa8>
    /*
     * If the associated file system/device has a close function, call it so 
     * that any necessary cleanup code can run.
     */

    rval = (fd->dev->close) ? fd->dev->close(fd) : 0;
   4a63c:	e0bffd17 	ldw	r2,-12(fp)
   4a640:	10800017 	ldw	r2,0(r2)
   4a644:	10800417 	ldw	r2,16(r2)
   4a648:	10000626 	beq	r2,zero,4a664 <close+0x70>
   4a64c:	e0bffd17 	ldw	r2,-12(fp)
   4a650:	10800017 	ldw	r2,0(r2)
   4a654:	10800417 	ldw	r2,16(r2)
   4a658:	e13ffd17 	ldw	r4,-12(fp)
   4a65c:	103ee83a 	callr	r2
   4a660:	00000106 	br	4a668 <close+0x74>
   4a664:	0005883a 	mov	r2,zero
   4a668:	e0bffe15 	stw	r2,-8(fp)

    /* Free the file descriptor structure and return. */

    alt_release_fd (fildes);
   4a66c:	e13fff17 	ldw	r4,-4(fp)
   4a670:	004ad280 	call	4ad28 <alt_release_fd>
    if (rval < 0)
   4a674:	e0bffe17 	ldw	r2,-8(fp)
   4a678:	1000060e 	bge	r2,zero,4a694 <close+0xa0>
    {
      ALT_ERRNO = -rval;
   4a67c:	004a5a40 	call	4a5a4 <alt_get_errno>
   4a680:	e0fffe17 	ldw	r3,-8(fp)
   4a684:	00c7c83a 	sub	r3,zero,r3
   4a688:	10c00015 	stw	r3,0(r2)
      return -1;
   4a68c:	00bfffc4 	movi	r2,-1
   4a690:	00000606 	br	4a6ac <close+0xb8>
    }
    return 0;
   4a694:	0005883a 	mov	r2,zero
   4a698:	00000406 	br	4a6ac <close+0xb8>
  }
  else
  {
    ALT_ERRNO = EBADFD;
   4a69c:	004a5a40 	call	4a5a4 <alt_get_errno>
   4a6a0:	00c01444 	movi	r3,81
   4a6a4:	10c00015 	stw	r3,0(r2)
    return -1;
   4a6a8:	00bfffc4 	movi	r2,-1
  }
}
   4a6ac:	e037883a 	mov	sp,fp
   4a6b0:	dfc00117 	ldw	ra,4(sp)
   4a6b4:	df000017 	ldw	fp,0(sp)
   4a6b8:	dec00204 	addi	sp,sp,8
   4a6bc:	f800283a 	ret

0004a6c0 <alt_dev_null_write>:
 * by the alt_dev_null device. It simple discards all data passed to it, and
 * indicates that the data has been successfully transmitted.
 */

static int alt_dev_null_write (alt_fd* fd, const char* ptr, int len)
{
   4a6c0:	defffc04 	addi	sp,sp,-16
   4a6c4:	df000315 	stw	fp,12(sp)
   4a6c8:	df000304 	addi	fp,sp,12
   4a6cc:	e13ffd15 	stw	r4,-12(fp)
   4a6d0:	e17ffe15 	stw	r5,-8(fp)
   4a6d4:	e1bfff15 	stw	r6,-4(fp)
  return len;
   4a6d8:	e0bfff17 	ldw	r2,-4(fp)
}
   4a6dc:	e037883a 	mov	sp,fp
   4a6e0:	df000017 	ldw	fp,0(sp)
   4a6e4:	dec00104 	addi	sp,sp,4
   4a6e8:	f800283a 	ret

0004a6ec <_exit>:
 *
 * ALT_EXIT is mapped onto the _exit() system call in alt_syscall.h
 */

void ALT_EXIT (int exit_code)
{
   4a6ec:	defffc04 	addi	sp,sp,-16
   4a6f0:	df000315 	stw	fp,12(sp)
   4a6f4:	df000304 	addi	fp,sp,12
   4a6f8:	e13fff15 	stw	r4,-4(fp)
  ALT_LOG_PRINT_BOOT("[alt_exit.c] Entering _exit() function.\r\n");
  ALT_LOG_PRINT_BOOT("[alt_exit.c] Exit code from main was %d.\r\n",exit_code);
  /* Stop all other threads */

  ALT_LOG_PRINT_BOOT("[alt_exit.c] Calling ALT_OS_STOP().\r\n");
  ALT_OS_STOP();
   4a6fc:	0001883a 	nop
   4a700:	e0bfff17 	ldw	r2,-4(fp)
   4a704:	e0bffd15 	stw	r2,-12(fp)
/*
 * Routine called on exit.
 */
static ALT_INLINE ALT_ALWAYS_INLINE void alt_sim_halt(int exit_code)
{
  int r2 = exit_code;
   4a708:	e0bffd17 	ldw	r2,-12(fp)
   4a70c:	e0bffe15 	stw	r2,-8(fp)
  __asm__ volatile ("\n0:\n\taddi %0,%0, -1\n\tbgt %0,zero,0b" : : "r" (ALT_CPU_FREQ/100) ); /* Delay for >30ms */

  __asm__ volatile ("break 2" : : "D02"(r2), "D03"(r3) ALT_GMON_DATA );

#else /* !DEBUG_STUB */
  if (r2) {
   4a710:	e0bffe17 	ldw	r2,-8(fp)
   4a714:	10000226 	beq	r2,zero,4a720 <_exit+0x34>
    ALT_SIM_FAIL();
   4a718:	002af070 	cmpltui	zero,zero,43969
   4a71c:	00000106 	br	4a724 <_exit+0x38>
  } else {
    ALT_SIM_PASS();
   4a720:	002af0b0 	cmpltui	zero,zero,43970
  ALT_SIM_HALT(exit_code);

  /* spin forever, since there's no where to go back to */

  ALT_LOG_PRINT_BOOT("[alt_exit.c] Spinning forever.\r\n");
  while (1);
   4a724:	003fff06 	br	4a724 <_exit+0x38>

0004a728 <alt_get_errno>:
#undef errno

extern int errno;

static ALT_INLINE int* alt_get_errno(void)
{
   4a728:	defffe04 	addi	sp,sp,-8
   4a72c:	dfc00115 	stw	ra,4(sp)
   4a730:	df000015 	stw	fp,0(sp)
   4a734:	d839883a 	mov	fp,sp
  return ((alt_errno) ? alt_errno() : &errno);
   4a738:	00800174 	movhi	r2,5
   4a73c:	10bc4b04 	addi	r2,r2,-3796
   4a740:	10800017 	ldw	r2,0(r2)
   4a744:	10000526 	beq	r2,zero,4a75c <alt_get_errno+0x34>
   4a748:	00800174 	movhi	r2,5
   4a74c:	10bc4b04 	addi	r2,r2,-3796
   4a750:	10800017 	ldw	r2,0(r2)
   4a754:	103ee83a 	callr	r2
   4a758:	00000206 	br	4a764 <alt_get_errno+0x3c>
   4a75c:	00800174 	movhi	r2,5
   4a760:	1082ec04 	addi	r2,r2,2992
}
   4a764:	e037883a 	mov	sp,fp
   4a768:	dfc00117 	ldw	ra,4(sp)
   4a76c:	df000017 	ldw	fp,0(sp)
   4a770:	dec00204 	addi	sp,sp,8
   4a774:	f800283a 	ret

0004a778 <fstat>:
}

#else /* !ALT_USE_DIRECT_DRIVERS */

int ALT_FSTAT (int file, struct stat *st)
{
   4a778:	defffb04 	addi	sp,sp,-20
   4a77c:	dfc00415 	stw	ra,16(sp)
   4a780:	df000315 	stw	fp,12(sp)
   4a784:	df000304 	addi	fp,sp,12
   4a788:	e13ffe15 	stw	r4,-8(fp)
   4a78c:	e17fff15 	stw	r5,-4(fp)
   * A common error case is that when the file descriptor was created, the call
   * to open() failed resulting in a negative file descriptor. This is trapped
   * below so that we don't try and process an invalid file descriptor.
   */

  fd = (file < 0) ? NULL : &alt_fd_list[file];
   4a790:	e0bffe17 	ldw	r2,-8(fp)
   4a794:	10000716 	blt	r2,zero,4a7b4 <fstat+0x3c>
   4a798:	e13ffe17 	ldw	r4,-8(fp)
   4a79c:	01400304 	movi	r5,12
   4a7a0:	0040e000 	call	40e00 <__mulsi3>
   4a7a4:	00c00174 	movhi	r3,5
   4a7a8:	18f7c904 	addi	r3,r3,-8412
   4a7ac:	10c5883a 	add	r2,r2,r3
   4a7b0:	00000106 	br	4a7b8 <fstat+0x40>
   4a7b4:	0005883a 	mov	r2,zero
   4a7b8:	e0bffd15 	stw	r2,-12(fp)
  
  if (fd)
   4a7bc:	e0bffd17 	ldw	r2,-12(fp)
   4a7c0:	10001026 	beq	r2,zero,4a804 <fstat+0x8c>
  {
    /* Call the drivers fstat() function to fill out the "st" structure. */

    if (fd->dev->fstat)
   4a7c4:	e0bffd17 	ldw	r2,-12(fp)
   4a7c8:	10800017 	ldw	r2,0(r2)
   4a7cc:	10800817 	ldw	r2,32(r2)
   4a7d0:	10000726 	beq	r2,zero,4a7f0 <fstat+0x78>
    {
      return fd->dev->fstat(fd, st);
   4a7d4:	e0bffd17 	ldw	r2,-12(fp)
   4a7d8:	10800017 	ldw	r2,0(r2)
   4a7dc:	10800817 	ldw	r2,32(r2)
   4a7e0:	e13ffd17 	ldw	r4,-12(fp)
   4a7e4:	e17fff17 	ldw	r5,-4(fp)
   4a7e8:	103ee83a 	callr	r2
   4a7ec:	00000906 	br	4a814 <fstat+0x9c>
     * device.
     */
 
    else
    {
      st->st_mode = _IFCHR;
   4a7f0:	e0bfff17 	ldw	r2,-4(fp)
   4a7f4:	00c80004 	movi	r3,8192
   4a7f8:	10c00115 	stw	r3,4(r2)
      return 0;
   4a7fc:	0005883a 	mov	r2,zero
   4a800:	00000406 	br	4a814 <fstat+0x9c>
    }
  }
  else
  {
    ALT_ERRNO = EBADFD;
   4a804:	004a7280 	call	4a728 <alt_get_errno>
   4a808:	00c01444 	movi	r3,81
   4a80c:	10c00015 	stw	r3,0(r2)
    return -1;
   4a810:	00bfffc4 	movi	r2,-1
  }
}
   4a814:	e037883a 	mov	sp,fp
   4a818:	dfc00117 	ldw	ra,4(sp)
   4a81c:	df000017 	ldw	fp,0(sp)
   4a820:	dec00204 	addi	sp,sp,8
   4a824:	f800283a 	ret

0004a828 <alt_get_errno>:
#undef errno

extern int errno;

static ALT_INLINE int* alt_get_errno(void)
{
   4a828:	defffe04 	addi	sp,sp,-8
   4a82c:	dfc00115 	stw	ra,4(sp)
   4a830:	df000015 	stw	fp,0(sp)
   4a834:	d839883a 	mov	fp,sp
  return ((alt_errno) ? alt_errno() : &errno);
   4a838:	00800174 	movhi	r2,5
   4a83c:	10bc4b04 	addi	r2,r2,-3796
   4a840:	10800017 	ldw	r2,0(r2)
   4a844:	10000526 	beq	r2,zero,4a85c <alt_get_errno+0x34>
   4a848:	00800174 	movhi	r2,5
   4a84c:	10bc4b04 	addi	r2,r2,-3796
   4a850:	10800017 	ldw	r2,0(r2)
   4a854:	103ee83a 	callr	r2
   4a858:	00000206 	br	4a864 <alt_get_errno+0x3c>
   4a85c:	00800174 	movhi	r2,5
   4a860:	1082ec04 	addi	r2,r2,2992
}
   4a864:	e037883a 	mov	sp,fp
   4a868:	dfc00117 	ldw	ra,4(sp)
   4a86c:	df000017 	ldw	fp,0(sp)
   4a870:	dec00204 	addi	sp,sp,8
   4a874:	f800283a 	ret

0004a878 <isatty>:
 *
 * ALT_ISATTY is mapped onto the isatty() system call in alt_syscall.h
 */
 
int ALT_ISATTY (int file)
{
   4a878:	deffed04 	addi	sp,sp,-76
   4a87c:	dfc01215 	stw	ra,72(sp)
   4a880:	df001115 	stw	fp,68(sp)
   4a884:	df001104 	addi	fp,sp,68
   4a888:	e13fff15 	stw	r4,-4(fp)
   * A common error case is that when the file descriptor was created, the call
   * to open() failed resulting in a negative file descriptor. This is trapped
   * below so that we don't try and process an invalid file descriptor.
   */

  fd = (file < 0) ? NULL : &alt_fd_list[file];
   4a88c:	e0bfff17 	ldw	r2,-4(fp)
   4a890:	10000716 	blt	r2,zero,4a8b0 <isatty+0x38>
   4a894:	e13fff17 	ldw	r4,-4(fp)
   4a898:	01400304 	movi	r5,12
   4a89c:	0040e000 	call	40e00 <__mulsi3>
   4a8a0:	00c00174 	movhi	r3,5
   4a8a4:	18f7c904 	addi	r3,r3,-8412
   4a8a8:	10c5883a 	add	r2,r2,r3
   4a8ac:	00000106 	br	4a8b4 <isatty+0x3c>
   4a8b0:	0005883a 	mov	r2,zero
   4a8b4:	e0bfef15 	stw	r2,-68(fp)
  
  if (fd)
   4a8b8:	e0bfef17 	ldw	r2,-68(fp)
   4a8bc:	10000e26 	beq	r2,zero,4a8f8 <isatty+0x80>
    /*
     * If a device driver does not provide an fstat() function, then it is 
     * treated as a terminal device by default.
     */

    if (!fd->dev->fstat)
   4a8c0:	e0bfef17 	ldw	r2,-68(fp)
   4a8c4:	10800017 	ldw	r2,0(r2)
   4a8c8:	10800817 	ldw	r2,32(r2)
   4a8cc:	1000021e 	bne	r2,zero,4a8d8 <isatty+0x60>
    {
      return 1;
   4a8d0:	00800044 	movi	r2,1
   4a8d4:	00000c06 	br	4a908 <isatty+0x90>
     * this is called so that the device can identify itself.
     */ 

    else
    {
      fstat (file, &stat);
   4a8d8:	e0bff004 	addi	r2,fp,-64
   4a8dc:	e13fff17 	ldw	r4,-4(fp)
   4a8e0:	100b883a 	mov	r5,r2
   4a8e4:	004a7780 	call	4a778 <fstat>
      return (stat.st_mode == _IFCHR) ? 1 : 0;
   4a8e8:	e0bff117 	ldw	r2,-60(fp)
   4a8ec:	10880020 	cmpeqi	r2,r2,8192
   4a8f0:	10803fcc 	andi	r2,r2,255
   4a8f4:	00000406 	br	4a908 <isatty+0x90>
    }
  }
  else
  {
    ALT_ERRNO = EBADFD;
   4a8f8:	004a8280 	call	4a828 <alt_get_errno>
   4a8fc:	00c01444 	movi	r3,81
   4a900:	10c00015 	stw	r3,0(r2)
    return 0;
   4a904:	0005883a 	mov	r2,zero
  }
}
   4a908:	e037883a 	mov	sp,fp
   4a90c:	dfc00117 	ldw	ra,4(sp)
   4a910:	df000017 	ldw	fp,0(sp)
   4a914:	dec00204 	addi	sp,sp,8
   4a918:	f800283a 	ret

0004a91c <alt_load_section>:
 */

static void ALT_INLINE alt_load_section (alt_u32* from, 
                                         alt_u32* to, 
                                         alt_u32* end)
{
   4a91c:	defffc04 	addi	sp,sp,-16
   4a920:	df000315 	stw	fp,12(sp)
   4a924:	df000304 	addi	fp,sp,12
   4a928:	e13ffd15 	stw	r4,-12(fp)
   4a92c:	e17ffe15 	stw	r5,-8(fp)
   4a930:	e1bfff15 	stw	r6,-4(fp)
  if (to != from)
   4a934:	e0fffe17 	ldw	r3,-8(fp)
   4a938:	e0bffd17 	ldw	r2,-12(fp)
   4a93c:	18800e26 	beq	r3,r2,4a978 <alt_load_section+0x5c>
  {
    while( to != end )
   4a940:	00000a06 	br	4a96c <alt_load_section+0x50>
    {
      *to++ = *from++;
   4a944:	e0bffd17 	ldw	r2,-12(fp)
   4a948:	10c00017 	ldw	r3,0(r2)
   4a94c:	e0bffe17 	ldw	r2,-8(fp)
   4a950:	10c00015 	stw	r3,0(r2)
   4a954:	e0bffe17 	ldw	r2,-8(fp)
   4a958:	10800104 	addi	r2,r2,4
   4a95c:	e0bffe15 	stw	r2,-8(fp)
   4a960:	e0bffd17 	ldw	r2,-12(fp)
   4a964:	10800104 	addi	r2,r2,4
   4a968:	e0bffd15 	stw	r2,-12(fp)
                                         alt_u32* to, 
                                         alt_u32* end)
{
  if (to != from)
  {
    while( to != end )
   4a96c:	e0fffe17 	ldw	r3,-8(fp)
   4a970:	e0bfff17 	ldw	r2,-4(fp)
   4a974:	18bff31e 	bne	r3,r2,4a944 <alt_load_section+0x28>
    {
      *to++ = *from++;
    }
  }
}
   4a978:	e037883a 	mov	sp,fp
   4a97c:	df000017 	ldw	fp,0(sp)
   4a980:	dec00104 	addi	sp,sp,4
   4a984:	f800283a 	ret

0004a988 <alt_load>:
 * there is no bootloader, so this application is responsible for loading to
 * RAM any sections that are required.
 */  

void alt_load (void)
{
   4a988:	defffe04 	addi	sp,sp,-8
   4a98c:	dfc00115 	stw	ra,4(sp)
   4a990:	df000015 	stw	fp,0(sp)
   4a994:	d839883a 	mov	fp,sp
  /* 
   * Copy the .rwdata section. 
   */

  alt_load_section (&__flash_rwdata_start, 
   4a998:	01000174 	movhi	r4,5
   4a99c:	213c5004 	addi	r4,r4,-3776
   4a9a0:	01400174 	movhi	r5,5
   4a9a4:	2975ba04 	addi	r5,r5,-10520
   4a9a8:	01800174 	movhi	r6,5
   4a9ac:	31bc5004 	addi	r6,r6,-3776
   4a9b0:	004a91c0 	call	4a91c <alt_load_section>

  /*
   * Copy the exception handler.
   */

  alt_load_section (&__flash_exceptions_start, 
   4a9b4:	01000134 	movhi	r4,4
   4a9b8:	21000804 	addi	r4,r4,32
   4a9bc:	01400134 	movhi	r5,4
   4a9c0:	29400804 	addi	r5,r5,32
   4a9c4:	01800134 	movhi	r6,4
   4a9c8:	31806e04 	addi	r6,r6,440
   4a9cc:	004a91c0 	call	4a91c <alt_load_section>

  /*
   * Copy the .rodata section.
   */

  alt_load_section (&__flash_rodata_start, 
   4a9d0:	01000174 	movhi	r4,5
   4a9d4:	21336404 	addi	r4,r4,-12912
   4a9d8:	01400174 	movhi	r5,5
   4a9dc:	29736404 	addi	r5,r5,-12912
   4a9e0:	01800174 	movhi	r6,5
   4a9e4:	31b5ba04 	addi	r6,r6,-10520
   4a9e8:	004a91c0 	call	4a91c <alt_load_section>
  
  /*
   * Now ensure that the caches are in synch.
   */
  
  alt_dcache_flush_all();
   4a9ec:	004be640 	call	4be64 <alt_dcache_flush_all>
  alt_icache_flush_all();
   4a9f0:	004c0280 	call	4c028 <alt_icache_flush_all>
}
   4a9f4:	e037883a 	mov	sp,fp
   4a9f8:	dfc00117 	ldw	ra,4(sp)
   4a9fc:	df000017 	ldw	fp,0(sp)
   4aa00:	dec00204 	addi	sp,sp,8
   4aa04:	f800283a 	ret

0004aa08 <alt_get_errno>:
#undef errno

extern int errno;

static ALT_INLINE int* alt_get_errno(void)
{
   4aa08:	defffe04 	addi	sp,sp,-8
   4aa0c:	dfc00115 	stw	ra,4(sp)
   4aa10:	df000015 	stw	fp,0(sp)
   4aa14:	d839883a 	mov	fp,sp
  return ((alt_errno) ? alt_errno() : &errno);
   4aa18:	00800174 	movhi	r2,5
   4aa1c:	10bc4b04 	addi	r2,r2,-3796
   4aa20:	10800017 	ldw	r2,0(r2)
   4aa24:	10000526 	beq	r2,zero,4aa3c <alt_get_errno+0x34>
   4aa28:	00800174 	movhi	r2,5
   4aa2c:	10bc4b04 	addi	r2,r2,-3796
   4aa30:	10800017 	ldw	r2,0(r2)
   4aa34:	103ee83a 	callr	r2
   4aa38:	00000206 	br	4aa44 <alt_get_errno+0x3c>
   4aa3c:	00800174 	movhi	r2,5
   4aa40:	1082ec04 	addi	r2,r2,2992
}
   4aa44:	e037883a 	mov	sp,fp
   4aa48:	dfc00117 	ldw	ra,4(sp)
   4aa4c:	df000017 	ldw	fp,0(sp)
   4aa50:	dec00204 	addi	sp,sp,8
   4aa54:	f800283a 	ret

0004aa58 <lseek>:
 * ALT_LSEEK is mapped onto the lseek() system call in alt_syscall.h
 *
 */

off_t ALT_LSEEK (int file, off_t ptr, int dir)
{
   4aa58:	defff904 	addi	sp,sp,-28
   4aa5c:	dfc00615 	stw	ra,24(sp)
   4aa60:	df000515 	stw	fp,20(sp)
   4aa64:	df000504 	addi	fp,sp,20
   4aa68:	e13ffd15 	stw	r4,-12(fp)
   4aa6c:	e17ffe15 	stw	r5,-8(fp)
   4aa70:	e1bfff15 	stw	r6,-4(fp)
  alt_fd* fd;
  off_t   rc = 0; 
   4aa74:	e03ffb15 	stw	zero,-20(fp)
   * A common error case is that when the file descriptor was created, the call
   * to open() failed resulting in a negative file descriptor. This is trapped
   * below so that we don't try and process an invalid file descriptor.
   */

  fd = (file < 0) ? NULL : &alt_fd_list[file];
   4aa78:	e0bffd17 	ldw	r2,-12(fp)
   4aa7c:	10000716 	blt	r2,zero,4aa9c <lseek+0x44>
   4aa80:	e13ffd17 	ldw	r4,-12(fp)
   4aa84:	01400304 	movi	r5,12
   4aa88:	0040e000 	call	40e00 <__mulsi3>
   4aa8c:	00c00174 	movhi	r3,5
   4aa90:	18f7c904 	addi	r3,r3,-8412
   4aa94:	10c5883a 	add	r2,r2,r3
   4aa98:	00000106 	br	4aaa0 <lseek+0x48>
   4aa9c:	0005883a 	mov	r2,zero
   4aaa0:	e0bffc15 	stw	r2,-16(fp)
  
  if (fd) 
   4aaa4:	e0bffc17 	ldw	r2,-16(fp)
   4aaa8:	10001026 	beq	r2,zero,4aaec <lseek+0x94>
    /*
     * If the device driver provides an implementation of the lseek() function,
     * then call that to process the request.
     */
 
    if (fd->dev->lseek)
   4aaac:	e0bffc17 	ldw	r2,-16(fp)
   4aab0:	10800017 	ldw	r2,0(r2)
   4aab4:	10800717 	ldw	r2,28(r2)
   4aab8:	10000926 	beq	r2,zero,4aae0 <lseek+0x88>
    {
      rc = fd->dev->lseek(fd, ptr, dir);
   4aabc:	e0bffc17 	ldw	r2,-16(fp)
   4aac0:	10800017 	ldw	r2,0(r2)
   4aac4:	10800717 	ldw	r2,28(r2)
   4aac8:	e13ffc17 	ldw	r4,-16(fp)
   4aacc:	e17ffe17 	ldw	r5,-8(fp)
   4aad0:	e1bfff17 	ldw	r6,-4(fp)
   4aad4:	103ee83a 	callr	r2
   4aad8:	e0bffb15 	stw	r2,-20(fp)
   4aadc:	00000506 	br	4aaf4 <lseek+0x9c>
     * Otherwise return an error.
     */

    else
    {
      rc = -ENOTSUP;
   4aae0:	00bfde84 	movi	r2,-134
   4aae4:	e0bffb15 	stw	r2,-20(fp)
   4aae8:	00000206 	br	4aaf4 <lseek+0x9c>
    }
  }
  else  
  {
    rc = -EBADFD;
   4aaec:	00bfebc4 	movi	r2,-81
   4aaf0:	e0bffb15 	stw	r2,-20(fp)
  }

  if (rc < 0)
   4aaf4:	e0bffb17 	ldw	r2,-20(fp)
   4aaf8:	1000060e 	bge	r2,zero,4ab14 <lseek+0xbc>
  {
    ALT_ERRNO = -rc;
   4aafc:	004aa080 	call	4aa08 <alt_get_errno>
   4ab00:	e0fffb17 	ldw	r3,-20(fp)
   4ab04:	00c7c83a 	sub	r3,zero,r3
   4ab08:	10c00015 	stw	r3,0(r2)
    rc = -1;
   4ab0c:	00bfffc4 	movi	r2,-1
   4ab10:	e0bffb15 	stw	r2,-20(fp)
  }

  return rc;
   4ab14:	e0bffb17 	ldw	r2,-20(fp)
}
   4ab18:	e037883a 	mov	sp,fp
   4ab1c:	dfc00117 	ldw	ra,4(sp)
   4ab20:	df000017 	ldw	fp,0(sp)
   4ab24:	dec00204 	addi	sp,sp,8
   4ab28:	f800283a 	ret

0004ab2c <alt_main>:
 * devices/filesystems/components in the system; and call the entry point for
 * the users application, i.e. main().
 */

void alt_main (void)
{
   4ab2c:	defffd04 	addi	sp,sp,-12
   4ab30:	dfc00215 	stw	ra,8(sp)
   4ab34:	df000115 	stw	fp,4(sp)
   4ab38:	df000104 	addi	fp,sp,4
#endif

  /* ALT LOG - please see HAL/sys/alt_log_printf.h for details */
  ALT_LOG_PRINT_BOOT("[alt_main.c] Entering alt_main, calling alt_irq_init.\r\n");
  /* Initialize the interrupt controller. */
  alt_irq_init (NULL);
   4ab3c:	0009883a 	mov	r4,zero
   4ab40:	004afd00 	call	4afd0 <alt_irq_init>

  /* Initialize the operating system */
  ALT_LOG_PRINT_BOOT("[alt_main.c] Done alt_irq_init, calling alt_os_init.\r\n");
  ALT_OS_INIT();
   4ab44:	0001883a 	nop
  ALT_LOG_PRINT_BOOT("[alt_main.c] Done OS Init, calling alt_sem_create.\r\n");
  ALT_SEM_CREATE (&alt_fd_list_lock, 1);

  /* Initialize the device drivers/software components. */
  ALT_LOG_PRINT_BOOT("[alt_main.c] Calling alt_sys_init.\r\n");
  alt_sys_init();
   4ab48:	004b0040 	call	4b004 <alt_sys_init>
   * devices be present (not equal to /dev/null) and if direct drivers
   * aren't being used.
   */

    ALT_LOG_PRINT_BOOT("[alt_main.c] Redirecting IO.\r\n");
    alt_io_redirect(ALT_STDOUT, ALT_STDIN, ALT_STDERR);
   4ab4c:	01000174 	movhi	r4,5
   4ab50:	2135b204 	addi	r4,r4,-10552
   4ab54:	01400174 	movhi	r5,5
   4ab58:	2975b204 	addi	r5,r5,-10552
   4ab5c:	01800174 	movhi	r6,5
   4ab60:	31b5b204 	addi	r6,r6,-10552
   4ab64:	004c4000 	call	4c400 <alt_io_redirect>
  /* 
   * Call the C++ constructors 
   */

  ALT_LOG_PRINT_BOOT("[alt_main.c] Calling C++ constructors.\r\n");
  _do_ctors ();
   4ab68:	004bf700 	call	4bf70 <_do_ctors>
   * redefined as _exit()). This is in the interest of reducing code footprint,
   * in that the atexit() overhead is removed when it's not needed.
   */

  ALT_LOG_PRINT_BOOT("[alt_main.c] Calling atexit.\r\n");
  atexit (_do_dtors);
   4ab6c:	01000174 	movhi	r4,5
   4ab70:	212ff304 	addi	r4,r4,-16436
   4ab74:	004cbd00 	call	4cbd0 <atexit>
  ALT_LOG_PRINT_BOOT("[alt_main.c] Calling main.\r\n");

#ifdef ALT_NO_EXIT
  main (alt_argc, alt_argv, alt_envp);
#else
  result = main (alt_argc, alt_argv, alt_envp);
   4ab78:	d126ac17 	ldw	r4,-25936(gp)
   4ab7c:	d0e6ad17 	ldw	r3,-25932(gp)
   4ab80:	d0a6ae17 	ldw	r2,-25928(gp)
   4ab84:	180b883a 	mov	r5,r3
   4ab88:	100d883a 	mov	r6,r2
   4ab8c:	00405ec0 	call	405ec <main>
   4ab90:	e0bfff15 	stw	r2,-4(fp)
  close(STDOUT_FILENO);
   4ab94:	01000044 	movi	r4,1
   4ab98:	004a5f40 	call	4a5f4 <close>
  exit (result);
   4ab9c:	e13fff17 	ldw	r4,-4(fp)
   4aba0:	0040e280 	call	40e28 <exit>

0004aba4 <__malloc_lock>:
 * configuration is single threaded, so there is nothing to do here. Note that 
 * this requires that malloc is never called by an interrupt service routine.
 */

void __malloc_lock ( struct _reent *_r )
{
   4aba4:	defffe04 	addi	sp,sp,-8
   4aba8:	df000115 	stw	fp,4(sp)
   4abac:	df000104 	addi	fp,sp,4
   4abb0:	e13fff15 	stw	r4,-4(fp)
}
   4abb4:	e037883a 	mov	sp,fp
   4abb8:	df000017 	ldw	fp,0(sp)
   4abbc:	dec00104 	addi	sp,sp,4
   4abc0:	f800283a 	ret

0004abc4 <__malloc_unlock>:
/*
 *
 */

void __malloc_unlock ( struct _reent *_r )
{
   4abc4:	defffe04 	addi	sp,sp,-8
   4abc8:	df000115 	stw	fp,4(sp)
   4abcc:	df000104 	addi	fp,sp,4
   4abd0:	e13fff15 	stw	r4,-4(fp)
}
   4abd4:	e037883a 	mov	sp,fp
   4abd8:	df000017 	ldw	fp,0(sp)
   4abdc:	dec00104 	addi	sp,sp,4
   4abe0:	f800283a 	ret

0004abe4 <alt_get_errno>:
#undef errno

extern int errno;

static ALT_INLINE int* alt_get_errno(void)
{
   4abe4:	defffe04 	addi	sp,sp,-8
   4abe8:	dfc00115 	stw	ra,4(sp)
   4abec:	df000015 	stw	fp,0(sp)
   4abf0:	d839883a 	mov	fp,sp
  return ((alt_errno) ? alt_errno() : &errno);
   4abf4:	00800174 	movhi	r2,5
   4abf8:	10bc4b04 	addi	r2,r2,-3796
   4abfc:	10800017 	ldw	r2,0(r2)
   4ac00:	10000526 	beq	r2,zero,4ac18 <alt_get_errno+0x34>
   4ac04:	00800174 	movhi	r2,5
   4ac08:	10bc4b04 	addi	r2,r2,-3796
   4ac0c:	10800017 	ldw	r2,0(r2)
   4ac10:	103ee83a 	callr	r2
   4ac14:	00000206 	br	4ac20 <alt_get_errno+0x3c>
   4ac18:	00800174 	movhi	r2,5
   4ac1c:	1082ec04 	addi	r2,r2,2992
}
   4ac20:	e037883a 	mov	sp,fp
   4ac24:	dfc00117 	ldw	ra,4(sp)
   4ac28:	df000017 	ldw	fp,0(sp)
   4ac2c:	dec00204 	addi	sp,sp,8
   4ac30:	f800283a 	ret

0004ac34 <read>:
}

#else /* !ALT_USE_DIRECT_DRIVERS */

int ALT_READ (int file, void *ptr, size_t len)
{
   4ac34:	defff904 	addi	sp,sp,-28
   4ac38:	dfc00615 	stw	ra,24(sp)
   4ac3c:	df000515 	stw	fp,20(sp)
   4ac40:	df000504 	addi	fp,sp,20
   4ac44:	e13ffd15 	stw	r4,-12(fp)
   4ac48:	e17ffe15 	stw	r5,-8(fp)
   4ac4c:	e1bfff15 	stw	r6,-4(fp)
   * A common error case is that when the file descriptor was created, the call
   * to open() failed resulting in a negative file descriptor. This is trapped
   * below so that we don't try and process an invalid file descriptor.
   */

  fd = (file < 0) ? NULL : &alt_fd_list[file];
   4ac50:	e0bffd17 	ldw	r2,-12(fp)
   4ac54:	10000716 	blt	r2,zero,4ac74 <read+0x40>
   4ac58:	e13ffd17 	ldw	r4,-12(fp)
   4ac5c:	01400304 	movi	r5,12
   4ac60:	0040e000 	call	40e00 <__mulsi3>
   4ac64:	00c00174 	movhi	r3,5
   4ac68:	18f7c904 	addi	r3,r3,-8412
   4ac6c:	10c5883a 	add	r2,r2,r3
   4ac70:	00000106 	br	4ac78 <read+0x44>
   4ac74:	0005883a 	mov	r2,zero
   4ac78:	e0bffb15 	stw	r2,-20(fp)
  
  if (fd)
   4ac7c:	e0bffb17 	ldw	r2,-20(fp)
   4ac80:	10002026 	beq	r2,zero,4ad04 <read+0xd0>
     * If the file has not been opened with read access, or if the driver does
     * not provide an implementation of read(), generate an error. Otherwise
     * call the drivers read() function to process the request.
     */

    if (((fd->fd_flags & O_ACCMODE) != O_WRONLY) && 
   4ac84:	e0bffb17 	ldw	r2,-20(fp)
   4ac88:	10800217 	ldw	r2,8(r2)
   4ac8c:	108000cc 	andi	r2,r2,3
   4ac90:	10800060 	cmpeqi	r2,r2,1
   4ac94:	1000171e 	bne	r2,zero,4acf4 <read+0xc0>
        (fd->dev->read))
   4ac98:	e0bffb17 	ldw	r2,-20(fp)
   4ac9c:	10800017 	ldw	r2,0(r2)
   4aca0:	10800517 	ldw	r2,20(r2)
     * If the file has not been opened with read access, or if the driver does
     * not provide an implementation of read(), generate an error. Otherwise
     * call the drivers read() function to process the request.
     */

    if (((fd->fd_flags & O_ACCMODE) != O_WRONLY) && 
   4aca4:	10001326 	beq	r2,zero,4acf4 <read+0xc0>
        (fd->dev->read))
      {
        if ((rval = fd->dev->read(fd, ptr, len)) < 0)
   4aca8:	e0bffb17 	ldw	r2,-20(fp)
   4acac:	10800017 	ldw	r2,0(r2)
   4acb0:	10c00517 	ldw	r3,20(r2)
   4acb4:	e0bfff17 	ldw	r2,-4(fp)
   4acb8:	e13ffb17 	ldw	r4,-20(fp)
   4acbc:	e17ffe17 	ldw	r5,-8(fp)
   4acc0:	100d883a 	mov	r6,r2
   4acc4:	183ee83a 	callr	r3
   4acc8:	e0bffc15 	stw	r2,-16(fp)
   4accc:	e0bffc17 	ldw	r2,-16(fp)
   4acd0:	1000060e 	bge	r2,zero,4acec <read+0xb8>
        {
          ALT_ERRNO = -rval;
   4acd4:	004abe40 	call	4abe4 <alt_get_errno>
   4acd8:	e0fffc17 	ldw	r3,-16(fp)
   4acdc:	00c7c83a 	sub	r3,zero,r3
   4ace0:	10c00015 	stw	r3,0(r2)
          return -1;
   4ace4:	00bfffc4 	movi	r2,-1
   4ace8:	00000a06 	br	4ad14 <read+0xe0>
        }
        return rval;
   4acec:	e0bffc17 	ldw	r2,-16(fp)
   4acf0:	00000806 	br	4ad14 <read+0xe0>
      }
      else
      {
        ALT_ERRNO = EACCES;
   4acf4:	004abe40 	call	4abe4 <alt_get_errno>
   4acf8:	00c00344 	movi	r3,13
   4acfc:	10c00015 	stw	r3,0(r2)
   4ad00:	00000306 	br	4ad10 <read+0xdc>
      }
    }
  else
  {
    ALT_ERRNO = EBADFD;
   4ad04:	004abe40 	call	4abe4 <alt_get_errno>
   4ad08:	00c01444 	movi	r3,81
   4ad0c:	10c00015 	stw	r3,0(r2)
  }
  return -1;
   4ad10:	00bfffc4 	movi	r2,-1
}
   4ad14:	e037883a 	mov	sp,fp
   4ad18:	dfc00117 	ldw	ra,4(sp)
   4ad1c:	df000017 	ldw	fp,0(sp)
   4ad20:	dec00204 	addi	sp,sp,8
   4ad24:	f800283a 	ret

0004ad28 <alt_release_fd>:
 * File descriptors correcponding to standard in, standard out and standard 
 * error cannont be released backed to the pool. They are always reserved.
 */

void alt_release_fd (int fd)
{
   4ad28:	defffc04 	addi	sp,sp,-16
   4ad2c:	dfc00315 	stw	ra,12(sp)
   4ad30:	df000215 	stw	fp,8(sp)
   4ad34:	dc000115 	stw	r16,4(sp)
   4ad38:	df000104 	addi	fp,sp,4
   4ad3c:	e13fff15 	stw	r4,-4(fp)
  if (fd > 2)
   4ad40:	e0bfff17 	ldw	r2,-4(fp)
   4ad44:	108000d0 	cmplti	r2,r2,3
   4ad48:	1000111e 	bne	r2,zero,4ad90 <alt_release_fd+0x68>
  {
    alt_fd_list[fd].fd_flags = 0;
   4ad4c:	04000174 	movhi	r16,5
   4ad50:	8437c904 	addi	r16,r16,-8412
   4ad54:	e0bfff17 	ldw	r2,-4(fp)
   4ad58:	1009883a 	mov	r4,r2
   4ad5c:	01400304 	movi	r5,12
   4ad60:	0040e000 	call	40e00 <__mulsi3>
   4ad64:	8085883a 	add	r2,r16,r2
   4ad68:	10800204 	addi	r2,r2,8
   4ad6c:	10000015 	stw	zero,0(r2)
    alt_fd_list[fd].dev      = 0;
   4ad70:	04000174 	movhi	r16,5
   4ad74:	8437c904 	addi	r16,r16,-8412
   4ad78:	e0bfff17 	ldw	r2,-4(fp)
   4ad7c:	1009883a 	mov	r4,r2
   4ad80:	01400304 	movi	r5,12
   4ad84:	0040e000 	call	40e00 <__mulsi3>
   4ad88:	8085883a 	add	r2,r16,r2
   4ad8c:	10000015 	stw	zero,0(r2)
  }
}
   4ad90:	e037883a 	mov	sp,fp
   4ad94:	dfc00217 	ldw	ra,8(sp)
   4ad98:	df000117 	ldw	fp,4(sp)
   4ad9c:	dc000017 	ldw	r16,0(sp)
   4ada0:	dec00304 	addi	sp,sp,12
   4ada4:	f800283a 	ret

0004ada8 <sbrk>:
#endif
 
caddr_t ALT_SBRK (int incr) __attribute__ ((no_instrument_function ));

caddr_t ALT_SBRK (int incr)
{ 
   4ada8:	defff904 	addi	sp,sp,-28
   4adac:	df000615 	stw	fp,24(sp)
   4adb0:	df000604 	addi	fp,sp,24
   4adb4:	e13fff15 	stw	r4,-4(fp)
static ALT_INLINE alt_irq_context ALT_ALWAYS_INLINE 
       alt_irq_disable_all (void)
{
  alt_irq_context context;

  NIOS2_READ_STATUS (context);
   4adb8:	0005303a 	rdctl	r2,status
   4adbc:	e0bffc15 	stw	r2,-16(fp)

  NIOS2_WRITE_STATUS (context & ~NIOS2_STATUS_PIE_MSK);
   4adc0:	e0fffc17 	ldw	r3,-16(fp)
   4adc4:	00bfff84 	movi	r2,-2
   4adc8:	1884703a 	and	r2,r3,r2
   4adcc:	1001703a 	wrctl	status,r2
  
  return context;
   4add0:	e0bffc17 	ldw	r2,-16(fp)
  alt_irq_context context;
  char *prev_heap_end; 

  context = alt_irq_disable_all();
   4add4:	e0bffa15 	stw	r2,-24(fp)

  /* Always return data aligned on a word boundary */
  heap_end = (char *)(((unsigned int)heap_end + 3) & ~3);
   4add8:	d0a00b17 	ldw	r2,-32724(gp)
   4addc:	10c000c4 	addi	r3,r2,3
   4ade0:	00bfff04 	movi	r2,-4
   4ade4:	1884703a 	and	r2,r3,r2
   4ade8:	d0a00b15 	stw	r2,-32724(gp)
  if (((heap_end + incr) - __alt_heap_start) > ALT_MAX_HEAP_BYTES) {
    alt_irq_enable_all(context);
    return (caddr_t)-1;
  }
#else
  if ((heap_end + incr) > __alt_heap_limit) {
   4adec:	d0e00b17 	ldw	r3,-32724(gp)
   4adf0:	e0bfff17 	ldw	r2,-4(fp)
   4adf4:	1885883a 	add	r2,r3,r2
   4adf8:	00c00234 	movhi	r3,8
   4adfc:	18c00004 	addi	r3,r3,0
   4ae00:	1880062e 	bgeu	r3,r2,4ae1c <sbrk+0x74>
   4ae04:	e0bffa17 	ldw	r2,-24(fp)
   4ae08:	e0bffd15 	stw	r2,-12(fp)
  status &= ~NIOS2_STATUS_PIE_MSK;
  status |= (context & NIOS2_STATUS_PIE_MSK);
  
  NIOS2_WRITE_STATUS (status);
#else
  NIOS2_WRITE_STATUS (context);
   4ae0c:	e0bffd17 	ldw	r2,-12(fp)
   4ae10:	1001703a 	wrctl	status,r2
    alt_irq_enable_all(context);
    return (caddr_t)-1;
   4ae14:	00bfffc4 	movi	r2,-1
   4ae18:	00000b06 	br	4ae48 <sbrk+0xa0>
  }
#endif

  prev_heap_end = heap_end; 
   4ae1c:	d0a00b17 	ldw	r2,-32724(gp)
   4ae20:	e0bffb15 	stw	r2,-20(fp)
  heap_end += incr; 
   4ae24:	d0e00b17 	ldw	r3,-32724(gp)
   4ae28:	e0bfff17 	ldw	r2,-4(fp)
   4ae2c:	1885883a 	add	r2,r3,r2
   4ae30:	d0a00b15 	stw	r2,-32724(gp)
   4ae34:	e0bffa17 	ldw	r2,-24(fp)
   4ae38:	e0bffe15 	stw	r2,-8(fp)
   4ae3c:	e0bffe17 	ldw	r2,-8(fp)
   4ae40:	1001703a 	wrctl	status,r2

#endif

  alt_irq_enable_all(context);

  return (caddr_t) prev_heap_end; 
   4ae44:	e0bffb17 	ldw	r2,-20(fp)
} 
   4ae48:	e037883a 	mov	sp,fp
   4ae4c:	df000017 	ldw	fp,0(sp)
   4ae50:	dec00104 	addi	sp,sp,4
   4ae54:	f800283a 	ret

0004ae58 <alt_get_errno>:
#undef errno

extern int errno;

static ALT_INLINE int* alt_get_errno(void)
{
   4ae58:	defffe04 	addi	sp,sp,-8
   4ae5c:	dfc00115 	stw	ra,4(sp)
   4ae60:	df000015 	stw	fp,0(sp)
   4ae64:	d839883a 	mov	fp,sp
  return ((alt_errno) ? alt_errno() : &errno);
   4ae68:	00800174 	movhi	r2,5
   4ae6c:	10bc4b04 	addi	r2,r2,-3796
   4ae70:	10800017 	ldw	r2,0(r2)
   4ae74:	10000526 	beq	r2,zero,4ae8c <alt_get_errno+0x34>
   4ae78:	00800174 	movhi	r2,5
   4ae7c:	10bc4b04 	addi	r2,r2,-3796
   4ae80:	10800017 	ldw	r2,0(r2)
   4ae84:	103ee83a 	callr	r2
   4ae88:	00000206 	br	4ae94 <alt_get_errno+0x3c>
   4ae8c:	00800174 	movhi	r2,5
   4ae90:	1082ec04 	addi	r2,r2,2992
}
   4ae94:	e037883a 	mov	sp,fp
   4ae98:	dfc00117 	ldw	ra,4(sp)
   4ae9c:	df000017 	ldw	fp,0(sp)
   4aea0:	dec00204 	addi	sp,sp,8
   4aea4:	f800283a 	ret

0004aea8 <write>:
}

#else /* !ALT_USE_DIRECT_DRIVERS */

int ALT_WRITE (int file, const void *ptr, size_t len)
{
   4aea8:	defff904 	addi	sp,sp,-28
   4aeac:	dfc00615 	stw	ra,24(sp)
   4aeb0:	df000515 	stw	fp,20(sp)
   4aeb4:	df000504 	addi	fp,sp,20
   4aeb8:	e13ffd15 	stw	r4,-12(fp)
   4aebc:	e17ffe15 	stw	r5,-8(fp)
   4aec0:	e1bfff15 	stw	r6,-4(fp)
   * A common error case is that when the file descriptor was created, the call
   * to open() failed resulting in a negative file descriptor. This is trapped
   * below so that we don't try and process an invalid file descriptor.
   */

  fd = (file < 0) ? NULL : &alt_fd_list[file];
   4aec4:	e0bffd17 	ldw	r2,-12(fp)
   4aec8:	10000716 	blt	r2,zero,4aee8 <write+0x40>
   4aecc:	e13ffd17 	ldw	r4,-12(fp)
   4aed0:	01400304 	movi	r5,12
   4aed4:	0040e000 	call	40e00 <__mulsi3>
   4aed8:	00c00174 	movhi	r3,5
   4aedc:	18f7c904 	addi	r3,r3,-8412
   4aee0:	10c5883a 	add	r2,r2,r3
   4aee4:	00000106 	br	4aeec <write+0x44>
   4aee8:	0005883a 	mov	r2,zero
   4aeec:	e0bffb15 	stw	r2,-20(fp)
  
  if (fd)
   4aef0:	e0bffb17 	ldw	r2,-20(fp)
   4aef4:	10001f26 	beq	r2,zero,4af74 <write+0xcc>
     * If the file has not been opened with write access, or if the driver does
     * not provide an implementation of write(), generate an error. Otherwise
     * call the drivers write() function to process the request.
     */

    if (((fd->fd_flags & O_ACCMODE) != O_RDONLY) && fd->dev->write)
   4aef8:	e0bffb17 	ldw	r2,-20(fp)
   4aefc:	10800217 	ldw	r2,8(r2)
   4af00:	108000cc 	andi	r2,r2,3
   4af04:	10001726 	beq	r2,zero,4af64 <write+0xbc>
   4af08:	e0bffb17 	ldw	r2,-20(fp)
   4af0c:	10800017 	ldw	r2,0(r2)
   4af10:	10800617 	ldw	r2,24(r2)
   4af14:	10001326 	beq	r2,zero,4af64 <write+0xbc>
    {
      
      /* ALT_LOG - see altera_hal/HAL/inc/sys/alt_log_printf.h */
      ALT_LOG_WRITE_FUNCTION(ptr,len);

      if ((rval = fd->dev->write(fd, ptr, len)) < 0)
   4af18:	e0bffb17 	ldw	r2,-20(fp)
   4af1c:	10800017 	ldw	r2,0(r2)
   4af20:	10c00617 	ldw	r3,24(r2)
   4af24:	e0bfff17 	ldw	r2,-4(fp)
   4af28:	e13ffb17 	ldw	r4,-20(fp)
   4af2c:	e17ffe17 	ldw	r5,-8(fp)
   4af30:	100d883a 	mov	r6,r2
   4af34:	183ee83a 	callr	r3
   4af38:	e0bffc15 	stw	r2,-16(fp)
   4af3c:	e0bffc17 	ldw	r2,-16(fp)
   4af40:	1000060e 	bge	r2,zero,4af5c <write+0xb4>
      {
        ALT_ERRNO = -rval;
   4af44:	004ae580 	call	4ae58 <alt_get_errno>
   4af48:	e0fffc17 	ldw	r3,-16(fp)
   4af4c:	00c7c83a 	sub	r3,zero,r3
   4af50:	10c00015 	stw	r3,0(r2)
        return -1;
   4af54:	00bfffc4 	movi	r2,-1
   4af58:	00000a06 	br	4af84 <write+0xdc>
      }
      return rval;
   4af5c:	e0bffc17 	ldw	r2,-16(fp)
   4af60:	00000806 	br	4af84 <write+0xdc>
    }
    else
    {
      ALT_ERRNO = EACCES;
   4af64:	004ae580 	call	4ae58 <alt_get_errno>
   4af68:	00c00344 	movi	r3,13
   4af6c:	10c00015 	stw	r3,0(r2)
   4af70:	00000306 	br	4af80 <write+0xd8>
    }
  }
  else  
  {
    ALT_ERRNO = EBADFD;
   4af74:	004ae580 	call	4ae58 <alt_get_errno>
   4af78:	00c01444 	movi	r3,81
   4af7c:	10c00015 	stw	r3,0(r2)
  }
  return -1;
   4af80:	00bfffc4 	movi	r2,-1
}
   4af84:	e037883a 	mov	sp,fp
   4af88:	dfc00117 	ldw	ra,4(sp)
   4af8c:	df000017 	ldw	fp,0(sp)
   4af90:	dec00204 	addi	sp,sp,8
   4af94:	f800283a 	ret

0004af98 <alt_dev_reg>:
 */

extern int alt_fs_reg  (alt_dev* dev); 

static ALT_INLINE int alt_dev_reg (alt_dev* dev)
{
   4af98:	defffd04 	addi	sp,sp,-12
   4af9c:	dfc00215 	stw	ra,8(sp)
   4afa0:	df000115 	stw	fp,4(sp)
   4afa4:	df000104 	addi	fp,sp,4
   4afa8:	e13fff15 	stw	r4,-4(fp)
  extern alt_llist alt_dev_list;

  return alt_dev_llist_insert ((alt_dev_llist*) dev, &alt_dev_list);
   4afac:	e13fff17 	ldw	r4,-4(fp)
   4afb0:	01400174 	movhi	r5,5
   4afb4:	297c4804 	addi	r5,r5,-3808
   4afb8:	004bed00 	call	4bed0 <alt_dev_llist_insert>
}
   4afbc:	e037883a 	mov	sp,fp
   4afc0:	dfc00117 	ldw	ra,4(sp)
   4afc4:	df000017 	ldw	fp,0(sp)
   4afc8:	dec00204 	addi	sp,sp,8
   4afcc:	f800283a 	ret

0004afd0 <alt_irq_init>:
 * The "base" parameter is ignored and only
 * present for backwards-compatibility.
 */

void alt_irq_init ( const void* base )
{
   4afd0:	defffd04 	addi	sp,sp,-12
   4afd4:	dfc00215 	stw	ra,8(sp)
   4afd8:	df000115 	stw	fp,4(sp)
   4afdc:	df000104 	addi	fp,sp,4
   4afe0:	e13fff15 	stw	r4,-4(fp)
    ALTERA_NIOS2_QSYS_IRQ_INIT ( CPU, cpu);
   4afe4:	004c8ac0 	call	4c8ac <altera_nios2_qsys_irq_init>
 * alt_irq_cpu_enable_interrupts() enables the CPU to start taking interrupts.
 */
static ALT_INLINE void ALT_ALWAYS_INLINE 
       alt_irq_cpu_enable_interrupts ()
{
    NIOS2_WRITE_STATUS(NIOS2_STATUS_PIE_MSK
   4afe8:	00800044 	movi	r2,1
   4afec:	1001703a 	wrctl	status,r2
    alt_irq_cpu_enable_interrupts();
}
   4aff0:	e037883a 	mov	sp,fp
   4aff4:	dfc00117 	ldw	ra,4(sp)
   4aff8:	df000017 	ldw	fp,0(sp)
   4affc:	dec00204 	addi	sp,sp,8
   4b000:	f800283a 	ret

0004b004 <alt_sys_init>:
 * Initialize the non-interrupt controller devices.
 * Called after alt_irq_init().
 */

void alt_sys_init( void )
{
   4b004:	defffe04 	addi	sp,sp,-8
   4b008:	dfc00115 	stw	ra,4(sp)
   4b00c:	df000015 	stw	fp,0(sp)
   4b010:	d839883a 	mov	fp,sp
    ALTERA_AVALON_TIMER_INIT ( TIMER_0, timer_0);
   4b014:	01000234 	movhi	r4,8
   4b018:	21040004 	addi	r4,r4,4096
   4b01c:	000b883a 	mov	r5,zero
   4b020:	01800044 	movi	r6,1
   4b024:	01c0fa04 	movi	r7,1000
   4b028:	004bb5c0 	call	4bb5c <alt_avalon_timer_sc_init>
    ALTERA_AVALON_TIMER_INIT ( TIMER_1, timer_1);
   4b02c:	00800174 	movhi	r2,5
   4b030:	1082f004 	addi	r2,r2,3008
   4b034:	10000015 	stw	zero,0(r2)
   4b038:	00800174 	movhi	r2,5
   4b03c:	1082f104 	addi	r2,r2,3012
   4b040:	00c0bef4 	movhi	r3,763
   4b044:	18fc2004 	addi	r3,r3,-3968
   4b048:	10c00015 	stw	r3,0(r2)
    ALTERA_AVALON_JTAG_UART_INIT ( JTAG_UART, jtag_uart);
   4b04c:	01000174 	movhi	r4,5
   4b050:	21383304 	addi	r4,r4,-7988
   4b054:	000b883a 	mov	r5,zero
   4b058:	01800404 	movi	r6,16
   4b05c:	004b1e80 	call	4b1e8 <altera_avalon_jtag_uart_init>
   4b060:	01000174 	movhi	r4,5
   4b064:	21382904 	addi	r4,r4,-8028
   4b068:	004af980 	call	4af98 <alt_dev_reg>
    ALTERA_AVALON_SYSID_QSYS_INIT ( SYSID_QSYS_0, sysid_qsys_0);
   4b06c:	0001883a 	nop
}
   4b070:	e037883a 	mov	sp,fp
   4b074:	dfc00117 	ldw	ra,4(sp)
   4b078:	df000017 	ldw	fp,0(sp)
   4b07c:	dec00204 	addi	sp,sp,8
   4b080:	f800283a 	ret

0004b084 <altera_avalon_jtag_uart_read_fd>:
 *
 */

int 
altera_avalon_jtag_uart_read_fd(alt_fd* fd, char* buffer, int space)
{
   4b084:	defffa04 	addi	sp,sp,-24
   4b088:	dfc00515 	stw	ra,20(sp)
   4b08c:	df000415 	stw	fp,16(sp)
   4b090:	df000404 	addi	fp,sp,16
   4b094:	e13ffd15 	stw	r4,-12(fp)
   4b098:	e17ffe15 	stw	r5,-8(fp)
   4b09c:	e1bfff15 	stw	r6,-4(fp)
    altera_avalon_jtag_uart_dev* dev = (altera_avalon_jtag_uart_dev*) fd->dev; 
   4b0a0:	e0bffd17 	ldw	r2,-12(fp)
   4b0a4:	10800017 	ldw	r2,0(r2)
   4b0a8:	e0bffc15 	stw	r2,-16(fp)

    return altera_avalon_jtag_uart_read(&dev->state, buffer, space,
   4b0ac:	e0bffc17 	ldw	r2,-16(fp)
   4b0b0:	10c00a04 	addi	r3,r2,40
      fd->fd_flags);
   4b0b4:	e0bffd17 	ldw	r2,-12(fp)
int 
altera_avalon_jtag_uart_read_fd(alt_fd* fd, char* buffer, int space)
{
    altera_avalon_jtag_uart_dev* dev = (altera_avalon_jtag_uart_dev*) fd->dev; 

    return altera_avalon_jtag_uart_read(&dev->state, buffer, space,
   4b0b8:	10800217 	ldw	r2,8(r2)
   4b0bc:	1809883a 	mov	r4,r3
   4b0c0:	e17ffe17 	ldw	r5,-8(fp)
   4b0c4:	e1bfff17 	ldw	r6,-4(fp)
   4b0c8:	100f883a 	mov	r7,r2
   4b0cc:	004b6ac0 	call	4b6ac <altera_avalon_jtag_uart_read>
      fd->fd_flags);
}
   4b0d0:	e037883a 	mov	sp,fp
   4b0d4:	dfc00117 	ldw	ra,4(sp)
   4b0d8:	df000017 	ldw	fp,0(sp)
   4b0dc:	dec00204 	addi	sp,sp,8
   4b0e0:	f800283a 	ret

0004b0e4 <altera_avalon_jtag_uart_write_fd>:

int 
altera_avalon_jtag_uart_write_fd(alt_fd* fd, const char* buffer, int space)
{
   4b0e4:	defffa04 	addi	sp,sp,-24
   4b0e8:	dfc00515 	stw	ra,20(sp)
   4b0ec:	df000415 	stw	fp,16(sp)
   4b0f0:	df000404 	addi	fp,sp,16
   4b0f4:	e13ffd15 	stw	r4,-12(fp)
   4b0f8:	e17ffe15 	stw	r5,-8(fp)
   4b0fc:	e1bfff15 	stw	r6,-4(fp)
    altera_avalon_jtag_uart_dev* dev = (altera_avalon_jtag_uart_dev*) fd->dev; 
   4b100:	e0bffd17 	ldw	r2,-12(fp)
   4b104:	10800017 	ldw	r2,0(r2)
   4b108:	e0bffc15 	stw	r2,-16(fp)

    return altera_avalon_jtag_uart_write(&dev->state, buffer, space,
   4b10c:	e0bffc17 	ldw	r2,-16(fp)
   4b110:	10c00a04 	addi	r3,r2,40
      fd->fd_flags);
   4b114:	e0bffd17 	ldw	r2,-12(fp)
int 
altera_avalon_jtag_uart_write_fd(alt_fd* fd, const char* buffer, int space)
{
    altera_avalon_jtag_uart_dev* dev = (altera_avalon_jtag_uart_dev*) fd->dev; 

    return altera_avalon_jtag_uart_write(&dev->state, buffer, space,
   4b118:	10800217 	ldw	r2,8(r2)
   4b11c:	1809883a 	mov	r4,r3
   4b120:	e17ffe17 	ldw	r5,-8(fp)
   4b124:	e1bfff17 	ldw	r6,-4(fp)
   4b128:	100f883a 	mov	r7,r2
   4b12c:	004b8c40 	call	4b8c4 <altera_avalon_jtag_uart_write>
      fd->fd_flags);
}
   4b130:	e037883a 	mov	sp,fp
   4b134:	dfc00117 	ldw	ra,4(sp)
   4b138:	df000017 	ldw	fp,0(sp)
   4b13c:	dec00204 	addi	sp,sp,8
   4b140:	f800283a 	ret

0004b144 <altera_avalon_jtag_uart_close_fd>:

#ifndef ALTERA_AVALON_JTAG_UART_SMALL

int 
altera_avalon_jtag_uart_close_fd(alt_fd* fd)
{
   4b144:	defffc04 	addi	sp,sp,-16
   4b148:	dfc00315 	stw	ra,12(sp)
   4b14c:	df000215 	stw	fp,8(sp)
   4b150:	df000204 	addi	fp,sp,8
   4b154:	e13fff15 	stw	r4,-4(fp)
    altera_avalon_jtag_uart_dev* dev = (altera_avalon_jtag_uart_dev*) fd->dev; 
   4b158:	e0bfff17 	ldw	r2,-4(fp)
   4b15c:	10800017 	ldw	r2,0(r2)
   4b160:	e0bffe15 	stw	r2,-8(fp)

    return altera_avalon_jtag_uart_close(&dev->state, fd->fd_flags);
   4b164:	e0bffe17 	ldw	r2,-8(fp)
   4b168:	10c00a04 	addi	r3,r2,40
   4b16c:	e0bfff17 	ldw	r2,-4(fp)
   4b170:	10800217 	ldw	r2,8(r2)
   4b174:	1809883a 	mov	r4,r3
   4b178:	100b883a 	mov	r5,r2
   4b17c:	004b5500 	call	4b550 <altera_avalon_jtag_uart_close>
}
   4b180:	e037883a 	mov	sp,fp
   4b184:	dfc00117 	ldw	ra,4(sp)
   4b188:	df000017 	ldw	fp,0(sp)
   4b18c:	dec00204 	addi	sp,sp,8
   4b190:	f800283a 	ret

0004b194 <altera_avalon_jtag_uart_ioctl_fd>:

int 
altera_avalon_jtag_uart_ioctl_fd(alt_fd* fd, int req, void* arg)
{
   4b194:	defffa04 	addi	sp,sp,-24
   4b198:	dfc00515 	stw	ra,20(sp)
   4b19c:	df000415 	stw	fp,16(sp)
   4b1a0:	df000404 	addi	fp,sp,16
   4b1a4:	e13ffd15 	stw	r4,-12(fp)
   4b1a8:	e17ffe15 	stw	r5,-8(fp)
   4b1ac:	e1bfff15 	stw	r6,-4(fp)
    altera_avalon_jtag_uart_dev* dev = (altera_avalon_jtag_uart_dev*) fd->dev;
   4b1b0:	e0bffd17 	ldw	r2,-12(fp)
   4b1b4:	10800017 	ldw	r2,0(r2)
   4b1b8:	e0bffc15 	stw	r2,-16(fp)

    return altera_avalon_jtag_uart_ioctl(&dev->state, req, arg);
   4b1bc:	e0bffc17 	ldw	r2,-16(fp)
   4b1c0:	10800a04 	addi	r2,r2,40
   4b1c4:	1009883a 	mov	r4,r2
   4b1c8:	e17ffe17 	ldw	r5,-8(fp)
   4b1cc:	e1bfff17 	ldw	r6,-4(fp)
   4b1d0:	004b5b80 	call	4b5b8 <altera_avalon_jtag_uart_ioctl>
}
   4b1d4:	e037883a 	mov	sp,fp
   4b1d8:	dfc00117 	ldw	ra,4(sp)
   4b1dc:	df000017 	ldw	fp,0(sp)
   4b1e0:	dec00204 	addi	sp,sp,8
   4b1e4:	f800283a 	ret

0004b1e8 <altera_avalon_jtag_uart_init>:
 * Return 1 on sucessful IRQ register and 0 on failure.
 */

void altera_avalon_jtag_uart_init(altera_avalon_jtag_uart_state* sp, 
                                  int irq_controller_id, int irq)
{
   4b1e8:	defffa04 	addi	sp,sp,-24
   4b1ec:	dfc00515 	stw	ra,20(sp)
   4b1f0:	df000415 	stw	fp,16(sp)
   4b1f4:	df000404 	addi	fp,sp,16
   4b1f8:	e13ffd15 	stw	r4,-12(fp)
   4b1fc:	e17ffe15 	stw	r5,-8(fp)
   4b200:	e1bfff15 	stw	r6,-4(fp)
  ALT_FLAG_CREATE(&sp->events, 0);
  ALT_SEM_CREATE(&sp->read_lock, 1);
  ALT_SEM_CREATE(&sp->write_lock, 1);

  /* enable read interrupts at the device */
  sp->irq_enable = ALTERA_AVALON_JTAG_UART_CONTROL_RE_MSK;
   4b204:	e0bffd17 	ldw	r2,-12(fp)
   4b208:	00c00044 	movi	r3,1
   4b20c:	10c00815 	stw	r3,32(r2)

  IOWR_ALTERA_AVALON_JTAG_UART_CONTROL(sp->base, sp->irq_enable); 
   4b210:	e0bffd17 	ldw	r2,-12(fp)
   4b214:	10800017 	ldw	r2,0(r2)
   4b218:	10800104 	addi	r2,r2,4
   4b21c:	e0fffd17 	ldw	r3,-12(fp)
   4b220:	18c00817 	ldw	r3,32(r3)
   4b224:	10c00035 	stwio	r3,0(r2)
  
  /* register the interrupt handler */
#ifdef ALT_ENHANCED_INTERRUPT_API_PRESENT
  alt_ic_isr_register(irq_controller_id, irq, altera_avalon_jtag_uart_irq, 
   4b228:	e0fffe17 	ldw	r3,-8(fp)
   4b22c:	e0bfff17 	ldw	r2,-4(fp)
   4b230:	d8000015 	stw	zero,0(sp)
   4b234:	1809883a 	mov	r4,r3
   4b238:	100b883a 	mov	r5,r2
   4b23c:	01800174 	movhi	r6,5
   4b240:	31acaa04 	addi	r6,r6,-19800
   4b244:	e1fffd17 	ldw	r7,-12(fp)
   4b248:	004c0580 	call	4c058 <alt_ic_isr_register>
#else
  alt_irq_register(irq, sp, altera_avalon_jtag_uart_irq);
#endif  

  /* Register an alarm to go off every second to check for presence of host */
  sp->host_inactive = 0;
   4b24c:	e0bffd17 	ldw	r2,-12(fp)
   4b250:	10000915 	stw	zero,36(r2)

  if (alt_alarm_start(&sp->alarm, alt_ticks_per_second(), 
   4b254:	e0bffd17 	ldw	r2,-12(fp)
   4b258:	10c00204 	addi	r3,r2,8
 * Obtain the system clock rate in ticks/s. 
 */

static ALT_INLINE alt_u32 ALT_ALWAYS_INLINE alt_ticks_per_second (void)
{
  return _alt_tick_rate;
   4b25c:	00800174 	movhi	r2,5
   4b260:	1082f304 	addi	r2,r2,3020
   4b264:	10800017 	ldw	r2,0(r2)
   4b268:	1809883a 	mov	r4,r3
   4b26c:	100b883a 	mov	r5,r2
   4b270:	01800174 	movhi	r6,5
   4b274:	31ad2b04 	addi	r6,r6,-19284
   4b278:	e1fffd17 	ldw	r7,-12(fp)
   4b27c:	004bd240 	call	4bd24 <alt_alarm_start>
   4b280:	1000040e 	bge	r2,zero,4b294 <altera_avalon_jtag_uart_init+0xac>
    &altera_avalon_jtag_uart_timeout, sp) < 0)
  {
    /* If we can't set the alarm then record "don't know if host present" 
     * and behave as though the host is present.
     */
    sp->timeout = INT_MAX;
   4b284:	e0bffd17 	ldw	r2,-12(fp)
   4b288:	00e00034 	movhi	r3,32768
   4b28c:	18ffffc4 	addi	r3,r3,-1
   4b290:	10c00115 	stw	r3,4(r2)
  }

  /* ALT_LOG - see altera_hal/HAL/inc/sys/alt_log_printf.h */ 
  ALT_LOG_JTAG_UART_ALARM_REGISTER(sp, sp->base);
}
   4b294:	e037883a 	mov	sp,fp
   4b298:	dfc00117 	ldw	ra,4(sp)
   4b29c:	df000017 	ldw	fp,0(sp)
   4b2a0:	dec00204 	addi	sp,sp,8
   4b2a4:	f800283a 	ret

0004b2a8 <altera_avalon_jtag_uart_irq>:
#ifdef ALT_ENHANCED_INTERRUPT_API_PRESENT
static void altera_avalon_jtag_uart_irq(void* context)
#else
static void altera_avalon_jtag_uart_irq(void* context, alt_u32 id)
#endif
{
   4b2a8:	defff804 	addi	sp,sp,-32
   4b2ac:	df000715 	stw	fp,28(sp)
   4b2b0:	df000704 	addi	fp,sp,28
   4b2b4:	e13fff15 	stw	r4,-4(fp)
  altera_avalon_jtag_uart_state* sp = (altera_avalon_jtag_uart_state*) context;
   4b2b8:	e0bfff17 	ldw	r2,-4(fp)
   4b2bc:	e0bffb15 	stw	r2,-20(fp)
  unsigned int base = sp->base;
   4b2c0:	e0bffb17 	ldw	r2,-20(fp)
   4b2c4:	10800017 	ldw	r2,0(r2)
   4b2c8:	e0bffc15 	stw	r2,-16(fp)
   4b2cc:	00000106 	br	4b2d4 <altera_avalon_jtag_uart_irq+0x2c>
        
        /* Dummy read to ensure IRQ is cleared prior to ISR completion */
        IORD_ALTERA_AVALON_JTAG_UART_CONTROL(base);
      }
    }
  }
   4b2d0:	0001883a 	nop
  /* ALT_LOG - see altera_hal/HAL/inc/sys/alt_log_printf.h */ 
  ALT_LOG_JTAG_UART_ISR_FUNCTION(base, sp);

  for ( ; ; )
  {
    unsigned int control = IORD_ALTERA_AVALON_JTAG_UART_CONTROL(base);
   4b2d4:	e0bffc17 	ldw	r2,-16(fp)
   4b2d8:	10800104 	addi	r2,r2,4
   4b2dc:	10800037 	ldwio	r2,0(r2)
   4b2e0:	e0bffd15 	stw	r2,-12(fp)

    /* Return once nothing more to do */
    if ((control & (ALTERA_AVALON_JTAG_UART_CONTROL_RI_MSK | ALTERA_AVALON_JTAG_UART_CONTROL_WI_MSK)) == 0)
   4b2e4:	e0bffd17 	ldw	r2,-12(fp)
   4b2e8:	1080c00c 	andi	r2,r2,768
   4b2ec:	10006a26 	beq	r2,zero,4b498 <altera_avalon_jtag_uart_irq+0x1f0>
      break;

    if (control & ALTERA_AVALON_JTAG_UART_CONTROL_RI_MSK)
   4b2f0:	e0bffd17 	ldw	r2,-12(fp)
   4b2f4:	1080400c 	andi	r2,r2,256
   4b2f8:	10003326 	beq	r2,zero,4b3c8 <altera_avalon_jtag_uart_irq+0x120>
    {
      /* process a read irq.  Start by assuming that there is data in the
       * receive FIFO (otherwise why would we have been interrupted?)
       */
      unsigned int data = 1 << ALTERA_AVALON_JTAG_UART_DATA_RAVAIL_OFST;
   4b2fc:	00800074 	movhi	r2,1
   4b300:	e0bff915 	stw	r2,-28(fp)
      for ( ; ; )
      {
        /* Check whether there is space in the buffer.  If not then we must not
         * read any characters from the buffer as they will be lost.
         */
        unsigned int next = (sp->rx_in + 1) % ALTERA_AVALON_JTAG_UART_BUF_LEN;
   4b304:	e0bffb17 	ldw	r2,-20(fp)
   4b308:	10800a17 	ldw	r2,40(r2)
   4b30c:	10800044 	addi	r2,r2,1
   4b310:	1081ffcc 	andi	r2,r2,2047
   4b314:	e0bffe15 	stw	r2,-8(fp)
        if (next == sp->rx_out)
   4b318:	e0bffb17 	ldw	r2,-20(fp)
   4b31c:	10c00b17 	ldw	r3,44(r2)
   4b320:	e0bffe17 	ldw	r2,-8(fp)
   4b324:	18801426 	beq	r3,r2,4b378 <altera_avalon_jtag_uart_irq+0xd0>
          break;

        /* Try to remove a character from the FIFO and find out whether there
         * are any more characters remaining.
         */
        data = IORD_ALTERA_AVALON_JTAG_UART_DATA(base);
   4b328:	e0bffc17 	ldw	r2,-16(fp)
   4b32c:	10800037 	ldwio	r2,0(r2)
   4b330:	e0bff915 	stw	r2,-28(fp)
        
        if ((data & ALTERA_AVALON_JTAG_UART_DATA_RVALID_MSK) == 0)
   4b334:	e0bff917 	ldw	r2,-28(fp)
   4b338:	10a0000c 	andi	r2,r2,32768
   4b33c:	10001026 	beq	r2,zero,4b380 <altera_avalon_jtag_uart_irq+0xd8>
          break;

        sp->rx_buf[sp->rx_in] = (data & ALTERA_AVALON_JTAG_UART_DATA_DATA_MSK) >> ALTERA_AVALON_JTAG_UART_DATA_DATA_OFST;
   4b340:	e0bffb17 	ldw	r2,-20(fp)
   4b344:	10800a17 	ldw	r2,40(r2)
   4b348:	e0fff917 	ldw	r3,-28(fp)
   4b34c:	e13ffb17 	ldw	r4,-20(fp)
   4b350:	2085883a 	add	r2,r4,r2
   4b354:	10800e04 	addi	r2,r2,56
   4b358:	10c00005 	stb	r3,0(r2)
        sp->rx_in = (sp->rx_in + 1) % ALTERA_AVALON_JTAG_UART_BUF_LEN;
   4b35c:	e0bffb17 	ldw	r2,-20(fp)
   4b360:	10800a17 	ldw	r2,40(r2)
   4b364:	10800044 	addi	r2,r2,1
   4b368:	10c1ffcc 	andi	r3,r2,2047
   4b36c:	e0bffb17 	ldw	r2,-20(fp)
   4b370:	10c00a15 	stw	r3,40(r2)

        /* Post an event to notify jtag_uart_read that a character has been read */
        ALT_FLAG_POST (sp->events, ALT_JTAG_UART_READ_RDY, OS_FLAG_SET);
      }
   4b374:	003fe306 	br	4b304 <altera_avalon_jtag_uart_irq+0x5c>
        /* Check whether there is space in the buffer.  If not then we must not
         * read any characters from the buffer as they will be lost.
         */
        unsigned int next = (sp->rx_in + 1) % ALTERA_AVALON_JTAG_UART_BUF_LEN;
        if (next == sp->rx_out)
          break;
   4b378:	0001883a 	nop
   4b37c:	00000106 	br	4b384 <altera_avalon_jtag_uart_irq+0xdc>
         * are any more characters remaining.
         */
        data = IORD_ALTERA_AVALON_JTAG_UART_DATA(base);
        
        if ((data & ALTERA_AVALON_JTAG_UART_DATA_RVALID_MSK) == 0)
          break;
   4b380:	0001883a 	nop

        /* Post an event to notify jtag_uart_read that a character has been read */
        ALT_FLAG_POST (sp->events, ALT_JTAG_UART_READ_RDY, OS_FLAG_SET);
      }

      if (data & ALTERA_AVALON_JTAG_UART_DATA_RAVAIL_MSK)
   4b384:	e0bff917 	ldw	r2,-28(fp)
   4b388:	10bfffec 	andhi	r2,r2,65535
   4b38c:	10000e26 	beq	r2,zero,4b3c8 <altera_avalon_jtag_uart_irq+0x120>
      {
        /* If there is still data available here then the buffer is full 
         * so turn off receive interrupts until some space becomes available.
         */
        sp->irq_enable &= ~ALTERA_AVALON_JTAG_UART_CONTROL_RE_MSK;
   4b390:	e0bffb17 	ldw	r2,-20(fp)
   4b394:	10c00817 	ldw	r3,32(r2)
   4b398:	00bfff84 	movi	r2,-2
   4b39c:	1886703a 	and	r3,r3,r2
   4b3a0:	e0bffb17 	ldw	r2,-20(fp)
   4b3a4:	10c00815 	stw	r3,32(r2)
        IOWR_ALTERA_AVALON_JTAG_UART_CONTROL(base, sp->irq_enable);
   4b3a8:	e0bffc17 	ldw	r2,-16(fp)
   4b3ac:	10800104 	addi	r2,r2,4
   4b3b0:	e0fffb17 	ldw	r3,-20(fp)
   4b3b4:	18c00817 	ldw	r3,32(r3)
   4b3b8:	10c00035 	stwio	r3,0(r2)
        
        /* Dummy read to ensure IRQ is cleared prior to ISR completion */
        IORD_ALTERA_AVALON_JTAG_UART_CONTROL(base);
   4b3bc:	e0bffc17 	ldw	r2,-16(fp)
   4b3c0:	10800104 	addi	r2,r2,4
   4b3c4:	10800037 	ldwio	r2,0(r2)
      }
    }

    if (control & ALTERA_AVALON_JTAG_UART_CONTROL_WI_MSK)
   4b3c8:	e0bffd17 	ldw	r2,-12(fp)
   4b3cc:	1080800c 	andi	r2,r2,512
   4b3d0:	103fbf26 	beq	r2,zero,4b2d0 <altera_avalon_jtag_uart_irq+0x28>
    {
      /* process a write irq */
      unsigned int space = (control & ALTERA_AVALON_JTAG_UART_CONTROL_WSPACE_MSK) >> ALTERA_AVALON_JTAG_UART_CONTROL_WSPACE_OFST;
   4b3d4:	e0bffd17 	ldw	r2,-12(fp)
   4b3d8:	1004d43a 	srli	r2,r2,16
   4b3dc:	e0bffa15 	stw	r2,-24(fp)

      while (space > 0 && sp->tx_out != sp->tx_in)
   4b3e0:	00001406 	br	4b434 <altera_avalon_jtag_uart_irq+0x18c>
      {
        IOWR_ALTERA_AVALON_JTAG_UART_DATA(base, sp->tx_buf[sp->tx_out]);
   4b3e4:	e0bffc17 	ldw	r2,-16(fp)
   4b3e8:	e0fffb17 	ldw	r3,-20(fp)
   4b3ec:	18c00d17 	ldw	r3,52(r3)
   4b3f0:	e13ffb17 	ldw	r4,-20(fp)
   4b3f4:	20c7883a 	add	r3,r4,r3
   4b3f8:	18c20e04 	addi	r3,r3,2104
   4b3fc:	18c00003 	ldbu	r3,0(r3)
   4b400:	18c03fcc 	andi	r3,r3,255
   4b404:	18c0201c 	xori	r3,r3,128
   4b408:	18ffe004 	addi	r3,r3,-128
   4b40c:	10c00035 	stwio	r3,0(r2)

        sp->tx_out = (sp->tx_out + 1) % ALTERA_AVALON_JTAG_UART_BUF_LEN;
   4b410:	e0bffb17 	ldw	r2,-20(fp)
   4b414:	10800d17 	ldw	r2,52(r2)
   4b418:	10800044 	addi	r2,r2,1
   4b41c:	10c1ffcc 	andi	r3,r2,2047
   4b420:	e0bffb17 	ldw	r2,-20(fp)
   4b424:	10c00d15 	stw	r3,52(r2)

        /* Post an event to notify jtag_uart_write that a character has been written */
        ALT_FLAG_POST (sp->events, ALT_JTAG_UART_WRITE_RDY, OS_FLAG_SET);

        space--;
   4b428:	e0bffa17 	ldw	r2,-24(fp)
   4b42c:	10bfffc4 	addi	r2,r2,-1
   4b430:	e0bffa15 	stw	r2,-24(fp)
    if (control & ALTERA_AVALON_JTAG_UART_CONTROL_WI_MSK)
    {
      /* process a write irq */
      unsigned int space = (control & ALTERA_AVALON_JTAG_UART_CONTROL_WSPACE_MSK) >> ALTERA_AVALON_JTAG_UART_CONTROL_WSPACE_OFST;

      while (space > 0 && sp->tx_out != sp->tx_in)
   4b434:	e0bffa17 	ldw	r2,-24(fp)
   4b438:	10000526 	beq	r2,zero,4b450 <altera_avalon_jtag_uart_irq+0x1a8>
   4b43c:	e0bffb17 	ldw	r2,-20(fp)
   4b440:	10c00d17 	ldw	r3,52(r2)
   4b444:	e0bffb17 	ldw	r2,-20(fp)
   4b448:	10800c17 	ldw	r2,48(r2)
   4b44c:	18bfe51e 	bne	r3,r2,4b3e4 <altera_avalon_jtag_uart_irq+0x13c>
        ALT_FLAG_POST (sp->events, ALT_JTAG_UART_WRITE_RDY, OS_FLAG_SET);

        space--;
      }

      if (space > 0)
   4b450:	e0bffa17 	ldw	r2,-24(fp)
   4b454:	103f9e26 	beq	r2,zero,4b2d0 <altera_avalon_jtag_uart_irq+0x28>
      {
        /* If we don't have any more data available then turn off the TX interrupt */
        sp->irq_enable &= ~ALTERA_AVALON_JTAG_UART_CONTROL_WE_MSK;
   4b458:	e0bffb17 	ldw	r2,-20(fp)
   4b45c:	10c00817 	ldw	r3,32(r2)
   4b460:	00bfff44 	movi	r2,-3
   4b464:	1886703a 	and	r3,r3,r2
   4b468:	e0bffb17 	ldw	r2,-20(fp)
   4b46c:	10c00815 	stw	r3,32(r2)
        IOWR_ALTERA_AVALON_JTAG_UART_CONTROL(sp->base, sp->irq_enable);
   4b470:	e0bffb17 	ldw	r2,-20(fp)
   4b474:	10800017 	ldw	r2,0(r2)
   4b478:	10800104 	addi	r2,r2,4
   4b47c:	e0fffb17 	ldw	r3,-20(fp)
   4b480:	18c00817 	ldw	r3,32(r3)
   4b484:	10c00035 	stwio	r3,0(r2)
        
        /* Dummy read to ensure IRQ is cleared prior to ISR completion */
        IORD_ALTERA_AVALON_JTAG_UART_CONTROL(base);
   4b488:	e0bffc17 	ldw	r2,-16(fp)
   4b48c:	10800104 	addi	r2,r2,4
   4b490:	10800037 	ldwio	r2,0(r2)
      }
    }
  }
   4b494:	003f8e06 	br	4b2d0 <altera_avalon_jtag_uart_irq+0x28>
  {
    unsigned int control = IORD_ALTERA_AVALON_JTAG_UART_CONTROL(base);

    /* Return once nothing more to do */
    if ((control & (ALTERA_AVALON_JTAG_UART_CONTROL_RI_MSK | ALTERA_AVALON_JTAG_UART_CONTROL_WI_MSK)) == 0)
      break;
   4b498:	0001883a 	nop
        /* Dummy read to ensure IRQ is cleared prior to ISR completion */
        IORD_ALTERA_AVALON_JTAG_UART_CONTROL(base);
      }
    }
  }
}
   4b49c:	e037883a 	mov	sp,fp
   4b4a0:	df000017 	ldw	fp,0(sp)
   4b4a4:	dec00104 	addi	sp,sp,4
   4b4a8:	f800283a 	ret

0004b4ac <altera_avalon_jtag_uart_timeout>:
 * Timeout routine is called every second
 */

static alt_u32 
altera_avalon_jtag_uart_timeout(void* context) 
{
   4b4ac:	defffc04 	addi	sp,sp,-16
   4b4b0:	df000315 	stw	fp,12(sp)
   4b4b4:	df000304 	addi	fp,sp,12
   4b4b8:	e13fff15 	stw	r4,-4(fp)
  altera_avalon_jtag_uart_state* sp = (altera_avalon_jtag_uart_state *) context;
   4b4bc:	e0bfff17 	ldw	r2,-4(fp)
   4b4c0:	e0bffd15 	stw	r2,-12(fp)

  unsigned int control = IORD_ALTERA_AVALON_JTAG_UART_CONTROL(sp->base);
   4b4c4:	e0bffd17 	ldw	r2,-12(fp)
   4b4c8:	10800017 	ldw	r2,0(r2)
   4b4cc:	10800104 	addi	r2,r2,4
   4b4d0:	10800037 	ldwio	r2,0(r2)
   4b4d4:	e0bffe15 	stw	r2,-8(fp)

  if (control & ALTERA_AVALON_JTAG_UART_CONTROL_AC_MSK)
   4b4d8:	e0bffe17 	ldw	r2,-8(fp)
   4b4dc:	1081000c 	andi	r2,r2,1024
   4b4e0:	10000a26 	beq	r2,zero,4b50c <altera_avalon_jtag_uart_timeout+0x60>
  {
    IOWR_ALTERA_AVALON_JTAG_UART_CONTROL(sp->base, sp->irq_enable | ALTERA_AVALON_JTAG_UART_CONTROL_AC_MSK);
   4b4e4:	e0bffd17 	ldw	r2,-12(fp)
   4b4e8:	10800017 	ldw	r2,0(r2)
   4b4ec:	10800104 	addi	r2,r2,4
   4b4f0:	e0fffd17 	ldw	r3,-12(fp)
   4b4f4:	18c00817 	ldw	r3,32(r3)
   4b4f8:	18c10014 	ori	r3,r3,1024
   4b4fc:	10c00035 	stwio	r3,0(r2)
    sp->host_inactive = 0;
   4b500:	e0bffd17 	ldw	r2,-12(fp)
   4b504:	10000915 	stw	zero,36(r2)
   4b508:	00000a06 	br	4b534 <altera_avalon_jtag_uart_timeout+0x88>
  }
  else if (sp->host_inactive < INT_MAX - 2) {
   4b50c:	e0bffd17 	ldw	r2,-12(fp)
   4b510:	10800917 	ldw	r2,36(r2)
   4b514:	00e00034 	movhi	r3,32768
   4b518:	18ffff04 	addi	r3,r3,-4
   4b51c:	18800536 	bltu	r3,r2,4b534 <altera_avalon_jtag_uart_timeout+0x88>
    sp->host_inactive++;
   4b520:	e0bffd17 	ldw	r2,-12(fp)
   4b524:	10800917 	ldw	r2,36(r2)
   4b528:	10c00044 	addi	r3,r2,1
   4b52c:	e0bffd17 	ldw	r2,-12(fp)
   4b530:	10c00915 	stw	r3,36(r2)
   4b534:	00800174 	movhi	r2,5
   4b538:	1082f304 	addi	r2,r2,3020
   4b53c:	10800017 	ldw	r2,0(r2)
      ALT_FLAG_POST (sp->events, ALT_JTAG_UART_TIMEOUT, OS_FLAG_SET);
    }
  }

  return alt_ticks_per_second();
}
   4b540:	e037883a 	mov	sp,fp
   4b544:	df000017 	ldw	fp,0(sp)
   4b548:	dec00104 	addi	sp,sp,4
   4b54c:	f800283a 	ret

0004b550 <altera_avalon_jtag_uart_close>:
 * The close routine is not implemented for the small driver; instead it will
 * map to null. This is because the small driver simply waits while characters
 * are transmitted; there is no interrupt-serviced buffer to empty 
 */
int altera_avalon_jtag_uart_close(altera_avalon_jtag_uart_state* sp, int flags)
{
   4b550:	defffd04 	addi	sp,sp,-12
   4b554:	df000215 	stw	fp,8(sp)
   4b558:	df000204 	addi	fp,sp,8
   4b55c:	e13ffe15 	stw	r4,-8(fp)
   4b560:	e17fff15 	stw	r5,-4(fp)
  /* 
   * Wait for all transmit data to be emptied by the JTAG UART ISR, or
   * for a host-inactivity timeout, in which case transmit data will be lost
   */
  while ( (sp->tx_out != sp->tx_in) && (sp->host_inactive < sp->timeout) ) {
   4b564:	00000506 	br	4b57c <altera_avalon_jtag_uart_close+0x2c>
    if (flags & O_NONBLOCK) {
   4b568:	e0bfff17 	ldw	r2,-4(fp)
   4b56c:	1090000c 	andi	r2,r2,16384
   4b570:	10000226 	beq	r2,zero,4b57c <altera_avalon_jtag_uart_close+0x2c>
      return -EWOULDBLOCK; 
   4b574:	00bffd44 	movi	r2,-11
   4b578:	00000b06 	br	4b5a8 <altera_avalon_jtag_uart_close+0x58>
{
  /* 
   * Wait for all transmit data to be emptied by the JTAG UART ISR, or
   * for a host-inactivity timeout, in which case transmit data will be lost
   */
  while ( (sp->tx_out != sp->tx_in) && (sp->host_inactive < sp->timeout) ) {
   4b57c:	e0bffe17 	ldw	r2,-8(fp)
   4b580:	10c00d17 	ldw	r3,52(r2)
   4b584:	e0bffe17 	ldw	r2,-8(fp)
   4b588:	10800c17 	ldw	r2,48(r2)
   4b58c:	18800526 	beq	r3,r2,4b5a4 <altera_avalon_jtag_uart_close+0x54>
   4b590:	e0bffe17 	ldw	r2,-8(fp)
   4b594:	10c00917 	ldw	r3,36(r2)
   4b598:	e0bffe17 	ldw	r2,-8(fp)
   4b59c:	10800117 	ldw	r2,4(r2)
   4b5a0:	18bff136 	bltu	r3,r2,4b568 <altera_avalon_jtag_uart_close+0x18>
    if (flags & O_NONBLOCK) {
      return -EWOULDBLOCK; 
    }
  }

  return 0;
   4b5a4:	0005883a 	mov	r2,zero
}
   4b5a8:	e037883a 	mov	sp,fp
   4b5ac:	df000017 	ldw	fp,0(sp)
   4b5b0:	dec00104 	addi	sp,sp,4
   4b5b4:	f800283a 	ret

0004b5b8 <altera_avalon_jtag_uart_ioctl>:
/* ----------------------------------------------------------- */

int 
altera_avalon_jtag_uart_ioctl(altera_avalon_jtag_uart_state* sp, int req,
  void* arg)
{
   4b5b8:	defffa04 	addi	sp,sp,-24
   4b5bc:	df000515 	stw	fp,20(sp)
   4b5c0:	df000504 	addi	fp,sp,20
   4b5c4:	e13ffd15 	stw	r4,-12(fp)
   4b5c8:	e17ffe15 	stw	r5,-8(fp)
   4b5cc:	e1bfff15 	stw	r6,-4(fp)
  int rc = -ENOTTY;
   4b5d0:	00bff9c4 	movi	r2,-25
   4b5d4:	e0bffb15 	stw	r2,-20(fp)

  switch (req)
   4b5d8:	e0bffe17 	ldw	r2,-8(fp)
   4b5dc:	10da8060 	cmpeqi	r3,r2,27137
   4b5e0:	1800031e 	bne	r3,zero,4b5f0 <altera_avalon_jtag_uart_ioctl+0x38>
   4b5e4:	109a80a0 	cmpeqi	r2,r2,27138
   4b5e8:	1000181e 	bne	r2,zero,4b64c <altera_avalon_jtag_uart_ioctl+0x94>
   4b5ec:	00002606 	br	4b688 <altera_avalon_jtag_uart_ioctl+0xd0>
  {
  case TIOCSTIMEOUT:
    /* Set the time to wait until assuming host is not connected */
    if (sp->timeout != INT_MAX)
   4b5f0:	e0bffd17 	ldw	r2,-12(fp)
   4b5f4:	10c00117 	ldw	r3,4(r2)
   4b5f8:	00a00034 	movhi	r2,32768
   4b5fc:	10bfffc4 	addi	r2,r2,-1
   4b600:	18802226 	beq	r3,r2,4b68c <altera_avalon_jtag_uart_ioctl+0xd4>
    {
      int timeout = *((int *)arg);
   4b604:	e0bfff17 	ldw	r2,-4(fp)
   4b608:	10800017 	ldw	r2,0(r2)
   4b60c:	e0bffc15 	stw	r2,-16(fp)
      sp->timeout = (timeout >= 2 && timeout < INT_MAX) ? timeout : INT_MAX - 1;
   4b610:	e0bffc17 	ldw	r2,-16(fp)
   4b614:	10800090 	cmplti	r2,r2,2
   4b618:	1000061e 	bne	r2,zero,4b634 <altera_avalon_jtag_uart_ioctl+0x7c>
   4b61c:	e0fffc17 	ldw	r3,-16(fp)
   4b620:	00a00034 	movhi	r2,32768
   4b624:	10bfffc4 	addi	r2,r2,-1
   4b628:	18800226 	beq	r3,r2,4b634 <altera_avalon_jtag_uart_ioctl+0x7c>
   4b62c:	e0bffc17 	ldw	r2,-16(fp)
   4b630:	00000206 	br	4b63c <altera_avalon_jtag_uart_ioctl+0x84>
   4b634:	00a00034 	movhi	r2,32768
   4b638:	10bfff84 	addi	r2,r2,-2
   4b63c:	e0fffd17 	ldw	r3,-12(fp)
   4b640:	18800115 	stw	r2,4(r3)
      rc = 0;
   4b644:	e03ffb15 	stw	zero,-20(fp)
    }
    break;
   4b648:	00001006 	br	4b68c <altera_avalon_jtag_uart_ioctl+0xd4>

  case TIOCGCONNECTED:
    /* Find out whether host is connected */
    if (sp->timeout != INT_MAX)
   4b64c:	e0bffd17 	ldw	r2,-12(fp)
   4b650:	10c00117 	ldw	r3,4(r2)
   4b654:	00a00034 	movhi	r2,32768
   4b658:	10bfffc4 	addi	r2,r2,-1
   4b65c:	18800d26 	beq	r3,r2,4b694 <altera_avalon_jtag_uart_ioctl+0xdc>
    {
      *((int *)arg) = (sp->host_inactive < sp->timeout) ? 1 : 0;
   4b660:	e0bffd17 	ldw	r2,-12(fp)
   4b664:	10c00917 	ldw	r3,36(r2)
   4b668:	e0bffd17 	ldw	r2,-12(fp)
   4b66c:	10800117 	ldw	r2,4(r2)
   4b670:	1885803a 	cmpltu	r2,r3,r2
   4b674:	10c03fcc 	andi	r3,r2,255
   4b678:	e0bfff17 	ldw	r2,-4(fp)
   4b67c:	10c00015 	stw	r3,0(r2)
      rc = 0;
   4b680:	e03ffb15 	stw	zero,-20(fp)
    }
    break;
   4b684:	00000306 	br	4b694 <altera_avalon_jtag_uart_ioctl+0xdc>

  default:
    break;
   4b688:	00000306 	br	4b698 <altera_avalon_jtag_uart_ioctl+0xe0>
    {
      int timeout = *((int *)arg);
      sp->timeout = (timeout >= 2 && timeout < INT_MAX) ? timeout : INT_MAX - 1;
      rc = 0;
    }
    break;
   4b68c:	0001883a 	nop
   4b690:	00000106 	br	4b698 <altera_avalon_jtag_uart_ioctl+0xe0>
    if (sp->timeout != INT_MAX)
    {
      *((int *)arg) = (sp->host_inactive < sp->timeout) ? 1 : 0;
      rc = 0;
    }
    break;
   4b694:	0001883a 	nop

  default:
    break;
  }

  return rc;
   4b698:	e0bffb17 	ldw	r2,-20(fp)
}
   4b69c:	e037883a 	mov	sp,fp
   4b6a0:	df000017 	ldw	fp,0(sp)
   4b6a4:	dec00104 	addi	sp,sp,4
   4b6a8:	f800283a 	ret

0004b6ac <altera_avalon_jtag_uart_read>:
/* ----------------------------------------------------------- */

int 
altera_avalon_jtag_uart_read(altera_avalon_jtag_uart_state* sp, 
  char * buffer, int space, int flags)
{
   4b6ac:	defff304 	addi	sp,sp,-52
   4b6b0:	dfc00c15 	stw	ra,48(sp)
   4b6b4:	df000b15 	stw	fp,44(sp)
   4b6b8:	df000b04 	addi	fp,sp,44
   4b6bc:	e13ffc15 	stw	r4,-16(fp)
   4b6c0:	e17ffd15 	stw	r5,-12(fp)
   4b6c4:	e1bffe15 	stw	r6,-8(fp)
   4b6c8:	e1ffff15 	stw	r7,-4(fp)
  char * ptr = buffer;
   4b6cc:	e0bffd17 	ldw	r2,-12(fp)
   4b6d0:	e0bff515 	stw	r2,-44(fp)
   * When running in a multi threaded environment, obtain the "read_lock"
   * semaphore. This ensures that reading from the device is thread-safe.
   */
  ALT_SEM_PEND (sp->read_lock, 0);

  while (space > 0)
   4b6d4:	00004706 	br	4b7f4 <altera_avalon_jtag_uart_read+0x148>
    unsigned int in, out;

    /* Read as much data as possible */
    do
    {
      in  = sp->rx_in;
   4b6d8:	e0bffc17 	ldw	r2,-16(fp)
   4b6dc:	10800a17 	ldw	r2,40(r2)
   4b6e0:	e0bff715 	stw	r2,-36(fp)
      out = sp->rx_out;
   4b6e4:	e0bffc17 	ldw	r2,-16(fp)
   4b6e8:	10800b17 	ldw	r2,44(r2)
   4b6ec:	e0bff815 	stw	r2,-32(fp)

      if (in >= out)
   4b6f0:	e0fff717 	ldw	r3,-36(fp)
   4b6f4:	e0bff817 	ldw	r2,-32(fp)
   4b6f8:	18800536 	bltu	r3,r2,4b710 <altera_avalon_jtag_uart_read+0x64>
        n = in - out;
   4b6fc:	e0fff717 	ldw	r3,-36(fp)
   4b700:	e0bff817 	ldw	r2,-32(fp)
   4b704:	1885c83a 	sub	r2,r3,r2
   4b708:	e0bff615 	stw	r2,-40(fp)
   4b70c:	00000406 	br	4b720 <altera_avalon_jtag_uart_read+0x74>
      else
        n = ALTERA_AVALON_JTAG_UART_BUF_LEN - out;
   4b710:	00c20004 	movi	r3,2048
   4b714:	e0bff817 	ldw	r2,-32(fp)
   4b718:	1885c83a 	sub	r2,r3,r2
   4b71c:	e0bff615 	stw	r2,-40(fp)

      if (n == 0)
   4b720:	e0bff617 	ldw	r2,-40(fp)
   4b724:	10001e26 	beq	r2,zero,4b7a0 <altera_avalon_jtag_uart_read+0xf4>
        break; /* No more data available */

      if (n > space)
   4b728:	e0fffe17 	ldw	r3,-8(fp)
   4b72c:	e0bff617 	ldw	r2,-40(fp)
   4b730:	1880022e 	bgeu	r3,r2,4b73c <altera_avalon_jtag_uart_read+0x90>
        n = space;
   4b734:	e0bffe17 	ldw	r2,-8(fp)
   4b738:	e0bff615 	stw	r2,-40(fp)

      memcpy(ptr, sp->rx_buf + out, n);
   4b73c:	e0bff817 	ldw	r2,-32(fp)
   4b740:	10800e04 	addi	r2,r2,56
   4b744:	e0fffc17 	ldw	r3,-16(fp)
   4b748:	1885883a 	add	r2,r3,r2
   4b74c:	e13ff517 	ldw	r4,-44(fp)
   4b750:	100b883a 	mov	r5,r2
   4b754:	e1bff617 	ldw	r6,-40(fp)
   4b758:	00464800 	call	46480 <memcpy>
      ptr   += n;
   4b75c:	e0fff517 	ldw	r3,-44(fp)
   4b760:	e0bff617 	ldw	r2,-40(fp)
   4b764:	1885883a 	add	r2,r3,r2
   4b768:	e0bff515 	stw	r2,-44(fp)
      space -= n;
   4b76c:	e0fffe17 	ldw	r3,-8(fp)
   4b770:	e0bff617 	ldw	r2,-40(fp)
   4b774:	1885c83a 	sub	r2,r3,r2
   4b778:	e0bffe15 	stw	r2,-8(fp)

      sp->rx_out = (out + n) % ALTERA_AVALON_JTAG_UART_BUF_LEN;
   4b77c:	e0fff817 	ldw	r3,-32(fp)
   4b780:	e0bff617 	ldw	r2,-40(fp)
   4b784:	1885883a 	add	r2,r3,r2
   4b788:	10c1ffcc 	andi	r3,r2,2047
   4b78c:	e0bffc17 	ldw	r2,-16(fp)
   4b790:	10c00b15 	stw	r3,44(r2)
    }
    while (space > 0);
   4b794:	e0bffe17 	ldw	r2,-8(fp)
   4b798:	00bfcf16 	blt	zero,r2,4b6d8 <altera_avalon_jtag_uart_read+0x2c>
   4b79c:	00000106 	br	4b7a4 <altera_avalon_jtag_uart_read+0xf8>
        n = in - out;
      else
        n = ALTERA_AVALON_JTAG_UART_BUF_LEN - out;

      if (n == 0)
        break; /* No more data available */
   4b7a0:	0001883a 	nop
      sp->rx_out = (out + n) % ALTERA_AVALON_JTAG_UART_BUF_LEN;
    }
    while (space > 0);

    /* If we read any data then return it */
    if (ptr != buffer)
   4b7a4:	e0fff517 	ldw	r3,-44(fp)
   4b7a8:	e0bffd17 	ldw	r2,-12(fp)
   4b7ac:	1880141e 	bne	r3,r2,4b800 <altera_avalon_jtag_uart_read+0x154>
      break;

    /* If in non-blocking mode then return error */
    if (flags & O_NONBLOCK)
   4b7b0:	e0bfff17 	ldw	r2,-4(fp)
   4b7b4:	1090000c 	andi	r2,r2,16384
   4b7b8:	1000131e 	bne	r2,zero,4b808 <altera_avalon_jtag_uart_read+0x15c>
      while (in == sp->rx_in && sp->host_inactive < sp->timeout)
        ;
    }
#else
    /* No OS: Always spin */
    while (in == sp->rx_in && sp->host_inactive < sp->timeout)
   4b7bc:	0001883a 	nop
   4b7c0:	e0bffc17 	ldw	r2,-16(fp)
   4b7c4:	10c00a17 	ldw	r3,40(r2)
   4b7c8:	e0bff717 	ldw	r2,-36(fp)
   4b7cc:	1880051e 	bne	r3,r2,4b7e4 <altera_avalon_jtag_uart_read+0x138>
   4b7d0:	e0bffc17 	ldw	r2,-16(fp)
   4b7d4:	10c00917 	ldw	r3,36(r2)
   4b7d8:	e0bffc17 	ldw	r2,-16(fp)
   4b7dc:	10800117 	ldw	r2,4(r2)
   4b7e0:	18bff736 	bltu	r3,r2,4b7c0 <altera_avalon_jtag_uart_read+0x114>
      ;
#endif /* __ucosii__ */

    if (in == sp->rx_in)
   4b7e4:	e0bffc17 	ldw	r2,-16(fp)
   4b7e8:	10c00a17 	ldw	r3,40(r2)
   4b7ec:	e0bff717 	ldw	r2,-36(fp)
   4b7f0:	18800726 	beq	r3,r2,4b810 <altera_avalon_jtag_uart_read+0x164>
   * When running in a multi threaded environment, obtain the "read_lock"
   * semaphore. This ensures that reading from the device is thread-safe.
   */
  ALT_SEM_PEND (sp->read_lock, 0);

  while (space > 0)
   4b7f4:	e0bffe17 	ldw	r2,-8(fp)
   4b7f8:	00bfb716 	blt	zero,r2,4b6d8 <altera_avalon_jtag_uart_read+0x2c>
   4b7fc:	00000506 	br	4b814 <altera_avalon_jtag_uart_read+0x168>
    }
    while (space > 0);

    /* If we read any data then return it */
    if (ptr != buffer)
      break;
   4b800:	0001883a 	nop
   4b804:	00000306 	br	4b814 <altera_avalon_jtag_uart_read+0x168>

    /* If in non-blocking mode then return error */
    if (flags & O_NONBLOCK)
      break;
   4b808:	0001883a 	nop
   4b80c:	00000106 	br	4b814 <altera_avalon_jtag_uart_read+0x168>
    while (in == sp->rx_in && sp->host_inactive < sp->timeout)
      ;
#endif /* __ucosii__ */

    if (in == sp->rx_in)
      break;
   4b810:	0001883a 	nop
   * semaphore so that other threads can access the buffer.
   */

  ALT_SEM_POST (sp->read_lock);

  if (ptr != buffer)
   4b814:	e0fff517 	ldw	r3,-44(fp)
   4b818:	e0bffd17 	ldw	r2,-12(fp)
   4b81c:	18801726 	beq	r3,r2,4b87c <altera_avalon_jtag_uart_read+0x1d0>
static ALT_INLINE alt_irq_context ALT_ALWAYS_INLINE 
       alt_irq_disable_all (void)
{
  alt_irq_context context;

  NIOS2_READ_STATUS (context);
   4b820:	0005303a 	rdctl	r2,status
   4b824:	e0bffa15 	stw	r2,-24(fp)

  NIOS2_WRITE_STATUS (context & ~NIOS2_STATUS_PIE_MSK);
   4b828:	e0fffa17 	ldw	r3,-24(fp)
   4b82c:	00bfff84 	movi	r2,-2
   4b830:	1884703a 	and	r2,r3,r2
   4b834:	1001703a 	wrctl	status,r2
  
  return context;
   4b838:	e0bffa17 	ldw	r2,-24(fp)
  {
    /* If we read any data then there is space in the buffer so enable interrupts */
    context = alt_irq_disable_all();
   4b83c:	e0bff915 	stw	r2,-28(fp)
    sp->irq_enable |= ALTERA_AVALON_JTAG_UART_CONTROL_RE_MSK;
   4b840:	e0bffc17 	ldw	r2,-16(fp)
   4b844:	10800817 	ldw	r2,32(r2)
   4b848:	10c00054 	ori	r3,r2,1
   4b84c:	e0bffc17 	ldw	r2,-16(fp)
   4b850:	10c00815 	stw	r3,32(r2)
    IOWR_ALTERA_AVALON_JTAG_UART_CONTROL(sp->base, sp->irq_enable);
   4b854:	e0bffc17 	ldw	r2,-16(fp)
   4b858:	10800017 	ldw	r2,0(r2)
   4b85c:	10800104 	addi	r2,r2,4
   4b860:	e0fffc17 	ldw	r3,-16(fp)
   4b864:	18c00817 	ldw	r3,32(r3)
   4b868:	10c00035 	stwio	r3,0(r2)
   4b86c:	e0bff917 	ldw	r2,-28(fp)
   4b870:	e0bffb15 	stw	r2,-20(fp)
  status &= ~NIOS2_STATUS_PIE_MSK;
  status |= (context & NIOS2_STATUS_PIE_MSK);
  
  NIOS2_WRITE_STATUS (status);
#else
  NIOS2_WRITE_STATUS (context);
   4b874:	e0bffb17 	ldw	r2,-20(fp)
   4b878:	1001703a 	wrctl	status,r2
    alt_irq_enable_all(context);
  }

  if (ptr != buffer)
   4b87c:	e0fff517 	ldw	r3,-44(fp)
   4b880:	e0bffd17 	ldw	r2,-12(fp)
   4b884:	18800426 	beq	r3,r2,4b898 <altera_avalon_jtag_uart_read+0x1ec>
    return ptr - buffer;
   4b888:	e0fff517 	ldw	r3,-44(fp)
   4b88c:	e0bffd17 	ldw	r2,-12(fp)
   4b890:	1885c83a 	sub	r2,r3,r2
   4b894:	00000606 	br	4b8b0 <altera_avalon_jtag_uart_read+0x204>
  else if (flags & O_NONBLOCK)
   4b898:	e0bfff17 	ldw	r2,-4(fp)
   4b89c:	1090000c 	andi	r2,r2,16384
   4b8a0:	10000226 	beq	r2,zero,4b8ac <altera_avalon_jtag_uart_read+0x200>
    return -EWOULDBLOCK;
   4b8a4:	00bffd44 	movi	r2,-11
   4b8a8:	00000106 	br	4b8b0 <altera_avalon_jtag_uart_read+0x204>
  else
    return -EIO;
   4b8ac:	00bffec4 	movi	r2,-5
}
   4b8b0:	e037883a 	mov	sp,fp
   4b8b4:	dfc00117 	ldw	ra,4(sp)
   4b8b8:	df000017 	ldw	fp,0(sp)
   4b8bc:	dec00204 	addi	sp,sp,8
   4b8c0:	f800283a 	ret

0004b8c4 <altera_avalon_jtag_uart_write>:
/* ----------------------------------------------------------- */

int 
altera_avalon_jtag_uart_write(altera_avalon_jtag_uart_state* sp, 
  const char * ptr, int count, int flags)
{
   4b8c4:	defff304 	addi	sp,sp,-52
   4b8c8:	dfc00c15 	stw	ra,48(sp)
   4b8cc:	df000b15 	stw	fp,44(sp)
   4b8d0:	df000b04 	addi	fp,sp,44
   4b8d4:	e13ffc15 	stw	r4,-16(fp)
   4b8d8:	e17ffd15 	stw	r5,-12(fp)
   4b8dc:	e1bffe15 	stw	r6,-8(fp)
   4b8e0:	e1ffff15 	stw	r7,-4(fp)
  /* Remove warning at optimisation level 03 by seting out to 0 */
  unsigned int in, out=0;
   4b8e4:	e03ff515 	stw	zero,-44(fp)
  unsigned int n;
  alt_irq_context context;

  const char * start = ptr;
   4b8e8:	e0bffd17 	ldw	r2,-12(fp)
   4b8ec:	e0bff715 	stw	r2,-36(fp)
  ALT_SEM_PEND (sp->write_lock, 0);

  do
  {
    /* Copy as much as we can into the transmit buffer */
    while (count > 0)
   4b8f0:	00003706 	br	4b9d0 <altera_avalon_jtag_uart_write+0x10c>
    {
      /* We need a stable value of the out pointer to calculate the space available */
      in  = sp->tx_in;
   4b8f4:	e0bffc17 	ldw	r2,-16(fp)
   4b8f8:	10800c17 	ldw	r2,48(r2)
   4b8fc:	e0bff815 	stw	r2,-32(fp)
      out = sp->tx_out;
   4b900:	e0bffc17 	ldw	r2,-16(fp)
   4b904:	10800d17 	ldw	r2,52(r2)
   4b908:	e0bff515 	stw	r2,-44(fp)

      if (in < out)
   4b90c:	e0fff817 	ldw	r3,-32(fp)
   4b910:	e0bff517 	ldw	r2,-44(fp)
   4b914:	1880062e 	bgeu	r3,r2,4b930 <altera_avalon_jtag_uart_write+0x6c>
        n = out - 1 - in;
   4b918:	e0fff517 	ldw	r3,-44(fp)
   4b91c:	e0bff817 	ldw	r2,-32(fp)
   4b920:	1885c83a 	sub	r2,r3,r2
   4b924:	10bfffc4 	addi	r2,r2,-1
   4b928:	e0bff615 	stw	r2,-40(fp)
   4b92c:	00000b06 	br	4b95c <altera_avalon_jtag_uart_write+0x98>
      else if (out > 0)
   4b930:	e0bff517 	ldw	r2,-44(fp)
   4b934:	10000526 	beq	r2,zero,4b94c <altera_avalon_jtag_uart_write+0x88>
        n = ALTERA_AVALON_JTAG_UART_BUF_LEN - in;
   4b938:	00c20004 	movi	r3,2048
   4b93c:	e0bff817 	ldw	r2,-32(fp)
   4b940:	1885c83a 	sub	r2,r3,r2
   4b944:	e0bff615 	stw	r2,-40(fp)
   4b948:	00000406 	br	4b95c <altera_avalon_jtag_uart_write+0x98>
      else
        n = ALTERA_AVALON_JTAG_UART_BUF_LEN - 1 - in;
   4b94c:	00c1ffc4 	movi	r3,2047
   4b950:	e0bff817 	ldw	r2,-32(fp)
   4b954:	1885c83a 	sub	r2,r3,r2
   4b958:	e0bff615 	stw	r2,-40(fp)

      if (n == 0)
   4b95c:	e0bff617 	ldw	r2,-40(fp)
   4b960:	10001e26 	beq	r2,zero,4b9dc <altera_avalon_jtag_uart_write+0x118>
        break;

      if (n > count)
   4b964:	e0fffe17 	ldw	r3,-8(fp)
   4b968:	e0bff617 	ldw	r2,-40(fp)
   4b96c:	1880022e 	bgeu	r3,r2,4b978 <altera_avalon_jtag_uart_write+0xb4>
        n = count;
   4b970:	e0bffe17 	ldw	r2,-8(fp)
   4b974:	e0bff615 	stw	r2,-40(fp)

      memcpy(sp->tx_buf + in, ptr, n);
   4b978:	e0bff817 	ldw	r2,-32(fp)
   4b97c:	10820e04 	addi	r2,r2,2104
   4b980:	e0fffc17 	ldw	r3,-16(fp)
   4b984:	1885883a 	add	r2,r3,r2
   4b988:	1009883a 	mov	r4,r2
   4b98c:	e17ffd17 	ldw	r5,-12(fp)
   4b990:	e1bff617 	ldw	r6,-40(fp)
   4b994:	00464800 	call	46480 <memcpy>
      ptr   += n;
   4b998:	e0fffd17 	ldw	r3,-12(fp)
   4b99c:	e0bff617 	ldw	r2,-40(fp)
   4b9a0:	1885883a 	add	r2,r3,r2
   4b9a4:	e0bffd15 	stw	r2,-12(fp)
      count -= n;
   4b9a8:	e0fffe17 	ldw	r3,-8(fp)
   4b9ac:	e0bff617 	ldw	r2,-40(fp)
   4b9b0:	1885c83a 	sub	r2,r3,r2
   4b9b4:	e0bffe15 	stw	r2,-8(fp)

      sp->tx_in = (in + n) % ALTERA_AVALON_JTAG_UART_BUF_LEN;
   4b9b8:	e0fff817 	ldw	r3,-32(fp)
   4b9bc:	e0bff617 	ldw	r2,-40(fp)
   4b9c0:	1885883a 	add	r2,r3,r2
   4b9c4:	10c1ffcc 	andi	r3,r2,2047
   4b9c8:	e0bffc17 	ldw	r2,-16(fp)
   4b9cc:	10c00c15 	stw	r3,48(r2)
  ALT_SEM_PEND (sp->write_lock, 0);

  do
  {
    /* Copy as much as we can into the transmit buffer */
    while (count > 0)
   4b9d0:	e0bffe17 	ldw	r2,-8(fp)
   4b9d4:	00bfc716 	blt	zero,r2,4b8f4 <altera_avalon_jtag_uart_write+0x30>
   4b9d8:	00000106 	br	4b9e0 <altera_avalon_jtag_uart_write+0x11c>
        n = ALTERA_AVALON_JTAG_UART_BUF_LEN - in;
      else
        n = ALTERA_AVALON_JTAG_UART_BUF_LEN - 1 - in;

      if (n == 0)
        break;
   4b9dc:	0001883a 	nop
static ALT_INLINE alt_irq_context ALT_ALWAYS_INLINE 
       alt_irq_disable_all (void)
{
  alt_irq_context context;

  NIOS2_READ_STATUS (context);
   4b9e0:	0005303a 	rdctl	r2,status
   4b9e4:	e0bffa15 	stw	r2,-24(fp)

  NIOS2_WRITE_STATUS (context & ~NIOS2_STATUS_PIE_MSK);
   4b9e8:	e0fffa17 	ldw	r3,-24(fp)
   4b9ec:	00bfff84 	movi	r2,-2
   4b9f0:	1884703a 	and	r2,r3,r2
   4b9f4:	1001703a 	wrctl	status,r2
  
  return context;
   4b9f8:	e0bffa17 	ldw	r2,-24(fp)
     * to enable interrupts if there is no space left in the FIFO
     *
     * For now kick the interrupt routine every time to make it transmit 
     * the data 
     */
    context = alt_irq_disable_all();
   4b9fc:	e0bff915 	stw	r2,-28(fp)
    sp->irq_enable |= ALTERA_AVALON_JTAG_UART_CONTROL_WE_MSK;
   4ba00:	e0bffc17 	ldw	r2,-16(fp)
   4ba04:	10800817 	ldw	r2,32(r2)
   4ba08:	10c00094 	ori	r3,r2,2
   4ba0c:	e0bffc17 	ldw	r2,-16(fp)
   4ba10:	10c00815 	stw	r3,32(r2)
    IOWR_ALTERA_AVALON_JTAG_UART_CONTROL(sp->base, sp->irq_enable);
   4ba14:	e0bffc17 	ldw	r2,-16(fp)
   4ba18:	10800017 	ldw	r2,0(r2)
   4ba1c:	10800104 	addi	r2,r2,4
   4ba20:	e0fffc17 	ldw	r3,-16(fp)
   4ba24:	18c00817 	ldw	r3,32(r3)
   4ba28:	10c00035 	stwio	r3,0(r2)
   4ba2c:	e0bff917 	ldw	r2,-28(fp)
   4ba30:	e0bffb15 	stw	r2,-20(fp)
  status &= ~NIOS2_STATUS_PIE_MSK;
  status |= (context & NIOS2_STATUS_PIE_MSK);
  
  NIOS2_WRITE_STATUS (status);
#else
  NIOS2_WRITE_STATUS (context);
   4ba34:	e0bffb17 	ldw	r2,-20(fp)
   4ba38:	1001703a 	wrctl	status,r2
    /* 
     * If there is any data left then either return now or block until 
     * some has been sent 
     */
    /* consider: test whether there is anything there while doing this and delay for at most 2s. */
    if (count > 0)
   4ba3c:	e0bffe17 	ldw	r2,-8(fp)
   4ba40:	0080110e 	bge	zero,r2,4ba88 <altera_avalon_jtag_uart_write+0x1c4>
    {
      if (flags & O_NONBLOCK)
   4ba44:	e0bfff17 	ldw	r2,-4(fp)
   4ba48:	1090000c 	andi	r2,r2,16384
   4ba4c:	1000111e 	bne	r2,zero,4ba94 <altera_avalon_jtag_uart_write+0x1d0>
      /*
       * No OS present: Always wait for data to be removed from buffer.  Once
       * the interrupt routine has removed some data then we will be able to
       * insert some more.
       */
      while (out == sp->tx_out && sp->host_inactive < sp->timeout)
   4ba50:	0001883a 	nop
   4ba54:	e0bffc17 	ldw	r2,-16(fp)
   4ba58:	10c00d17 	ldw	r3,52(r2)
   4ba5c:	e0bff517 	ldw	r2,-44(fp)
   4ba60:	1880051e 	bne	r3,r2,4ba78 <altera_avalon_jtag_uart_write+0x1b4>
   4ba64:	e0bffc17 	ldw	r2,-16(fp)
   4ba68:	10c00917 	ldw	r3,36(r2)
   4ba6c:	e0bffc17 	ldw	r2,-16(fp)
   4ba70:	10800117 	ldw	r2,4(r2)
   4ba74:	18bff736 	bltu	r3,r2,4ba54 <altera_avalon_jtag_uart_write+0x190>
        ;
#endif /* __ucosii__ */

      if (out == sp->tx_out)
   4ba78:	e0bffc17 	ldw	r2,-16(fp)
   4ba7c:	10c00d17 	ldw	r3,52(r2)
   4ba80:	e0bff517 	ldw	r2,-44(fp)
   4ba84:	18800526 	beq	r3,r2,4ba9c <altera_avalon_jtag_uart_write+0x1d8>
         break;
    }
  }
  while (count > 0);
   4ba88:	e0bffe17 	ldw	r2,-8(fp)
   4ba8c:	00bfd016 	blt	zero,r2,4b9d0 <altera_avalon_jtag_uart_write+0x10c>
   4ba90:	00000306 	br	4baa0 <altera_avalon_jtag_uart_write+0x1dc>
     */
    /* consider: test whether there is anything there while doing this and delay for at most 2s. */
    if (count > 0)
    {
      if (flags & O_NONBLOCK)
        break;
   4ba94:	0001883a 	nop
   4ba98:	00000106 	br	4baa0 <altera_avalon_jtag_uart_write+0x1dc>
      while (out == sp->tx_out && sp->host_inactive < sp->timeout)
        ;
#endif /* __ucosii__ */

      if (out == sp->tx_out)
         break;
   4ba9c:	0001883a 	nop
   * Now that access to the circular buffer is complete, release the write
   * semaphore so that other threads can access the buffer.
   */
  ALT_SEM_POST (sp->write_lock);

  if (ptr != start)
   4baa0:	e0fffd17 	ldw	r3,-12(fp)
   4baa4:	e0bff717 	ldw	r2,-36(fp)
   4baa8:	18800426 	beq	r3,r2,4babc <altera_avalon_jtag_uart_write+0x1f8>
    return ptr - start;
   4baac:	e0fffd17 	ldw	r3,-12(fp)
   4bab0:	e0bff717 	ldw	r2,-36(fp)
   4bab4:	1885c83a 	sub	r2,r3,r2
   4bab8:	00000606 	br	4bad4 <altera_avalon_jtag_uart_write+0x210>
  else if (flags & O_NONBLOCK)
   4babc:	e0bfff17 	ldw	r2,-4(fp)
   4bac0:	1090000c 	andi	r2,r2,16384
   4bac4:	10000226 	beq	r2,zero,4bad0 <altera_avalon_jtag_uart_write+0x20c>
    return -EWOULDBLOCK;
   4bac8:	00bffd44 	movi	r2,-11
   4bacc:	00000106 	br	4bad4 <altera_avalon_jtag_uart_write+0x210>
    sp->tx_out = sp->tx_in = 0;
    return ptr - start + count;
  }
#endif
  else
    return -EIO; /* Host not connected */
   4bad0:	00bffec4 	movi	r2,-5
}
   4bad4:	e037883a 	mov	sp,fp
   4bad8:	dfc00117 	ldw	ra,4(sp)
   4badc:	df000017 	ldw	fp,0(sp)
   4bae0:	dec00204 	addi	sp,sp,8
   4bae4:	f800283a 	ret

0004bae8 <alt_avalon_timer_sc_irq>:
#ifdef ALT_ENHANCED_INTERRUPT_API_PRESENT
static void alt_avalon_timer_sc_irq (void* base)
#else
static void alt_avalon_timer_sc_irq (void* base, alt_u32 id)
#endif
{
   4bae8:	defffa04 	addi	sp,sp,-24
   4baec:	dfc00515 	stw	ra,20(sp)
   4baf0:	df000415 	stw	fp,16(sp)
   4baf4:	df000404 	addi	fp,sp,16
   4baf8:	e13fff15 	stw	r4,-4(fp)
  alt_irq_context cpu_sr;
  
  /* clear the interrupt */
  IOWR_ALTERA_AVALON_TIMER_STATUS (base, 0);
   4bafc:	0007883a 	mov	r3,zero
   4bb00:	e0bfff17 	ldw	r2,-4(fp)
   4bb04:	10c00035 	stwio	r3,0(r2)
  /* 
   * Dummy read to ensure IRQ is negated before the ISR returns.
   * The control register is read because reading the status
   * register has side-effects per the register map documentation.
   */
  IORD_ALTERA_AVALON_TIMER_CONTROL (base);
   4bb08:	e0bfff17 	ldw	r2,-4(fp)
   4bb0c:	10800104 	addi	r2,r2,4
   4bb10:	10800037 	ldwio	r2,0(r2)
static ALT_INLINE alt_irq_context ALT_ALWAYS_INLINE 
       alt_irq_disable_all (void)
{
  alt_irq_context context;

  NIOS2_READ_STATUS (context);
   4bb14:	0005303a 	rdctl	r2,status
   4bb18:	e0bffd15 	stw	r2,-12(fp)

  NIOS2_WRITE_STATUS (context & ~NIOS2_STATUS_PIE_MSK);
   4bb1c:	e0fffd17 	ldw	r3,-12(fp)
   4bb20:	00bfff84 	movi	r2,-2
   4bb24:	1884703a 	and	r2,r3,r2
   4bb28:	1001703a 	wrctl	status,r2
  
  return context;
   4bb2c:	e0bffd17 	ldw	r2,-12(fp)

  /* 
   * Notify the system of a clock tick. disable interrupts 
   * during this time to safely support ISR preemption
   */
  cpu_sr = alt_irq_disable_all();
   4bb30:	e0bffc15 	stw	r2,-16(fp)
  alt_tick ();
   4bb34:	004c7a80 	call	4c7a8 <alt_tick>
   4bb38:	e0bffc17 	ldw	r2,-16(fp)
   4bb3c:	e0bffe15 	stw	r2,-8(fp)
  status &= ~NIOS2_STATUS_PIE_MSK;
  status |= (context & NIOS2_STATUS_PIE_MSK);
  
  NIOS2_WRITE_STATUS (status);
#else
  NIOS2_WRITE_STATUS (context);
   4bb40:	e0bffe17 	ldw	r2,-8(fp)
   4bb44:	1001703a 	wrctl	status,r2
  alt_irq_enable_all(cpu_sr);
}
   4bb48:	e037883a 	mov	sp,fp
   4bb4c:	dfc00117 	ldw	ra,4(sp)
   4bb50:	df000017 	ldw	fp,0(sp)
   4bb54:	dec00204 	addi	sp,sp,8
   4bb58:	f800283a 	ret

0004bb5c <alt_avalon_timer_sc_init>:
 * auto-generated alt_sys_init() function.
 */

void alt_avalon_timer_sc_init (void* base, alt_u32 irq_controller_id, 
                                alt_u32 irq, alt_u32 freq)
{
   4bb5c:	defff804 	addi	sp,sp,-32
   4bb60:	dfc00715 	stw	ra,28(sp)
   4bb64:	df000615 	stw	fp,24(sp)
   4bb68:	df000604 	addi	fp,sp,24
   4bb6c:	e13ffc15 	stw	r4,-16(fp)
   4bb70:	e17ffd15 	stw	r5,-12(fp)
   4bb74:	e1bffe15 	stw	r6,-8(fp)
   4bb78:	e1ffff15 	stw	r7,-4(fp)
   4bb7c:	e0bfff17 	ldw	r2,-4(fp)
   4bb80:	e0bffb15 	stw	r2,-20(fp)
 * in order to initialise the value of the clock frequency.
 */

static ALT_INLINE int ALT_ALWAYS_INLINE alt_sysclk_init (alt_u32 nticks)
{
  if (! _alt_tick_rate)
   4bb84:	00800174 	movhi	r2,5
   4bb88:	1082f304 	addi	r2,r2,3020
   4bb8c:	10800017 	ldw	r2,0(r2)
   4bb90:	1000041e 	bne	r2,zero,4bba4 <alt_avalon_timer_sc_init+0x48>
  {
    _alt_tick_rate = nticks;
   4bb94:	00800174 	movhi	r2,5
   4bb98:	1082f304 	addi	r2,r2,3020
   4bb9c:	e0fffb17 	ldw	r3,-20(fp)
   4bba0:	10c00015 	stw	r3,0(r2)
  
  alt_sysclk_init (freq);
  
  /* set to free running mode */
  
  IOWR_ALTERA_AVALON_TIMER_CONTROL (base, 
   4bba4:	e0bffc17 	ldw	r2,-16(fp)
   4bba8:	10800104 	addi	r2,r2,4
   4bbac:	00c001c4 	movi	r3,7
   4bbb0:	10c00035 	stwio	r3,0(r2)
            ALTERA_AVALON_TIMER_CONTROL_CONT_MSK |
            ALTERA_AVALON_TIMER_CONTROL_START_MSK);

  /* register the interrupt handler, and enable the interrupt */
#ifdef ALT_ENHANCED_INTERRUPT_API_PRESENT
  alt_ic_isr_register(irq_controller_id, irq, alt_avalon_timer_sc_irq, 
   4bbb4:	d8000015 	stw	zero,0(sp)
   4bbb8:	e13ffd17 	ldw	r4,-12(fp)
   4bbbc:	e17ffe17 	ldw	r5,-8(fp)
   4bbc0:	01800174 	movhi	r6,5
   4bbc4:	31aeba04 	addi	r6,r6,-17688
   4bbc8:	e1fffc17 	ldw	r7,-16(fp)
   4bbcc:	004c0580 	call	4c058 <alt_ic_isr_register>
                      base, NULL);
#else
  alt_irq_register (irq, base, alt_avalon_timer_sc_irq);
#endif  
}
   4bbd0:	e037883a 	mov	sp,fp
   4bbd4:	dfc00117 	ldw	ra,4(sp)
   4bbd8:	df000017 	ldw	fp,0(sp)
   4bbdc:	dec00204 	addi	sp,sp,8
   4bbe0:	f800283a 	ret

0004bbe4 <alt_timestamp_start>:
 * The return value of this function is 0 upon sucess and -1 if in timestamp
 * device has not been registered. 
 */

int alt_timestamp_start(void)
{
   4bbe4:	defffe04 	addi	sp,sp,-8
   4bbe8:	df000115 	stw	fp,4(sp)
   4bbec:	df000104 	addi	fp,sp,4
  void* base = altera_avalon_timer_ts_base;
   4bbf0:	00800174 	movhi	r2,5
   4bbf4:	1082f004 	addi	r2,r2,3008
   4bbf8:	10800017 	ldw	r2,0(r2)
   4bbfc:	e0bfff15 	stw	r2,-4(fp)

  if (!altera_avalon_timer_ts_freq)
   4bc00:	00800174 	movhi	r2,5
   4bc04:	1082f104 	addi	r2,r2,3012
   4bc08:	10800017 	ldw	r2,0(r2)
   4bc0c:	1000021e 	bne	r2,zero,4bc18 <alt_timestamp_start+0x34>
  {
    return -1;
   4bc10:	00bfffc4 	movi	r2,-1
   4bc14:	00001106 	br	4bc5c <alt_timestamp_start+0x78>
        IOWR_ALTERA_AVALON_TIMER_PERIOD_1 (base, 0xFFFF);;
        IOWR_ALTERA_AVALON_TIMER_PERIOD_2 (base, 0xFFFF);
        IOWR_ALTERA_AVALON_TIMER_PERIOD_3 (base, 0xFFFF);
        IOWR_ALTERA_AVALON_TIMER_CONTROL (base, ALTERA_AVALON_TIMER_CONTROL_START_MSK);
    } else {
        IOWR_ALTERA_AVALON_TIMER_CONTROL (base,ALTERA_AVALON_TIMER_CONTROL_STOP_MSK);
   4bc18:	e0bfff17 	ldw	r2,-4(fp)
   4bc1c:	10800104 	addi	r2,r2,4
   4bc20:	00c00204 	movi	r3,8
   4bc24:	10c00035 	stwio	r3,0(r2)
        IOWR_ALTERA_AVALON_TIMER_PERIODL (base, 0xFFFF);
   4bc28:	e0bfff17 	ldw	r2,-4(fp)
   4bc2c:	10800204 	addi	r2,r2,8
   4bc30:	00ffffd4 	movui	r3,65535
   4bc34:	10c00035 	stwio	r3,0(r2)
        IOWR_ALTERA_AVALON_TIMER_PERIODH (base, 0xFFFF);
   4bc38:	e0bfff17 	ldw	r2,-4(fp)
   4bc3c:	10800304 	addi	r2,r2,12
   4bc40:	00ffffd4 	movui	r3,65535
   4bc44:	10c00035 	stwio	r3,0(r2)
        IOWR_ALTERA_AVALON_TIMER_CONTROL (base, ALTERA_AVALON_TIMER_CONTROL_START_MSK); 
   4bc48:	e0bfff17 	ldw	r2,-4(fp)
   4bc4c:	10800104 	addi	r2,r2,4
   4bc50:	00c00104 	movi	r3,4
   4bc54:	10c00035 	stwio	r3,0(r2)
    } 
  }
  return 0;
   4bc58:	0005883a 	mov	r2,zero
}
   4bc5c:	e037883a 	mov	sp,fp
   4bc60:	df000017 	ldw	fp,0(sp)
   4bc64:	dec00104 	addi	sp,sp,4
   4bc68:	f800283a 	ret

0004bc6c <alt_timestamp>:
 * The returned timestamp counts up from the last time the period register
 * was reset. 
 */

alt_timestamp_type alt_timestamp(void)
{
   4bc6c:	defffc04 	addi	sp,sp,-16
   4bc70:	df000315 	stw	fp,12(sp)
   4bc74:	df000304 	addi	fp,sp,12

  void* base = altera_avalon_timer_ts_base;
   4bc78:	00800174 	movhi	r2,5
   4bc7c:	1082f004 	addi	r2,r2,3008
   4bc80:	10800017 	ldw	r2,0(r2)
   4bc84:	e0bffd15 	stw	r2,-12(fp)

  if (!altera_avalon_timer_ts_freq)
   4bc88:	00800174 	movhi	r2,5
   4bc8c:	1082f104 	addi	r2,r2,3012
   4bc90:	10800017 	ldw	r2,0(r2)
   4bc94:	1000021e 	bne	r2,zero,4bca0 <alt_timestamp+0x34>
  {
	if(ALT_TIMESTAMP_COUNTER_SIZE == 64) {
        return 0xFFFFFFFFFFFFFFFFULL;
    } else {
        return 0xFFFFFFFF;
   4bc98:	00bfffc4 	movi	r2,-1
   4bc9c:	00001306 	br	4bcec <alt_timestamp+0x80>
        alt_timestamp_type snap_2 = IORD_ALTERA_AVALON_TIMER_SNAP_2(base) & ALTERA_AVALON_TIMER_SNAP_2_MSK;
        alt_timestamp_type snap_3 = IORD_ALTERA_AVALON_TIMER_SNAP_3(base) & ALTERA_AVALON_TIMER_SNAP_3_MSK;
        
        return (0xFFFFFFFFFFFFFFFFULL - ( (snap_3 << 48) | (snap_2 << 32) | (snap_1 << 16) | (snap_0) ));
    } else {
        IOWR_ALTERA_AVALON_TIMER_SNAPL (base, 0);
   4bca0:	e0bffd17 	ldw	r2,-12(fp)
   4bca4:	10800404 	addi	r2,r2,16
   4bca8:	0007883a 	mov	r3,zero
   4bcac:	10c00035 	stwio	r3,0(r2)
        alt_timestamp_type lower = IORD_ALTERA_AVALON_TIMER_SNAPL(base) & ALTERA_AVALON_TIMER_SNAPL_MSK;
   4bcb0:	e0bffd17 	ldw	r2,-12(fp)
   4bcb4:	10800404 	addi	r2,r2,16
   4bcb8:	10800037 	ldwio	r2,0(r2)
   4bcbc:	10bfffcc 	andi	r2,r2,65535
   4bcc0:	e0bffe15 	stw	r2,-8(fp)
        alt_timestamp_type upper = IORD_ALTERA_AVALON_TIMER_SNAPH(base) & ALTERA_AVALON_TIMER_SNAPH_MSK;
   4bcc4:	e0bffd17 	ldw	r2,-12(fp)
   4bcc8:	10800504 	addi	r2,r2,20
   4bccc:	10800037 	ldwio	r2,0(r2)
   4bcd0:	10bfffcc 	andi	r2,r2,65535
   4bcd4:	e0bfff15 	stw	r2,-4(fp)
        
        return (0xFFFFFFFF - ((upper << 16) | lower)); 
   4bcd8:	e0bfff17 	ldw	r2,-4(fp)
   4bcdc:	1006943a 	slli	r3,r2,16
   4bce0:	e0bffe17 	ldw	r2,-8(fp)
   4bce4:	1884b03a 	or	r2,r3,r2
   4bce8:	0084303a 	nor	r2,zero,r2
    }  
  }
}
   4bcec:	e037883a 	mov	sp,fp
   4bcf0:	df000017 	ldw	fp,0(sp)
   4bcf4:	dec00104 	addi	sp,sp,4
   4bcf8:	f800283a 	ret

0004bcfc <alt_timestamp_freq>:
 * Return the number of timestamp ticks per second. This will be 0 if no
 * timestamp device has been registered.
 */

alt_u32 alt_timestamp_freq(void)
{
   4bcfc:	deffff04 	addi	sp,sp,-4
   4bd00:	df000015 	stw	fp,0(sp)
   4bd04:	d839883a 	mov	fp,sp
  return altera_avalon_timer_ts_freq;
   4bd08:	00800174 	movhi	r2,5
   4bd0c:	1082f104 	addi	r2,r2,3012
   4bd10:	10800017 	ldw	r2,0(r2)
}
   4bd14:	e037883a 	mov	sp,fp
   4bd18:	df000017 	ldw	fp,0(sp)
   4bd1c:	dec00104 	addi	sp,sp,4
   4bd20:	f800283a 	ret

0004bd24 <alt_alarm_start>:
 */ 

int alt_alarm_start (alt_alarm* alarm, alt_u32 nticks,
                     alt_u32 (*callback) (void* context),
                     void* context)
{
   4bd24:	defff504 	addi	sp,sp,-44
   4bd28:	df000a15 	stw	fp,40(sp)
   4bd2c:	df000a04 	addi	fp,sp,40
   4bd30:	e13ffc15 	stw	r4,-16(fp)
   4bd34:	e17ffd15 	stw	r5,-12(fp)
   4bd38:	e1bffe15 	stw	r6,-8(fp)
   4bd3c:	e1ffff15 	stw	r7,-4(fp)
  alt_irq_context irq_context;
  alt_u32 current_nticks = 0;
   4bd40:	e03ff615 	stw	zero,-40(fp)
 * Obtain the system clock rate in ticks/s. 
 */

static ALT_INLINE alt_u32 ALT_ALWAYS_INLINE alt_ticks_per_second (void)
{
  return _alt_tick_rate;
   4bd44:	00800174 	movhi	r2,5
   4bd48:	1082f304 	addi	r2,r2,3020
   4bd4c:	10800017 	ldw	r2,0(r2)
  
  if (alt_ticks_per_second ())
   4bd50:	10003f26 	beq	r2,zero,4be50 <alt_alarm_start+0x12c>
  {
    if (alarm)
   4bd54:	e0bffc17 	ldw	r2,-16(fp)
   4bd58:	10003b26 	beq	r2,zero,4be48 <alt_alarm_start+0x124>
    {
      alarm->callback = callback;
   4bd5c:	e0bffc17 	ldw	r2,-16(fp)
   4bd60:	e0fffe17 	ldw	r3,-8(fp)
   4bd64:	10c00315 	stw	r3,12(r2)
      alarm->context  = context;
   4bd68:	e0bffc17 	ldw	r2,-16(fp)
   4bd6c:	e0ffff17 	ldw	r3,-4(fp)
   4bd70:	10c00515 	stw	r3,20(r2)
static ALT_INLINE alt_irq_context ALT_ALWAYS_INLINE 
       alt_irq_disable_all (void)
{
  alt_irq_context context;

  NIOS2_READ_STATUS (context);
   4bd74:	0005303a 	rdctl	r2,status
   4bd78:	e0bff815 	stw	r2,-32(fp)

  NIOS2_WRITE_STATUS (context & ~NIOS2_STATUS_PIE_MSK);
   4bd7c:	e0fff817 	ldw	r3,-32(fp)
   4bd80:	00bfff84 	movi	r2,-2
   4bd84:	1884703a 	and	r2,r3,r2
   4bd88:	1001703a 	wrctl	status,r2
  
  return context;
   4bd8c:	e0bff817 	ldw	r2,-32(fp)
 
      irq_context = alt_irq_disable_all ();
   4bd90:	e0bff715 	stw	r2,-36(fp)
 * alt_nticks() returns the elapsed number of system clock ticks since reset.
 */

static ALT_INLINE alt_u32 ALT_ALWAYS_INLINE alt_nticks (void)
{
  return _alt_nticks;
   4bd94:	00800174 	movhi	r2,5
   4bd98:	1082f404 	addi	r2,r2,3024
   4bd9c:	10800017 	ldw	r2,0(r2)
      
      current_nticks = alt_nticks();
   4bda0:	e0bff615 	stw	r2,-40(fp)
      
      alarm->time = nticks + current_nticks + 1; 
   4bda4:	e0fffd17 	ldw	r3,-12(fp)
   4bda8:	e0bff617 	ldw	r2,-40(fp)
   4bdac:	1885883a 	add	r2,r3,r2
   4bdb0:	10c00044 	addi	r3,r2,1
   4bdb4:	e0bffc17 	ldw	r2,-16(fp)
   4bdb8:	10c00215 	stw	r3,8(r2)
      /* 
       * If the desired alarm time causes a roll-over, set the rollover
       * flag. This will prevent the subsequent tick event from causing
       * an alarm too early.
       */
      if(alarm->time < current_nticks)
   4bdbc:	e0bffc17 	ldw	r2,-16(fp)
   4bdc0:	10c00217 	ldw	r3,8(r2)
   4bdc4:	e0bff617 	ldw	r2,-40(fp)
   4bdc8:	1880042e 	bgeu	r3,r2,4bddc <alt_alarm_start+0xb8>
      {
        alarm->rollover = 1;
   4bdcc:	e0bffc17 	ldw	r2,-16(fp)
   4bdd0:	00c00044 	movi	r3,1
   4bdd4:	10c00405 	stb	r3,16(r2)
   4bdd8:	00000206 	br	4bde4 <alt_alarm_start+0xc0>
      }
      else
      {
        alarm->rollover = 0;
   4bddc:	e0bffc17 	ldw	r2,-16(fp)
   4bde0:	10000405 	stb	zero,16(r2)
      }
    
      alt_llist_insert (&alt_alarm_list, &alarm->llist);
   4bde4:	e0bffc17 	ldw	r2,-16(fp)
   4bde8:	00c00174 	movhi	r3,5
   4bdec:	18fc4e04 	addi	r3,r3,-3784
   4bdf0:	e0fff915 	stw	r3,-28(fp)
   4bdf4:	e0bffa15 	stw	r2,-24(fp)
 */

static ALT_INLINE void ALT_ALWAYS_INLINE alt_llist_insert(alt_llist* list, 
                alt_llist* entry)
{
  entry->previous = list;
   4bdf8:	e0bffa17 	ldw	r2,-24(fp)
   4bdfc:	e0fff917 	ldw	r3,-28(fp)
   4be00:	10c00115 	stw	r3,4(r2)
  entry->next     = list->next;
   4be04:	e0bff917 	ldw	r2,-28(fp)
   4be08:	10c00017 	ldw	r3,0(r2)
   4be0c:	e0bffa17 	ldw	r2,-24(fp)
   4be10:	10c00015 	stw	r3,0(r2)

  list->next->previous = entry;
   4be14:	e0bff917 	ldw	r2,-28(fp)
   4be18:	10800017 	ldw	r2,0(r2)
   4be1c:	e0fffa17 	ldw	r3,-24(fp)
   4be20:	10c00115 	stw	r3,4(r2)
  list->next           = entry;
   4be24:	e0bff917 	ldw	r2,-28(fp)
   4be28:	e0fffa17 	ldw	r3,-24(fp)
   4be2c:	10c00015 	stw	r3,0(r2)
   4be30:	e0bff717 	ldw	r2,-36(fp)
   4be34:	e0bffb15 	stw	r2,-20(fp)
  status &= ~NIOS2_STATUS_PIE_MSK;
  status |= (context & NIOS2_STATUS_PIE_MSK);
  
  NIOS2_WRITE_STATUS (status);
#else
  NIOS2_WRITE_STATUS (context);
   4be38:	e0bffb17 	ldw	r2,-20(fp)
   4be3c:	1001703a 	wrctl	status,r2
      alt_irq_enable_all (irq_context);

      return 0;
   4be40:	0005883a 	mov	r2,zero
   4be44:	00000306 	br	4be54 <alt_alarm_start+0x130>
    }
    else
    {
      return -EINVAL;
   4be48:	00bffa84 	movi	r2,-22
   4be4c:	00000106 	br	4be54 <alt_alarm_start+0x130>
    }
  }
  else
  {
    return -ENOTSUP;
   4be50:	00bfde84 	movi	r2,-134
  }
}
   4be54:	e037883a 	mov	sp,fp
   4be58:	df000017 	ldw	fp,0(sp)
   4be5c:	dec00104 	addi	sp,sp,4
   4be60:	f800283a 	ret

0004be64 <alt_dcache_flush_all>:
/*
 * alt_dcache_flush_all() is called to flush the entire data cache.
 */

void alt_dcache_flush_all (void)
{
   4be64:	deffff04 	addi	sp,sp,-4
   4be68:	df000015 	stw	fp,0(sp)
   4be6c:	d839883a 	mov	fp,sp
  for (i = (char*) 0; i < (char*) NIOS2_DCACHE_SIZE; i+= NIOS2_DCACHE_LINE_SIZE)
  { 
    __asm__ volatile ("flushd (%0)" :: "r" (i));
  }
#endif /* NIOS2_DCACHE_SIZE > 0 */
}
   4be70:	e037883a 	mov	sp,fp
   4be74:	df000017 	ldw	fp,0(sp)
   4be78:	dec00104 	addi	sp,sp,4
   4be7c:	f800283a 	ret

0004be80 <alt_get_errno>:
#undef errno

extern int errno;

static ALT_INLINE int* alt_get_errno(void)
{
   4be80:	defffe04 	addi	sp,sp,-8
   4be84:	dfc00115 	stw	ra,4(sp)
   4be88:	df000015 	stw	fp,0(sp)
   4be8c:	d839883a 	mov	fp,sp
  return ((alt_errno) ? alt_errno() : &errno);
   4be90:	00800174 	movhi	r2,5
   4be94:	10bc4b04 	addi	r2,r2,-3796
   4be98:	10800017 	ldw	r2,0(r2)
   4be9c:	10000526 	beq	r2,zero,4beb4 <alt_get_errno+0x34>
   4bea0:	00800174 	movhi	r2,5
   4bea4:	10bc4b04 	addi	r2,r2,-3796
   4bea8:	10800017 	ldw	r2,0(r2)
   4beac:	103ee83a 	callr	r2
   4beb0:	00000206 	br	4bebc <alt_get_errno+0x3c>
   4beb4:	00800174 	movhi	r2,5
   4beb8:	1082ec04 	addi	r2,r2,2992
}
   4bebc:	e037883a 	mov	sp,fp
   4bec0:	dfc00117 	ldw	ra,4(sp)
   4bec4:	df000017 	ldw	fp,0(sp)
   4bec8:	dec00204 	addi	sp,sp,8
   4becc:	f800283a 	ret

0004bed0 <alt_dev_llist_insert>:
/*
 *
 */

int alt_dev_llist_insert (alt_dev_llist* dev, alt_llist* list)
{
   4bed0:	defffa04 	addi	sp,sp,-24
   4bed4:	dfc00515 	stw	ra,20(sp)
   4bed8:	df000415 	stw	fp,16(sp)
   4bedc:	df000404 	addi	fp,sp,16
   4bee0:	e13ffe15 	stw	r4,-8(fp)
   4bee4:	e17fff15 	stw	r5,-4(fp)
  /*
   * check that the device exists, and that it has a valid name.
   */

  if (!dev || !dev->name)
   4bee8:	e0bffe17 	ldw	r2,-8(fp)
   4beec:	10000326 	beq	r2,zero,4befc <alt_dev_llist_insert+0x2c>
   4bef0:	e0bffe17 	ldw	r2,-8(fp)
   4bef4:	10800217 	ldw	r2,8(r2)
   4bef8:	1000051e 	bne	r2,zero,4bf10 <alt_dev_llist_insert+0x40>
  {
    ALT_ERRNO = EINVAL;
   4befc:	004be800 	call	4be80 <alt_get_errno>
   4bf00:	00c00584 	movi	r3,22
   4bf04:	10c00015 	stw	r3,0(r2)
    return -EINVAL;
   4bf08:	00bffa84 	movi	r2,-22
   4bf0c:	00001306 	br	4bf5c <alt_dev_llist_insert+0x8c>
  
  /*
   * register the device.
   */
  
  alt_llist_insert(list, &dev->llist);
   4bf10:	e0bffe17 	ldw	r2,-8(fp)
   4bf14:	e0ffff17 	ldw	r3,-4(fp)
   4bf18:	e0fffc15 	stw	r3,-16(fp)
   4bf1c:	e0bffd15 	stw	r2,-12(fp)
 */

static ALT_INLINE void ALT_ALWAYS_INLINE alt_llist_insert(alt_llist* list, 
                alt_llist* entry)
{
  entry->previous = list;
   4bf20:	e0bffd17 	ldw	r2,-12(fp)
   4bf24:	e0fffc17 	ldw	r3,-16(fp)
   4bf28:	10c00115 	stw	r3,4(r2)
  entry->next     = list->next;
   4bf2c:	e0bffc17 	ldw	r2,-16(fp)
   4bf30:	10c00017 	ldw	r3,0(r2)
   4bf34:	e0bffd17 	ldw	r2,-12(fp)
   4bf38:	10c00015 	stw	r3,0(r2)

  list->next->previous = entry;
   4bf3c:	e0bffc17 	ldw	r2,-16(fp)
   4bf40:	10800017 	ldw	r2,0(r2)
   4bf44:	e0fffd17 	ldw	r3,-12(fp)
   4bf48:	10c00115 	stw	r3,4(r2)
  list->next           = entry;
   4bf4c:	e0bffc17 	ldw	r2,-16(fp)
   4bf50:	e0fffd17 	ldw	r3,-12(fp)
   4bf54:	10c00015 	stw	r3,0(r2)

  return 0;  
   4bf58:	0005883a 	mov	r2,zero
}
   4bf5c:	e037883a 	mov	sp,fp
   4bf60:	dfc00117 	ldw	ra,4(sp)
   4bf64:	df000017 	ldw	fp,0(sp)
   4bf68:	dec00204 	addi	sp,sp,8
   4bf6c:	f800283a 	ret

0004bf70 <_do_ctors>:
/*
 * Run the C++ static constructors.
 */

void _do_ctors(void)
{
   4bf70:	defffd04 	addi	sp,sp,-12
   4bf74:	dfc00215 	stw	ra,8(sp)
   4bf78:	df000115 	stw	fp,4(sp)
   4bf7c:	df000104 	addi	fp,sp,4
  constructor* ctor;

  for (ctor = &__CTOR_END__[-1]; ctor >= __CTOR_LIST__; ctor--)
   4bf80:	00800174 	movhi	r2,5
   4bf84:	10b36304 	addi	r2,r2,-12916
   4bf88:	e0bfff15 	stw	r2,-4(fp)
   4bf8c:	00000606 	br	4bfa8 <_do_ctors+0x38>
        (*ctor) (); 
   4bf90:	e0bfff17 	ldw	r2,-4(fp)
   4bf94:	10800017 	ldw	r2,0(r2)
   4bf98:	103ee83a 	callr	r2

void _do_ctors(void)
{
  constructor* ctor;

  for (ctor = &__CTOR_END__[-1]; ctor >= __CTOR_LIST__; ctor--)
   4bf9c:	e0bfff17 	ldw	r2,-4(fp)
   4bfa0:	10bfff04 	addi	r2,r2,-4
   4bfa4:	e0bfff15 	stw	r2,-4(fp)
   4bfa8:	e0ffff17 	ldw	r3,-4(fp)
   4bfac:	00800174 	movhi	r2,5
   4bfb0:	10b36404 	addi	r2,r2,-12912
   4bfb4:	18bff62e 	bgeu	r3,r2,4bf90 <_do_ctors+0x20>
        (*ctor) (); 
}
   4bfb8:	e037883a 	mov	sp,fp
   4bfbc:	dfc00117 	ldw	ra,4(sp)
   4bfc0:	df000017 	ldw	fp,0(sp)
   4bfc4:	dec00204 	addi	sp,sp,8
   4bfc8:	f800283a 	ret

0004bfcc <_do_dtors>:
/*
 * Run the C++ static destructors.
 */

void _do_dtors(void)
{
   4bfcc:	defffd04 	addi	sp,sp,-12
   4bfd0:	dfc00215 	stw	ra,8(sp)
   4bfd4:	df000115 	stw	fp,4(sp)
   4bfd8:	df000104 	addi	fp,sp,4
  destructor* dtor;

  for (dtor = &__DTOR_END__[-1]; dtor >= __DTOR_LIST__; dtor--)
   4bfdc:	00800174 	movhi	r2,5
   4bfe0:	10b36304 	addi	r2,r2,-12916
   4bfe4:	e0bfff15 	stw	r2,-4(fp)
   4bfe8:	00000606 	br	4c004 <_do_dtors+0x38>
        (*dtor) (); 
   4bfec:	e0bfff17 	ldw	r2,-4(fp)
   4bff0:	10800017 	ldw	r2,0(r2)
   4bff4:	103ee83a 	callr	r2

void _do_dtors(void)
{
  destructor* dtor;

  for (dtor = &__DTOR_END__[-1]; dtor >= __DTOR_LIST__; dtor--)
   4bff8:	e0bfff17 	ldw	r2,-4(fp)
   4bffc:	10bfff04 	addi	r2,r2,-4
   4c000:	e0bfff15 	stw	r2,-4(fp)
   4c004:	e0ffff17 	ldw	r3,-4(fp)
   4c008:	00800174 	movhi	r2,5
   4c00c:	10b36404 	addi	r2,r2,-12912
   4c010:	18bff62e 	bgeu	r3,r2,4bfec <_do_dtors+0x20>
        (*dtor) (); 
}
   4c014:	e037883a 	mov	sp,fp
   4c018:	dfc00117 	ldw	ra,4(sp)
   4c01c:	df000017 	ldw	fp,0(sp)
   4c020:	dec00204 	addi	sp,sp,8
   4c024:	f800283a 	ret

0004c028 <alt_icache_flush_all>:
/*
 * alt_icache_flush_all() is called to flush the entire instruction cache.
 */

void alt_icache_flush_all (void)
{
   4c028:	defffe04 	addi	sp,sp,-8
   4c02c:	dfc00115 	stw	ra,4(sp)
   4c030:	df000015 	stw	fp,0(sp)
   4c034:	d839883a 	mov	fp,sp
#if NIOS2_ICACHE_SIZE > 0
  alt_icache_flush (0, NIOS2_ICACHE_SIZE);
   4c038:	0009883a 	mov	r4,zero
   4c03c:	01440004 	movi	r5,4096
   4c040:	004cb440 	call	4cb44 <alt_icache_flush>
#endif
}
   4c044:	e037883a 	mov	sp,fp
   4c048:	dfc00117 	ldw	ra,4(sp)
   4c04c:	df000017 	ldw	fp,0(sp)
   4c050:	dec00204 	addi	sp,sp,8
   4c054:	f800283a 	ret

0004c058 <alt_ic_isr_register>:
  * @param irq              IRQ number
  * @return                 0 if successful, else error (-1)
  */
int alt_ic_isr_register(alt_u32 ic_id, alt_u32 irq, alt_isr_func isr, 
  void *isr_context, void *flags)
{
   4c058:	defff904 	addi	sp,sp,-28
   4c05c:	dfc00615 	stw	ra,24(sp)
   4c060:	df000515 	stw	fp,20(sp)
   4c064:	df000504 	addi	fp,sp,20
   4c068:	e13ffc15 	stw	r4,-16(fp)
   4c06c:	e17ffd15 	stw	r5,-12(fp)
   4c070:	e1bffe15 	stw	r6,-8(fp)
   4c074:	e1ffff15 	stw	r7,-4(fp)
    return alt_iic_isr_register(ic_id, irq, isr, isr_context, flags);
   4c078:	e0800217 	ldw	r2,8(fp)
   4c07c:	d8800015 	stw	r2,0(sp)
   4c080:	e13ffc17 	ldw	r4,-16(fp)
   4c084:	e17ffd17 	ldw	r5,-12(fp)
   4c088:	e1bffe17 	ldw	r6,-8(fp)
   4c08c:	e1ffff17 	ldw	r7,-4(fp)
   4c090:	004c2300 	call	4c230 <alt_iic_isr_register>
}  
   4c094:	e037883a 	mov	sp,fp
   4c098:	dfc00117 	ldw	ra,4(sp)
   4c09c:	df000017 	ldw	fp,0(sp)
   4c0a0:	dec00204 	addi	sp,sp,8
   4c0a4:	f800283a 	ret

0004c0a8 <alt_ic_irq_enable>:
  * @param ic_id            Ignored.
  * @param irq              IRQ number
  * @return                 0 if successful, else error (-1)
  */
int alt_ic_irq_enable (alt_u32 ic_id, alt_u32 irq)
{
   4c0a8:	defff904 	addi	sp,sp,-28
   4c0ac:	df000615 	stw	fp,24(sp)
   4c0b0:	df000604 	addi	fp,sp,24
   4c0b4:	e13ffe15 	stw	r4,-8(fp)
   4c0b8:	e17fff15 	stw	r5,-4(fp)
   4c0bc:	e0bfff17 	ldw	r2,-4(fp)
   4c0c0:	e0bffa15 	stw	r2,-24(fp)
static ALT_INLINE alt_irq_context ALT_ALWAYS_INLINE 
       alt_irq_disable_all (void)
{
  alt_irq_context context;

  NIOS2_READ_STATUS (context);
   4c0c4:	0005303a 	rdctl	r2,status
   4c0c8:	e0bffb15 	stw	r2,-20(fp)

  NIOS2_WRITE_STATUS (context & ~NIOS2_STATUS_PIE_MSK);
   4c0cc:	e0fffb17 	ldw	r3,-20(fp)
   4c0d0:	00bfff84 	movi	r2,-2
   4c0d4:	1884703a 	and	r2,r3,r2
   4c0d8:	1001703a 	wrctl	status,r2
  
  return context;
   4c0dc:	e0bffb17 	ldw	r2,-20(fp)
static ALT_INLINE int ALT_ALWAYS_INLINE alt_irq_enable (alt_u32 id)
{
  alt_irq_context  status;
  extern volatile alt_u32 alt_irq_active;

  status = alt_irq_disable_all ();
   4c0e0:	e0bffc15 	stw	r2,-16(fp)

  alt_irq_active |= (1 << id);
   4c0e4:	e0bffa17 	ldw	r2,-24(fp)
   4c0e8:	00c00044 	movi	r3,1
   4c0ec:	1884983a 	sll	r2,r3,r2
   4c0f0:	1007883a 	mov	r3,r2
   4c0f4:	00800174 	movhi	r2,5
   4c0f8:	1082f204 	addi	r2,r2,3016
   4c0fc:	10800017 	ldw	r2,0(r2)
   4c100:	1886b03a 	or	r3,r3,r2
   4c104:	00800174 	movhi	r2,5
   4c108:	1082f204 	addi	r2,r2,3016
   4c10c:	10c00015 	stw	r3,0(r2)
  NIOS2_WRITE_IENABLE (alt_irq_active);
   4c110:	00800174 	movhi	r2,5
   4c114:	1082f204 	addi	r2,r2,3016
   4c118:	10800017 	ldw	r2,0(r2)
   4c11c:	100170fa 	wrctl	ienable,r2
   4c120:	e0bffc17 	ldw	r2,-16(fp)
   4c124:	e0bffd15 	stw	r2,-12(fp)
  status &= ~NIOS2_STATUS_PIE_MSK;
  status |= (context & NIOS2_STATUS_PIE_MSK);
  
  NIOS2_WRITE_STATUS (status);
#else
  NIOS2_WRITE_STATUS (context);
   4c128:	e0bffd17 	ldw	r2,-12(fp)
   4c12c:	1001703a 	wrctl	status,r2

  alt_irq_enable_all(status);

  return 0;
   4c130:	0005883a 	mov	r2,zero
    return alt_irq_enable(irq);
}
   4c134:	e037883a 	mov	sp,fp
   4c138:	df000017 	ldw	fp,0(sp)
   4c13c:	dec00104 	addi	sp,sp,4
   4c140:	f800283a 	ret

0004c144 <alt_ic_irq_disable>:
  * @param ic_id            Ignored.
  * @param irq              IRQ number
  * @return                 0 if successful, else error (-1)
  */
int alt_ic_irq_disable(alt_u32 ic_id, alt_u32 irq)
{
   4c144:	defff904 	addi	sp,sp,-28
   4c148:	df000615 	stw	fp,24(sp)
   4c14c:	df000604 	addi	fp,sp,24
   4c150:	e13ffe15 	stw	r4,-8(fp)
   4c154:	e17fff15 	stw	r5,-4(fp)
   4c158:	e0bfff17 	ldw	r2,-4(fp)
   4c15c:	e0bffa15 	stw	r2,-24(fp)
static ALT_INLINE alt_irq_context ALT_ALWAYS_INLINE 
       alt_irq_disable_all (void)
{
  alt_irq_context context;

  NIOS2_READ_STATUS (context);
   4c160:	0005303a 	rdctl	r2,status
   4c164:	e0bffb15 	stw	r2,-20(fp)

  NIOS2_WRITE_STATUS (context & ~NIOS2_STATUS_PIE_MSK);
   4c168:	e0fffb17 	ldw	r3,-20(fp)
   4c16c:	00bfff84 	movi	r2,-2
   4c170:	1884703a 	and	r2,r3,r2
   4c174:	1001703a 	wrctl	status,r2
  
  return context;
   4c178:	e0bffb17 	ldw	r2,-20(fp)
static ALT_INLINE int ALT_ALWAYS_INLINE alt_irq_disable (alt_u32 id)
{
  alt_irq_context  status;
  extern volatile alt_u32 alt_irq_active;

  status = alt_irq_disable_all ();
   4c17c:	e0bffc15 	stw	r2,-16(fp)

  alt_irq_active &= ~(1 << id);
   4c180:	e0bffa17 	ldw	r2,-24(fp)
   4c184:	00c00044 	movi	r3,1
   4c188:	1884983a 	sll	r2,r3,r2
   4c18c:	0084303a 	nor	r2,zero,r2
   4c190:	1007883a 	mov	r3,r2
   4c194:	00800174 	movhi	r2,5
   4c198:	1082f204 	addi	r2,r2,3016
   4c19c:	10800017 	ldw	r2,0(r2)
   4c1a0:	1886703a 	and	r3,r3,r2
   4c1a4:	00800174 	movhi	r2,5
   4c1a8:	1082f204 	addi	r2,r2,3016
   4c1ac:	10c00015 	stw	r3,0(r2)
  NIOS2_WRITE_IENABLE (alt_irq_active);
   4c1b0:	00800174 	movhi	r2,5
   4c1b4:	1082f204 	addi	r2,r2,3016
   4c1b8:	10800017 	ldw	r2,0(r2)
   4c1bc:	100170fa 	wrctl	ienable,r2
   4c1c0:	e0bffc17 	ldw	r2,-16(fp)
   4c1c4:	e0bffd15 	stw	r2,-12(fp)
  status &= ~NIOS2_STATUS_PIE_MSK;
  status |= (context & NIOS2_STATUS_PIE_MSK);
  
  NIOS2_WRITE_STATUS (status);
#else
  NIOS2_WRITE_STATUS (context);
   4c1c8:	e0bffd17 	ldw	r2,-12(fp)
   4c1cc:	1001703a 	wrctl	status,r2

  alt_irq_enable_all(status);

  return 0;
   4c1d0:	0005883a 	mov	r2,zero
    return alt_irq_disable(irq);
}
   4c1d4:	e037883a 	mov	sp,fp
   4c1d8:	df000017 	ldw	fp,0(sp)
   4c1dc:	dec00104 	addi	sp,sp,4
   4c1e0:	f800283a 	ret

0004c1e4 <alt_ic_irq_enabled>:
  * @param irq              IRQ number
  * @return                 Zero if corresponding interrupt is disabled and
  *                         non-zero otherwise.
  */
alt_u32 alt_ic_irq_enabled(alt_u32 ic_id, alt_u32 irq)
{
   4c1e4:	defffc04 	addi	sp,sp,-16
   4c1e8:	df000315 	stw	fp,12(sp)
   4c1ec:	df000304 	addi	fp,sp,12
   4c1f0:	e13ffe15 	stw	r4,-8(fp)
   4c1f4:	e17fff15 	stw	r5,-4(fp)
    alt_u32 irq_enabled;

    NIOS2_READ_IENABLE(irq_enabled);
   4c1f8:	000530fa 	rdctl	r2,ienable
   4c1fc:	e0bffd15 	stw	r2,-12(fp)

    return (irq_enabled & (1 << irq)) ? 1: 0;
   4c200:	e0bfff17 	ldw	r2,-4(fp)
   4c204:	00c00044 	movi	r3,1
   4c208:	1884983a 	sll	r2,r3,r2
   4c20c:	1007883a 	mov	r3,r2
   4c210:	e0bffd17 	ldw	r2,-12(fp)
   4c214:	1884703a 	and	r2,r3,r2
   4c218:	1004c03a 	cmpne	r2,r2,zero
   4c21c:	10803fcc 	andi	r2,r2,255
}
   4c220:	e037883a 	mov	sp,fp
   4c224:	df000017 	ldw	fp,0(sp)
   4c228:	dec00104 	addi	sp,sp,4
   4c22c:	f800283a 	ret

0004c230 <alt_iic_isr_register>:
  * @param flags            
  * @return                 0 if successful, else error (-1)
  */
int alt_iic_isr_register(alt_u32 ic_id, alt_u32 irq, alt_isr_func isr, 
  void *isr_context, void *flags)
{
   4c230:	defff504 	addi	sp,sp,-44
   4c234:	dfc00a15 	stw	ra,40(sp)
   4c238:	df000915 	stw	fp,36(sp)
   4c23c:	df000904 	addi	fp,sp,36
   4c240:	e13ffc15 	stw	r4,-16(fp)
   4c244:	e17ffd15 	stw	r5,-12(fp)
   4c248:	e1bffe15 	stw	r6,-8(fp)
   4c24c:	e1ffff15 	stw	r7,-4(fp)
  int rc = -EINVAL;  
   4c250:	00bffa84 	movi	r2,-22
   4c254:	e0bff715 	stw	r2,-36(fp)
  int id = irq;             /* IRQ interpreted as the interrupt ID. */
   4c258:	e0bffd17 	ldw	r2,-12(fp)
   4c25c:	e0bff815 	stw	r2,-32(fp)
  alt_irq_context status;

  if (id < ALT_NIRQ)
   4c260:	e0bff817 	ldw	r2,-32(fp)
   4c264:	10800808 	cmpgei	r2,r2,32
   4c268:	1000271e 	bne	r2,zero,4c308 <alt_iic_isr_register+0xd8>
static ALT_INLINE alt_irq_context ALT_ALWAYS_INLINE 
       alt_irq_disable_all (void)
{
  alt_irq_context context;

  NIOS2_READ_STATUS (context);
   4c26c:	0005303a 	rdctl	r2,status
   4c270:	e0bffa15 	stw	r2,-24(fp)

  NIOS2_WRITE_STATUS (context & ~NIOS2_STATUS_PIE_MSK);
   4c274:	e0fffa17 	ldw	r3,-24(fp)
   4c278:	00bfff84 	movi	r2,-2
   4c27c:	1884703a 	and	r2,r3,r2
   4c280:	1001703a 	wrctl	status,r2
  
  return context;
   4c284:	e0bffa17 	ldw	r2,-24(fp)
     * interrupts are disabled while the handler tables are updated to ensure
     * that an interrupt doesn't occur while the tables are in an inconsistant
     * state.
     */

    status = alt_irq_disable_all();
   4c288:	e0bff915 	stw	r2,-28(fp)

    alt_irq[id].handler = isr;
   4c28c:	00c00174 	movhi	r3,5
   4c290:	18cbff04 	addi	r3,r3,12284
   4c294:	e0bff817 	ldw	r2,-32(fp)
   4c298:	100490fa 	slli	r2,r2,3
   4c29c:	1885883a 	add	r2,r3,r2
   4c2a0:	e0fffe17 	ldw	r3,-8(fp)
   4c2a4:	10c00015 	stw	r3,0(r2)
    alt_irq[id].context = isr_context;
   4c2a8:	00c00174 	movhi	r3,5
   4c2ac:	18cbff04 	addi	r3,r3,12284
   4c2b0:	e0bff817 	ldw	r2,-32(fp)
   4c2b4:	100490fa 	slli	r2,r2,3
   4c2b8:	1885883a 	add	r2,r3,r2
   4c2bc:	10800104 	addi	r2,r2,4
   4c2c0:	e0ffff17 	ldw	r3,-4(fp)
   4c2c4:	10c00015 	stw	r3,0(r2)

    rc = (isr) ? alt_ic_irq_enable(ic_id, id) : alt_ic_irq_disable(ic_id, id);
   4c2c8:	e0bffe17 	ldw	r2,-8(fp)
   4c2cc:	10000526 	beq	r2,zero,4c2e4 <alt_iic_isr_register+0xb4>
   4c2d0:	e0bff817 	ldw	r2,-32(fp)
   4c2d4:	e13ffc17 	ldw	r4,-16(fp)
   4c2d8:	100b883a 	mov	r5,r2
   4c2dc:	004c0a80 	call	4c0a8 <alt_ic_irq_enable>
   4c2e0:	00000406 	br	4c2f4 <alt_iic_isr_register+0xc4>
   4c2e4:	e0bff817 	ldw	r2,-32(fp)
   4c2e8:	e13ffc17 	ldw	r4,-16(fp)
   4c2ec:	100b883a 	mov	r5,r2
   4c2f0:	004c1440 	call	4c144 <alt_ic_irq_disable>
   4c2f4:	e0bff715 	stw	r2,-36(fp)
   4c2f8:	e0bff917 	ldw	r2,-28(fp)
   4c2fc:	e0bffb15 	stw	r2,-20(fp)
  status &= ~NIOS2_STATUS_PIE_MSK;
  status |= (context & NIOS2_STATUS_PIE_MSK);
  
  NIOS2_WRITE_STATUS (status);
#else
  NIOS2_WRITE_STATUS (context);
   4c300:	e0bffb17 	ldw	r2,-20(fp)
   4c304:	1001703a 	wrctl	status,r2

    alt_irq_enable_all(status);
  }

  return rc; 
   4c308:	e0bff717 	ldw	r2,-36(fp)
}
   4c30c:	e037883a 	mov	sp,fp
   4c310:	dfc00117 	ldw	ra,4(sp)
   4c314:	df000017 	ldw	fp,0(sp)
   4c318:	dec00204 	addi	sp,sp,8
   4c31c:	f800283a 	ret

0004c320 <alt_open_fd>:
 * If the device can not be succesfully opened, then the input file descriptor
 * remains unchanged.
 */

static void alt_open_fd(alt_fd* fd, const char* name, int flags, int mode)
{
   4c320:	defff804 	addi	sp,sp,-32
   4c324:	dfc00715 	stw	ra,28(sp)
   4c328:	df000615 	stw	fp,24(sp)
   4c32c:	dc000515 	stw	r16,20(sp)
   4c330:	df000504 	addi	fp,sp,20
   4c334:	e13ffc15 	stw	r4,-16(fp)
   4c338:	e17ffd15 	stw	r5,-12(fp)
   4c33c:	e1bffe15 	stw	r6,-8(fp)
   4c340:	e1ffff15 	stw	r7,-4(fp)
  int old;

  old = open (name, flags, mode);
   4c344:	e13ffd17 	ldw	r4,-12(fp)
   4c348:	e17ffe17 	ldw	r5,-8(fp)
   4c34c:	e1bfff17 	ldw	r6,-4(fp)
   4c350:	004c5b80 	call	4c5b8 <open>
   4c354:	e0bffb15 	stw	r2,-20(fp)

  if (old >= 0)
   4c358:	e0bffb17 	ldw	r2,-20(fp)
   4c35c:	10002216 	blt	r2,zero,4c3e8 <alt_open_fd+0xc8>
  {
    fd->dev      = alt_fd_list[old].dev;
   4c360:	04000174 	movhi	r16,5
   4c364:	8437c904 	addi	r16,r16,-8412
   4c368:	e0bffb17 	ldw	r2,-20(fp)
   4c36c:	1009883a 	mov	r4,r2
   4c370:	01400304 	movi	r5,12
   4c374:	0040e000 	call	40e00 <__mulsi3>
   4c378:	8085883a 	add	r2,r16,r2
   4c37c:	10c00017 	ldw	r3,0(r2)
   4c380:	e0bffc17 	ldw	r2,-16(fp)
   4c384:	10c00015 	stw	r3,0(r2)
    fd->priv     = alt_fd_list[old].priv;
   4c388:	04000174 	movhi	r16,5
   4c38c:	8437c904 	addi	r16,r16,-8412
   4c390:	e0bffb17 	ldw	r2,-20(fp)
   4c394:	1009883a 	mov	r4,r2
   4c398:	01400304 	movi	r5,12
   4c39c:	0040e000 	call	40e00 <__mulsi3>
   4c3a0:	8085883a 	add	r2,r16,r2
   4c3a4:	10800104 	addi	r2,r2,4
   4c3a8:	10c00017 	ldw	r3,0(r2)
   4c3ac:	e0bffc17 	ldw	r2,-16(fp)
   4c3b0:	10c00115 	stw	r3,4(r2)
    fd->fd_flags = alt_fd_list[old].fd_flags;
   4c3b4:	04000174 	movhi	r16,5
   4c3b8:	8437c904 	addi	r16,r16,-8412
   4c3bc:	e0bffb17 	ldw	r2,-20(fp)
   4c3c0:	1009883a 	mov	r4,r2
   4c3c4:	01400304 	movi	r5,12
   4c3c8:	0040e000 	call	40e00 <__mulsi3>
   4c3cc:	8085883a 	add	r2,r16,r2
   4c3d0:	10800204 	addi	r2,r2,8
   4c3d4:	10c00017 	ldw	r3,0(r2)
   4c3d8:	e0bffc17 	ldw	r2,-16(fp)
   4c3dc:	10c00215 	stw	r3,8(r2)

    alt_release_fd (old);
   4c3e0:	e13ffb17 	ldw	r4,-20(fp)
   4c3e4:	004ad280 	call	4ad28 <alt_release_fd>
  }
} 
   4c3e8:	e037883a 	mov	sp,fp
   4c3ec:	dfc00217 	ldw	ra,8(sp)
   4c3f0:	df000117 	ldw	fp,4(sp)
   4c3f4:	dc000017 	ldw	r16,0(sp)
   4c3f8:	dec00304 	addi	sp,sp,12
   4c3fc:	f800283a 	ret

0004c400 <alt_io_redirect>:
 */
 
void alt_io_redirect(const char* stdout_dev, 
                     const char* stdin_dev, 
                     const char* stderr_dev)
{
   4c400:	defffb04 	addi	sp,sp,-20
   4c404:	dfc00415 	stw	ra,16(sp)
   4c408:	df000315 	stw	fp,12(sp)
   4c40c:	df000304 	addi	fp,sp,12
   4c410:	e13ffd15 	stw	r4,-12(fp)
   4c414:	e17ffe15 	stw	r5,-8(fp)
   4c418:	e1bfff15 	stw	r6,-4(fp)
  /* Redirect the channels */

  alt_open_fd (&alt_fd_list[STDOUT_FILENO], stdout_dev, O_WRONLY, 0777);
   4c41c:	01000174 	movhi	r4,5
   4c420:	2137cc04 	addi	r4,r4,-8400
   4c424:	e17ffd17 	ldw	r5,-12(fp)
   4c428:	01800044 	movi	r6,1
   4c42c:	01c07fc4 	movi	r7,511
   4c430:	004c3200 	call	4c320 <alt_open_fd>
  alt_open_fd (&alt_fd_list[STDIN_FILENO], stdin_dev, O_RDONLY, 0777);
   4c434:	01000174 	movhi	r4,5
   4c438:	2137c904 	addi	r4,r4,-8412
   4c43c:	e17ffe17 	ldw	r5,-8(fp)
   4c440:	000d883a 	mov	r6,zero
   4c444:	01c07fc4 	movi	r7,511
   4c448:	004c3200 	call	4c320 <alt_open_fd>
  alt_open_fd (&alt_fd_list[STDERR_FILENO], stderr_dev, O_WRONLY, 0777);
   4c44c:	01000174 	movhi	r4,5
   4c450:	2137cf04 	addi	r4,r4,-8388
   4c454:	e17fff17 	ldw	r5,-4(fp)
   4c458:	01800044 	movi	r6,1
   4c45c:	01c07fc4 	movi	r7,511
   4c460:	004c3200 	call	4c320 <alt_open_fd>
}  
   4c464:	e037883a 	mov	sp,fp
   4c468:	dfc00117 	ldw	ra,4(sp)
   4c46c:	df000017 	ldw	fp,0(sp)
   4c470:	dec00204 	addi	sp,sp,8
   4c474:	f800283a 	ret

0004c478 <alt_get_errno>:
#undef errno

extern int errno;

static ALT_INLINE int* alt_get_errno(void)
{
   4c478:	defffe04 	addi	sp,sp,-8
   4c47c:	dfc00115 	stw	ra,4(sp)
   4c480:	df000015 	stw	fp,0(sp)
   4c484:	d839883a 	mov	fp,sp
  return ((alt_errno) ? alt_errno() : &errno);
   4c488:	00800174 	movhi	r2,5
   4c48c:	10bc4b04 	addi	r2,r2,-3796
   4c490:	10800017 	ldw	r2,0(r2)
   4c494:	10000526 	beq	r2,zero,4c4ac <alt_get_errno+0x34>
   4c498:	00800174 	movhi	r2,5
   4c49c:	10bc4b04 	addi	r2,r2,-3796
   4c4a0:	10800017 	ldw	r2,0(r2)
   4c4a4:	103ee83a 	callr	r2
   4c4a8:	00000206 	br	4c4b4 <alt_get_errno+0x3c>
   4c4ac:	00800174 	movhi	r2,5
   4c4b0:	1082ec04 	addi	r2,r2,2992
}
   4c4b4:	e037883a 	mov	sp,fp
   4c4b8:	dfc00117 	ldw	ra,4(sp)
   4c4bc:	df000017 	ldw	fp,0(sp)
   4c4c0:	dec00204 	addi	sp,sp,8
   4c4c4:	f800283a 	ret

0004c4c8 <alt_file_locked>:
 * performed for devices. Filesystems are required to handle the ioctl() call
 * themselves, and report the error from the filesystems open() function. 
 */ 

static int alt_file_locked (alt_fd* fd)
{
   4c4c8:	defffb04 	addi	sp,sp,-20
   4c4cc:	dfc00415 	stw	ra,16(sp)
   4c4d0:	df000315 	stw	fp,12(sp)
   4c4d4:	dc000215 	stw	r16,8(sp)
   4c4d8:	df000204 	addi	fp,sp,8
   4c4dc:	e13fff15 	stw	r4,-4(fp)

  /*
   * Mark the file descriptor as belonging to a device.
   */

  fd->fd_flags |= ALT_FD_DEV;
   4c4e0:	e0bfff17 	ldw	r2,-4(fp)
   4c4e4:	10800217 	ldw	r2,8(r2)
   4c4e8:	10d00034 	orhi	r3,r2,16384
   4c4ec:	e0bfff17 	ldw	r2,-4(fp)
   4c4f0:	10c00215 	stw	r3,8(r2)
  /*
   * Loop through all current file descriptors searching for one that's locked
   * for exclusive access. If a match is found, generate an error.
   */

  for (i = 0; i <= alt_max_fd; i++)
   4c4f4:	e03ffe15 	stw	zero,-8(fp)
   4c4f8:	00002206 	br	4c584 <alt_file_locked+0xbc>
  {
    if ((alt_fd_list[i].dev == fd->dev) &&
   4c4fc:	04000174 	movhi	r16,5
   4c500:	8437c904 	addi	r16,r16,-8412
   4c504:	e0bffe17 	ldw	r2,-8(fp)
   4c508:	1009883a 	mov	r4,r2
   4c50c:	01400304 	movi	r5,12
   4c510:	0040e000 	call	40e00 <__mulsi3>
   4c514:	8085883a 	add	r2,r16,r2
   4c518:	10c00017 	ldw	r3,0(r2)
   4c51c:	e0bfff17 	ldw	r2,-4(fp)
   4c520:	10800017 	ldw	r2,0(r2)
   4c524:	1880141e 	bne	r3,r2,4c578 <alt_file_locked+0xb0>
        (alt_fd_list[i].fd_flags & ALT_FD_EXCL) &&
   4c528:	04000174 	movhi	r16,5
   4c52c:	8437c904 	addi	r16,r16,-8412
   4c530:	e0bffe17 	ldw	r2,-8(fp)
   4c534:	1009883a 	mov	r4,r2
   4c538:	01400304 	movi	r5,12
   4c53c:	0040e000 	call	40e00 <__mulsi3>
   4c540:	8085883a 	add	r2,r16,r2
   4c544:	10800204 	addi	r2,r2,8
   4c548:	10800017 	ldw	r2,0(r2)
   * for exclusive access. If a match is found, generate an error.
   */

  for (i = 0; i <= alt_max_fd; i++)
  {
    if ((alt_fd_list[i].dev == fd->dev) &&
   4c54c:	10000a0e 	bge	r2,zero,4c578 <alt_file_locked+0xb0>
        (alt_fd_list[i].fd_flags & ALT_FD_EXCL) &&
        (&alt_fd_list[i] != fd))
   4c550:	e13ffe17 	ldw	r4,-8(fp)
   4c554:	01400304 	movi	r5,12
   4c558:	0040e000 	call	40e00 <__mulsi3>
   4c55c:	00c00174 	movhi	r3,5
   4c560:	18f7c904 	addi	r3,r3,-8412
   4c564:	10c7883a 	add	r3,r2,r3
   */

  for (i = 0; i <= alt_max_fd; i++)
  {
    if ((alt_fd_list[i].dev == fd->dev) &&
        (alt_fd_list[i].fd_flags & ALT_FD_EXCL) &&
   4c568:	e0bfff17 	ldw	r2,-4(fp)
   4c56c:	18800226 	beq	r3,r2,4c578 <alt_file_locked+0xb0>
        (&alt_fd_list[i] != fd))
    {
      return -EACCES;
   4c570:	00bffcc4 	movi	r2,-13
   4c574:	00000a06 	br	4c5a0 <alt_file_locked+0xd8>
  /*
   * Loop through all current file descriptors searching for one that's locked
   * for exclusive access. If a match is found, generate an error.
   */

  for (i = 0; i <= alt_max_fd; i++)
   4c578:	e0bffe17 	ldw	r2,-8(fp)
   4c57c:	10800044 	addi	r2,r2,1
   4c580:	e0bffe15 	stw	r2,-8(fp)
   4c584:	00800174 	movhi	r2,5
   4c588:	10bc4a04 	addi	r2,r2,-3800
   4c58c:	10800017 	ldw	r2,0(r2)
   4c590:	1007883a 	mov	r3,r2
   4c594:	e0bffe17 	ldw	r2,-8(fp)
   4c598:	18bfd82e 	bgeu	r3,r2,4c4fc <alt_file_locked+0x34>
    }
  }
  
  /* The device is not locked */
 
  return 0;
   4c59c:	0005883a 	mov	r2,zero
}
   4c5a0:	e037883a 	mov	sp,fp
   4c5a4:	dfc00217 	ldw	ra,8(sp)
   4c5a8:	df000117 	ldw	fp,4(sp)
   4c5ac:	dc000017 	ldw	r16,0(sp)
   4c5b0:	dec00304 	addi	sp,sp,12
   4c5b4:	f800283a 	ret

0004c5b8 <open>:
 *
 * ALT_OPEN is mapped onto the open() system call in alt_syscall.h
 */
 
int ALT_OPEN (const char* file, int flags, int mode)
{ 
   4c5b8:	defff604 	addi	sp,sp,-40
   4c5bc:	dfc00915 	stw	ra,36(sp)
   4c5c0:	df000815 	stw	fp,32(sp)
   4c5c4:	df000804 	addi	fp,sp,32
   4c5c8:	e13ffd15 	stw	r4,-12(fp)
   4c5cc:	e17ffe15 	stw	r5,-8(fp)
   4c5d0:	e1bfff15 	stw	r6,-4(fp)
  alt_dev* dev;
  alt_fd*  fd;
  int index  = -1;
   4c5d4:	00bfffc4 	movi	r2,-1
   4c5d8:	e0bff915 	stw	r2,-28(fp)
  int status = -ENODEV;
   4c5dc:	00bffb44 	movi	r2,-19
   4c5e0:	e0bffa15 	stw	r2,-24(fp)
  int isafs = 0;
   4c5e4:	e03ffb15 	stw	zero,-20(fp)
  /* 
   * Check the device list, to see if a device with a matching name is 
   * registered.
   */
  
  if (!(dev = alt_find_dev (file, &alt_dev_list)))
   4c5e8:	e13ffd17 	ldw	r4,-12(fp)
   4c5ec:	01400174 	movhi	r5,5
   4c5f0:	297c4804 	addi	r5,r5,-3808
   4c5f4:	004c8cc0 	call	4c8cc <alt_find_dev>
   4c5f8:	e0bff815 	stw	r2,-32(fp)
   4c5fc:	e0bff817 	ldw	r2,-32(fp)
   4c600:	1000051e 	bne	r2,zero,4c618 <open+0x60>
  {
    /* No matching device, so try the filesystem list */

    dev   = alt_find_file (file);
   4c604:	e13ffd17 	ldw	r4,-12(fp)
   4c608:	004c95c0 	call	4c95c <alt_find_file>
   4c60c:	e0bff815 	stw	r2,-32(fp)
    isafs = 1;
   4c610:	00800044 	movi	r2,1
   4c614:	e0bffb15 	stw	r2,-20(fp)

  /* 
   * If a matching device or filesystem is found, allocate a file descriptor. 
   */

  if (dev)
   4c618:	e0bff817 	ldw	r2,-32(fp)
   4c61c:	10002a26 	beq	r2,zero,4c6c8 <open+0x110>
  {
    if ((index = alt_get_fd (dev)) < 0)
   4c620:	e13ff817 	ldw	r4,-32(fp)
   4c624:	004ca700 	call	4ca70 <alt_get_fd>
   4c628:	e0bff915 	stw	r2,-28(fp)
   4c62c:	e0bff917 	ldw	r2,-28(fp)
   4c630:	1000030e 	bge	r2,zero,4c640 <open+0x88>
    {
      status = index;
   4c634:	e0bff917 	ldw	r2,-28(fp)
   4c638:	e0bffa15 	stw	r2,-24(fp)
   4c63c:	00002406 	br	4c6d0 <open+0x118>
    }
    else
    {
      fd = &alt_fd_list[index];
   4c640:	e13ff917 	ldw	r4,-28(fp)
   4c644:	01400304 	movi	r5,12
   4c648:	0040e000 	call	40e00 <__mulsi3>
   4c64c:	00c00174 	movhi	r3,5
   4c650:	18f7c904 	addi	r3,r3,-8412
   4c654:	10c5883a 	add	r2,r2,r3
   4c658:	e0bffc15 	stw	r2,-16(fp)
      fd->fd_flags = (flags & ~ALT_FD_FLAGS_MASK);
   4c65c:	e0fffe17 	ldw	r3,-8(fp)
   4c660:	00900034 	movhi	r2,16384
   4c664:	10bfffc4 	addi	r2,r2,-1
   4c668:	1886703a 	and	r3,r3,r2
   4c66c:	e0bffc17 	ldw	r2,-16(fp)
   4c670:	10c00215 	stw	r3,8(r2)
      
      /* If this is a device, ensure it isn't already locked */

      if (isafs || ((status = alt_file_locked (fd)) >= 0))
   4c674:	e0bffb17 	ldw	r2,-20(fp)
   4c678:	1000051e 	bne	r2,zero,4c690 <open+0xd8>
   4c67c:	e13ffc17 	ldw	r4,-16(fp)
   4c680:	004c4c80 	call	4c4c8 <alt_file_locked>
   4c684:	e0bffa15 	stw	r2,-24(fp)
   4c688:	e0bffa17 	ldw	r2,-24(fp)
   4c68c:	10001016 	blt	r2,zero,4c6d0 <open+0x118>
        /* 
         * If the device or filesystem provides an open() callback function,
         * call it now to perform any device/filesystem specific operations.
         */
    
        status = (dev->open) ? dev->open(fd, file, flags, mode): 0;
   4c690:	e0bff817 	ldw	r2,-32(fp)
   4c694:	10800317 	ldw	r2,12(r2)
   4c698:	10000826 	beq	r2,zero,4c6bc <open+0x104>
   4c69c:	e0bff817 	ldw	r2,-32(fp)
   4c6a0:	10800317 	ldw	r2,12(r2)
   4c6a4:	e13ffc17 	ldw	r4,-16(fp)
   4c6a8:	e17ffd17 	ldw	r5,-12(fp)
   4c6ac:	e1bffe17 	ldw	r6,-8(fp)
   4c6b0:	e1ffff17 	ldw	r7,-4(fp)
   4c6b4:	103ee83a 	callr	r2
   4c6b8:	00000106 	br	4c6c0 <open+0x108>
   4c6bc:	0005883a 	mov	r2,zero
   4c6c0:	e0bffa15 	stw	r2,-24(fp)
   4c6c4:	00000206 	br	4c6d0 <open+0x118>
      }
    }
  }
  else
  {
    status = -ENODEV;
   4c6c8:	00bffb44 	movi	r2,-19
   4c6cc:	e0bffa15 	stw	r2,-24(fp)
  }

  /* Allocation failed, so clean up and return an error */ 

  if (status < 0)
   4c6d0:	e0bffa17 	ldw	r2,-24(fp)
   4c6d4:	1000080e 	bge	r2,zero,4c6f8 <open+0x140>
  {
    alt_release_fd (index);  
   4c6d8:	e13ff917 	ldw	r4,-28(fp)
   4c6dc:	004ad280 	call	4ad28 <alt_release_fd>
    ALT_ERRNO = -status;
   4c6e0:	004c4780 	call	4c478 <alt_get_errno>
   4c6e4:	e0fffa17 	ldw	r3,-24(fp)
   4c6e8:	00c7c83a 	sub	r3,zero,r3
   4c6ec:	10c00015 	stw	r3,0(r2)
    return -1;
   4c6f0:	00bfffc4 	movi	r2,-1
   4c6f4:	00000106 	br	4c6fc <open+0x144>
  }
  
  /* return the reference upon success */

  return index;
   4c6f8:	e0bff917 	ldw	r2,-28(fp)
}
   4c6fc:	e037883a 	mov	sp,fp
   4c700:	dfc00117 	ldw	ra,4(sp)
   4c704:	df000017 	ldw	fp,0(sp)
   4c708:	dec00204 	addi	sp,sp,8
   4c70c:	f800283a 	ret

0004c710 <alt_alarm_stop>:
 * alarms. Alternatively an alarm can unregister itself by returning zero when 
 * the alarm executes.
 */

void alt_alarm_stop (alt_alarm* alarm)
{
   4c710:	defffa04 	addi	sp,sp,-24
   4c714:	df000515 	stw	fp,20(sp)
   4c718:	df000504 	addi	fp,sp,20
   4c71c:	e13fff15 	stw	r4,-4(fp)
static ALT_INLINE alt_irq_context ALT_ALWAYS_INLINE 
       alt_irq_disable_all (void)
{
  alt_irq_context context;

  NIOS2_READ_STATUS (context);
   4c720:	0005303a 	rdctl	r2,status
   4c724:	e0bffc15 	stw	r2,-16(fp)

  NIOS2_WRITE_STATUS (context & ~NIOS2_STATUS_PIE_MSK);
   4c728:	e0fffc17 	ldw	r3,-16(fp)
   4c72c:	00bfff84 	movi	r2,-2
   4c730:	1884703a 	and	r2,r3,r2
   4c734:	1001703a 	wrctl	status,r2
  
  return context;
   4c738:	e0bffc17 	ldw	r2,-16(fp)
  alt_irq_context irq_context;

  irq_context = alt_irq_disable_all();
   4c73c:	e0bffb15 	stw	r2,-20(fp)
  alt_llist_remove (&alarm->llist);
   4c740:	e0bfff17 	ldw	r2,-4(fp)
   4c744:	e0bffd15 	stw	r2,-12(fp)
 * input argument is the element to remove.
 */
     
static ALT_INLINE void ALT_ALWAYS_INLINE alt_llist_remove(alt_llist* entry)
{
  entry->next->previous = entry->previous;
   4c748:	e0bffd17 	ldw	r2,-12(fp)
   4c74c:	10800017 	ldw	r2,0(r2)
   4c750:	e0fffd17 	ldw	r3,-12(fp)
   4c754:	18c00117 	ldw	r3,4(r3)
   4c758:	10c00115 	stw	r3,4(r2)
  entry->previous->next = entry->next;
   4c75c:	e0bffd17 	ldw	r2,-12(fp)
   4c760:	10800117 	ldw	r2,4(r2)
   4c764:	e0fffd17 	ldw	r3,-12(fp)
   4c768:	18c00017 	ldw	r3,0(r3)
   4c76c:	10c00015 	stw	r3,0(r2)
  /* 
   * Set the entry to point to itself, so that any further calls to
   * alt_llist_remove() are harmless.
   */

  entry->previous = entry;
   4c770:	e0bffd17 	ldw	r2,-12(fp)
   4c774:	e0fffd17 	ldw	r3,-12(fp)
   4c778:	10c00115 	stw	r3,4(r2)
  entry->next     = entry;
   4c77c:	e0bffd17 	ldw	r2,-12(fp)
   4c780:	e0fffd17 	ldw	r3,-12(fp)
   4c784:	10c00015 	stw	r3,0(r2)
   4c788:	e0bffb17 	ldw	r2,-20(fp)
   4c78c:	e0bffe15 	stw	r2,-8(fp)
  status &= ~NIOS2_STATUS_PIE_MSK;
  status |= (context & NIOS2_STATUS_PIE_MSK);
  
  NIOS2_WRITE_STATUS (status);
#else
  NIOS2_WRITE_STATUS (context);
   4c790:	e0bffe17 	ldw	r2,-8(fp)
   4c794:	1001703a 	wrctl	status,r2
  alt_irq_enable_all (irq_context);
}
   4c798:	e037883a 	mov	sp,fp
   4c79c:	df000017 	ldw	fp,0(sp)
   4c7a0:	dec00104 	addi	sp,sp,4
   4c7a4:	f800283a 	ret

0004c7a8 <alt_tick>:
 * 
 * alt_tick() is expected to run at interrupt level.
 */

void alt_tick (void)
{
   4c7a8:	defffb04 	addi	sp,sp,-20
   4c7ac:	dfc00415 	stw	ra,16(sp)
   4c7b0:	df000315 	stw	fp,12(sp)
   4c7b4:	df000304 	addi	fp,sp,12
  alt_alarm* next;
  alt_alarm* alarm = (alt_alarm*) alt_alarm_list.next;
   4c7b8:	d0a00d17 	ldw	r2,-32716(gp)
   4c7bc:	e0bffd15 	stw	r2,-12(fp)

  alt_u32    next_callback;

  /* update the tick counter */

  _alt_nticks++;
   4c7c0:	d0a6b317 	ldw	r2,-25908(gp)
   4c7c4:	10800044 	addi	r2,r2,1
   4c7c8:	d0a6b315 	stw	r2,-25908(gp)

  /* process the registered callbacks */

  while (alarm != (alt_alarm*) &alt_alarm_list)
   4c7cc:	00002e06 	br	4c888 <alt_tick+0xe0>
  {
    next = (alt_alarm*) alarm->llist.next;
   4c7d0:	e0bffd17 	ldw	r2,-12(fp)
   4c7d4:	10800017 	ldw	r2,0(r2)
   4c7d8:	e0bffe15 	stw	r2,-8(fp)
    /* 
     * Upon the tick-counter rolling over it is safe to clear the 
     * roll-over flag; once the flag is cleared this (or subsequnt)
     * tick events are enabled to generate an alarm event. 
     */
    if ((alarm->rollover) && (_alt_nticks == 0))
   4c7dc:	e0bffd17 	ldw	r2,-12(fp)
   4c7e0:	10800403 	ldbu	r2,16(r2)
   4c7e4:	10803fcc 	andi	r2,r2,255
   4c7e8:	10000426 	beq	r2,zero,4c7fc <alt_tick+0x54>
   4c7ec:	d0a6b317 	ldw	r2,-25908(gp)
   4c7f0:	1000021e 	bne	r2,zero,4c7fc <alt_tick+0x54>
    {
      alarm->rollover = 0;
   4c7f4:	e0bffd17 	ldw	r2,-12(fp)
   4c7f8:	10000405 	stb	zero,16(r2)
    }
    
    /* if the alarm period has expired, make the callback */    
    if ((alarm->time <= _alt_nticks) && (alarm->rollover == 0))
   4c7fc:	e0bffd17 	ldw	r2,-12(fp)
   4c800:	10800217 	ldw	r2,8(r2)
   4c804:	d0e6b317 	ldw	r3,-25908(gp)
   4c808:	18801d36 	bltu	r3,r2,4c880 <alt_tick+0xd8>
   4c80c:	e0bffd17 	ldw	r2,-12(fp)
   4c810:	10800403 	ldbu	r2,16(r2)
   4c814:	10803fcc 	andi	r2,r2,255
   4c818:	1000191e 	bne	r2,zero,4c880 <alt_tick+0xd8>
    {
      next_callback = alarm->callback (alarm->context);
   4c81c:	e0bffd17 	ldw	r2,-12(fp)
   4c820:	10c00317 	ldw	r3,12(r2)
   4c824:	e0bffd17 	ldw	r2,-12(fp)
   4c828:	10800517 	ldw	r2,20(r2)
   4c82c:	1009883a 	mov	r4,r2
   4c830:	183ee83a 	callr	r3
   4c834:	e0bfff15 	stw	r2,-4(fp)

      /* deactivate the alarm if the return value is zero */

      if (next_callback == 0)
   4c838:	e0bfff17 	ldw	r2,-4(fp)
   4c83c:	1000031e 	bne	r2,zero,4c84c <alt_tick+0xa4>
      {
        alt_alarm_stop (alarm);
   4c840:	e13ffd17 	ldw	r4,-12(fp)
   4c844:	004c7100 	call	4c710 <alt_alarm_stop>
   4c848:	00000d06 	br	4c880 <alt_tick+0xd8>
      }
      else
      {
        alarm->time += next_callback;
   4c84c:	e0bffd17 	ldw	r2,-12(fp)
   4c850:	10c00217 	ldw	r3,8(r2)
   4c854:	e0bfff17 	ldw	r2,-4(fp)
   4c858:	1887883a 	add	r3,r3,r2
   4c85c:	e0bffd17 	ldw	r2,-12(fp)
   4c860:	10c00215 	stw	r3,8(r2)
        /* 
         * If the desired alarm time causes a roll-over, set the rollover
         * flag. This will prevent the subsequent tick event from causing
         * an alarm too early.
         */
        if(alarm->time < _alt_nticks)
   4c864:	e0bffd17 	ldw	r2,-12(fp)
   4c868:	10c00217 	ldw	r3,8(r2)
   4c86c:	d0a6b317 	ldw	r2,-25908(gp)
   4c870:	1880032e 	bgeu	r3,r2,4c880 <alt_tick+0xd8>
        {
          alarm->rollover = 1;
   4c874:	e0bffd17 	ldw	r2,-12(fp)
   4c878:	00c00044 	movi	r3,1
   4c87c:	10c00405 	stb	r3,16(r2)
        }
      }
    }
    alarm = next;
   4c880:	e0bffe17 	ldw	r2,-8(fp)
   4c884:	e0bffd15 	stw	r2,-12(fp)

  _alt_nticks++;

  /* process the registered callbacks */

  while (alarm != (alt_alarm*) &alt_alarm_list)
   4c888:	e0fffd17 	ldw	r3,-12(fp)
   4c88c:	d0a00d04 	addi	r2,gp,-32716
   4c890:	18bfcf1e 	bne	r3,r2,4c7d0 <alt_tick+0x28>

  /* 
   * Update the operating system specific timer facilities.
   */

  ALT_OS_TIME_TICK();
   4c894:	0001883a 	nop
}
   4c898:	e037883a 	mov	sp,fp
   4c89c:	dfc00117 	ldw	ra,4(sp)
   4c8a0:	df000017 	ldw	fp,0(sp)
   4c8a4:	dec00204 	addi	sp,sp,8
   4c8a8:	f800283a 	ret

0004c8ac <altera_nios2_qsys_irq_init>:
/*
 * To initialize the internal interrupt controller, just clear the IENABLE
 * register so that all possible IRQs are disabled.
 */
void altera_nios2_qsys_irq_init(void) 
{
   4c8ac:	deffff04 	addi	sp,sp,-4
   4c8b0:	df000015 	stw	fp,0(sp)
   4c8b4:	d839883a 	mov	fp,sp
    NIOS2_WRITE_IENABLE(0);
   4c8b8:	000170fa 	wrctl	ienable,zero
}
   4c8bc:	e037883a 	mov	sp,fp
   4c8c0:	df000017 	ldw	fp,0(sp)
   4c8c4:	dec00104 	addi	sp,sp,4
   4c8c8:	f800283a 	ret

0004c8cc <alt_find_dev>:
 * "name" must be an exact match for the devices registered name for a match to
 * be found.
 */
 
alt_dev* alt_find_dev(const char* name, alt_llist* llist)
{
   4c8cc:	defffa04 	addi	sp,sp,-24
   4c8d0:	dfc00515 	stw	ra,20(sp)
   4c8d4:	df000415 	stw	fp,16(sp)
   4c8d8:	df000404 	addi	fp,sp,16
   4c8dc:	e13ffe15 	stw	r4,-8(fp)
   4c8e0:	e17fff15 	stw	r5,-4(fp)
  alt_dev* next = (alt_dev*) llist->next;
   4c8e4:	e0bfff17 	ldw	r2,-4(fp)
   4c8e8:	10800017 	ldw	r2,0(r2)
   4c8ec:	e0bffc15 	stw	r2,-16(fp)
  alt_32 len;

  len  = strlen(name) + 1;
   4c8f0:	e13ffe17 	ldw	r4,-8(fp)
   4c8f4:	0040f600 	call	40f60 <strlen>
   4c8f8:	10800044 	addi	r2,r2,1
   4c8fc:	e0bffd15 	stw	r2,-12(fp)
  /*
   * Check each list entry in turn, until a match is found, or we reach the
   * end of the list (i.e. next winds up pointing back to the list head).
   */ 

  while (next != (alt_dev*) llist)
   4c900:	00000d06 	br	4c938 <alt_find_dev+0x6c>
    /* 
     * memcmp() is used here rather than strcmp() in order to reduce the size
     * of the executable.
     */

    if (!memcmp (next->name, name, len))
   4c904:	e0bffc17 	ldw	r2,-16(fp)
   4c908:	10c00217 	ldw	r3,8(r2)
   4c90c:	e0bffd17 	ldw	r2,-12(fp)
   4c910:	1809883a 	mov	r4,r3
   4c914:	e17ffe17 	ldw	r5,-8(fp)
   4c918:	100d883a 	mov	r6,r2
   4c91c:	004cbe40 	call	4cbe4 <memcmp>
   4c920:	1000021e 	bne	r2,zero,4c92c <alt_find_dev+0x60>
    {
      /* match found */

      return next;
   4c924:	e0bffc17 	ldw	r2,-16(fp)
   4c928:	00000706 	br	4c948 <alt_find_dev+0x7c>
    }
    next = (alt_dev*) next->llist.next;
   4c92c:	e0bffc17 	ldw	r2,-16(fp)
   4c930:	10800017 	ldw	r2,0(r2)
   4c934:	e0bffc15 	stw	r2,-16(fp)
  /*
   * Check each list entry in turn, until a match is found, or we reach the
   * end of the list (i.e. next winds up pointing back to the list head).
   */ 

  while (next != (alt_dev*) llist)
   4c938:	e0fffc17 	ldw	r3,-16(fp)
   4c93c:	e0bfff17 	ldw	r2,-4(fp)
   4c940:	18bff01e 	bne	r3,r2,4c904 <alt_find_dev+0x38>
    next = (alt_dev*) next->llist.next;
  }
  
  /* No match found */
  
  return NULL;
   4c944:	0005883a 	mov	r2,zero
}
   4c948:	e037883a 	mov	sp,fp
   4c94c:	dfc00117 	ldw	ra,4(sp)
   4c950:	df000017 	ldw	fp,0(sp)
   4c954:	dec00204 	addi	sp,sp,8
   4c958:	f800283a 	ret

0004c95c <alt_find_file>:
 * either '/' or '\0' is the prefix of the filename. For example the filename:
 * "/myfilesystem/junk.txt" would match: "/myfilesystem", but not: "/myfile". 
 */
 
alt_dev* alt_find_file (const char* name)
{
   4c95c:	defffb04 	addi	sp,sp,-20
   4c960:	dfc00415 	stw	ra,16(sp)
   4c964:	df000315 	stw	fp,12(sp)
   4c968:	df000304 	addi	fp,sp,12
   4c96c:	e13fff15 	stw	r4,-4(fp)
  alt_dev* next = (alt_dev*) alt_fs_list.next;   
   4c970:	00800174 	movhi	r2,5
   4c974:	10bc4604 	addi	r2,r2,-3816
   4c978:	10800017 	ldw	r2,0(r2)
   4c97c:	e0bffd15 	stw	r2,-12(fp)
  /*
   * Check each list entry in turn, until a match is found, or we reach the
   * end of the list (i.e. next winds up pointing back to the list head).
   */ 
 
  while (next != (alt_dev*) &alt_fs_list)
   4c980:	00003106 	br	4ca48 <alt_find_file+0xec>
  {
    len = strlen(next->name);
   4c984:	e0bffd17 	ldw	r2,-12(fp)
   4c988:	10800217 	ldw	r2,8(r2)
   4c98c:	1009883a 	mov	r4,r2
   4c990:	0040f600 	call	40f60 <strlen>
   4c994:	e0bffe15 	stw	r2,-8(fp)
    
    if (next->name[len-1] == '/')
   4c998:	e0bffd17 	ldw	r2,-12(fp)
   4c99c:	10c00217 	ldw	r3,8(r2)
   4c9a0:	e0bffe17 	ldw	r2,-8(fp)
   4c9a4:	10bfffc4 	addi	r2,r2,-1
   4c9a8:	1885883a 	add	r2,r3,r2
   4c9ac:	10800003 	ldbu	r2,0(r2)
   4c9b0:	10803fcc 	andi	r2,r2,255
   4c9b4:	1080201c 	xori	r2,r2,128
   4c9b8:	10bfe004 	addi	r2,r2,-128
   4c9bc:	10800bd8 	cmpnei	r2,r2,47
   4c9c0:	1000031e 	bne	r2,zero,4c9d0 <alt_find_file+0x74>
    {
      len -= 1;
   4c9c4:	e0bffe17 	ldw	r2,-8(fp)
   4c9c8:	10bfffc4 	addi	r2,r2,-1
   4c9cc:	e0bffe15 	stw	r2,-8(fp)
    }

    if (((name[len] == '/') || (name[len] == '\0')) && 
   4c9d0:	e0bffe17 	ldw	r2,-8(fp)
   4c9d4:	e0ffff17 	ldw	r3,-4(fp)
   4c9d8:	1885883a 	add	r2,r3,r2
   4c9dc:	10800003 	ldbu	r2,0(r2)
   4c9e0:	10803fcc 	andi	r2,r2,255
   4c9e4:	1080201c 	xori	r2,r2,128
   4c9e8:	10bfe004 	addi	r2,r2,-128
   4c9ec:	10800be0 	cmpeqi	r2,r2,47
   4c9f0:	1000081e 	bne	r2,zero,4ca14 <alt_find_file+0xb8>
   4c9f4:	e0bffe17 	ldw	r2,-8(fp)
   4c9f8:	e0ffff17 	ldw	r3,-4(fp)
   4c9fc:	1885883a 	add	r2,r3,r2
   4ca00:	10800003 	ldbu	r2,0(r2)
   4ca04:	10803fcc 	andi	r2,r2,255
   4ca08:	1080201c 	xori	r2,r2,128
   4ca0c:	10bfe004 	addi	r2,r2,-128
   4ca10:	10000a1e 	bne	r2,zero,4ca3c <alt_find_file+0xe0>
        !memcmp (next->name, name, len))
   4ca14:	e0bffd17 	ldw	r2,-12(fp)
   4ca18:	10c00217 	ldw	r3,8(r2)
   4ca1c:	e0bffe17 	ldw	r2,-8(fp)
   4ca20:	1809883a 	mov	r4,r3
   4ca24:	e17fff17 	ldw	r5,-4(fp)
   4ca28:	100d883a 	mov	r6,r2
   4ca2c:	004cbe40 	call	4cbe4 <memcmp>
    if (next->name[len-1] == '/')
    {
      len -= 1;
    }

    if (((name[len] == '/') || (name[len] == '\0')) && 
   4ca30:	1000021e 	bne	r2,zero,4ca3c <alt_find_file+0xe0>
        !memcmp (next->name, name, len))
    {
      /* match found */

      return next;
   4ca34:	e0bffd17 	ldw	r2,-12(fp)
   4ca38:	00000806 	br	4ca5c <alt_find_file+0x100>
    }
    next = (alt_dev*) next->llist.next;
   4ca3c:	e0bffd17 	ldw	r2,-12(fp)
   4ca40:	10800017 	ldw	r2,0(r2)
   4ca44:	e0bffd15 	stw	r2,-12(fp)
  /*
   * Check each list entry in turn, until a match is found, or we reach the
   * end of the list (i.e. next winds up pointing back to the list head).
   */ 
 
  while (next != (alt_dev*) &alt_fs_list)
   4ca48:	e0fffd17 	ldw	r3,-12(fp)
   4ca4c:	00800174 	movhi	r2,5
   4ca50:	10bc4604 	addi	r2,r2,-3816
   4ca54:	18bfcb1e 	bne	r3,r2,4c984 <alt_find_file+0x28>
    next = (alt_dev*) next->llist.next;
  }
  
  /* No match found */
  
  return NULL;     
   4ca58:	0005883a 	mov	r2,zero
}
   4ca5c:	e037883a 	mov	sp,fp
   4ca60:	dfc00117 	ldw	ra,4(sp)
   4ca64:	df000017 	ldw	fp,0(sp)
   4ca68:	dec00204 	addi	sp,sp,8
   4ca6c:	f800283a 	ret

0004ca70 <alt_get_fd>:
 * the offset of the file descriptor within the file descriptor array). A
 * negative value indicates failure.
 */

int alt_get_fd (alt_dev* dev)
{
   4ca70:	defffa04 	addi	sp,sp,-24
   4ca74:	dfc00515 	stw	ra,20(sp)
   4ca78:	df000415 	stw	fp,16(sp)
   4ca7c:	dc000315 	stw	r16,12(sp)
   4ca80:	df000304 	addi	fp,sp,12
   4ca84:	e13fff15 	stw	r4,-4(fp)
  alt_32 i;
  int rc = -EMFILE;
   4ca88:	00bffa04 	movi	r2,-24
   4ca8c:	e0bffe15 	stw	r2,-8(fp)
   * indicates the highest file descriptor ever allocated. This is used to
   * improve efficency when searching the file descriptor list, and 
   * therefore reduce contention on the alt_fd_list_lock semaphore. 
   */

  for (i = 0; i < ALT_MAX_FD; i++)
   4ca90:	e03ffd15 	stw	zero,-12(fp)
   4ca94:	00002106 	br	4cb1c <alt_get_fd+0xac>
  {
    if (!alt_fd_list[i].dev)
   4ca98:	04000174 	movhi	r16,5
   4ca9c:	8437c904 	addi	r16,r16,-8412
   4caa0:	e0bffd17 	ldw	r2,-12(fp)
   4caa4:	1009883a 	mov	r4,r2
   4caa8:	01400304 	movi	r5,12
   4caac:	0040e000 	call	40e00 <__mulsi3>
   4cab0:	8085883a 	add	r2,r16,r2
   4cab4:	10800017 	ldw	r2,0(r2)
   4cab8:	1000151e 	bne	r2,zero,4cb10 <alt_get_fd+0xa0>
    {
      alt_fd_list[i].dev = dev;
   4cabc:	04000174 	movhi	r16,5
   4cac0:	8437c904 	addi	r16,r16,-8412
   4cac4:	e0bffd17 	ldw	r2,-12(fp)
   4cac8:	1009883a 	mov	r4,r2
   4cacc:	01400304 	movi	r5,12
   4cad0:	0040e000 	call	40e00 <__mulsi3>
   4cad4:	8085883a 	add	r2,r16,r2
   4cad8:	e0ffff17 	ldw	r3,-4(fp)
   4cadc:	10c00015 	stw	r3,0(r2)
      if (i > alt_max_fd)
   4cae0:	00800174 	movhi	r2,5
   4cae4:	10bc4a04 	addi	r2,r2,-3800
   4cae8:	10c00017 	ldw	r3,0(r2)
   4caec:	e0bffd17 	ldw	r2,-12(fp)
   4caf0:	1880040e 	bge	r3,r2,4cb04 <alt_get_fd+0x94>
      {
        alt_max_fd = i;
   4caf4:	00800174 	movhi	r2,5
   4caf8:	10bc4a04 	addi	r2,r2,-3800
   4cafc:	e0fffd17 	ldw	r3,-12(fp)
   4cb00:	10c00015 	stw	r3,0(r2)
      }
      rc = i;
   4cb04:	e0bffd17 	ldw	r2,-12(fp)
   4cb08:	e0bffe15 	stw	r2,-8(fp)
      goto alt_get_fd_exit;
   4cb0c:	00000606 	br	4cb28 <alt_get_fd+0xb8>
   * indicates the highest file descriptor ever allocated. This is used to
   * improve efficency when searching the file descriptor list, and 
   * therefore reduce contention on the alt_fd_list_lock semaphore. 
   */

  for (i = 0; i < ALT_MAX_FD; i++)
   4cb10:	e0bffd17 	ldw	r2,-12(fp)
   4cb14:	10800044 	addi	r2,r2,1
   4cb18:	e0bffd15 	stw	r2,-12(fp)
   4cb1c:	e0bffd17 	ldw	r2,-12(fp)
   4cb20:	10800810 	cmplti	r2,r2,32
   4cb24:	103fdc1e 	bne	r2,zero,4ca98 <alt_get_fd+0x28>
   * file descriptor pool.
   */

  ALT_SEM_POST(alt_fd_list_lock);

  return rc;
   4cb28:	e0bffe17 	ldw	r2,-8(fp)
}
   4cb2c:	e037883a 	mov	sp,fp
   4cb30:	dfc00217 	ldw	ra,8(sp)
   4cb34:	df000117 	ldw	fp,4(sp)
   4cb38:	dc000017 	ldw	r16,0(sp)
   4cb3c:	dec00304 	addi	sp,sp,12
   4cb40:	f800283a 	ret

0004cb44 <alt_icache_flush>:
 * alt_icache_flush() is called to flush the instruction cache for a memory
 * region of length "len" bytes, starting at address "start".
 */

void alt_icache_flush (void* start, alt_u32 len)
{
   4cb44:	defffb04 	addi	sp,sp,-20
   4cb48:	df000415 	stw	fp,16(sp)
   4cb4c:	df000404 	addi	fp,sp,16
   4cb50:	e13ffe15 	stw	r4,-8(fp)
   4cb54:	e17fff15 	stw	r5,-4(fp)

  /*
   * This is the most we would ever need to flush.
   */
 
  if (len > NIOS2_ICACHE_SIZE)
   4cb58:	e0bfff17 	ldw	r2,-4(fp)
   4cb5c:	10840070 	cmpltui	r2,r2,4097
   4cb60:	1000021e 	bne	r2,zero,4cb6c <alt_icache_flush+0x28>
  {
    len = NIOS2_ICACHE_SIZE;
   4cb64:	00840004 	movi	r2,4096
   4cb68:	e0bfff15 	stw	r2,-4(fp)
  }

  end = ((char*) start) + len;
   4cb6c:	e0fffe17 	ldw	r3,-8(fp)
   4cb70:	e0bfff17 	ldw	r2,-4(fp)
   4cb74:	1885883a 	add	r2,r3,r2
   4cb78:	e0bffd15 	stw	r2,-12(fp)

  for (i = start; i < end; i+= NIOS2_ICACHE_LINE_SIZE)
   4cb7c:	e0bffe17 	ldw	r2,-8(fp)
   4cb80:	e0bffc15 	stw	r2,-16(fp)
   4cb84:	00000506 	br	4cb9c <alt_icache_flush+0x58>
  { 
    __asm__ volatile ("flushi %0" :: "r" (i)); 
   4cb88:	e0bffc17 	ldw	r2,-16(fp)
   4cb8c:	1000603a 	flushi	r2
    len = NIOS2_ICACHE_SIZE;
  }

  end = ((char*) start) + len;

  for (i = start; i < end; i+= NIOS2_ICACHE_LINE_SIZE)
   4cb90:	e0bffc17 	ldw	r2,-16(fp)
   4cb94:	10800804 	addi	r2,r2,32
   4cb98:	e0bffc15 	stw	r2,-16(fp)
   4cb9c:	e0fffc17 	ldw	r3,-16(fp)
   4cba0:	e0bffd17 	ldw	r2,-12(fp)
   4cba4:	18bff836 	bltu	r3,r2,4cb88 <alt_icache_flush+0x44>
   * For an unaligned flush request, we've got one more line left.
   * Note that this is dependent on NIOS2_ICACHE_LINE_SIZE to be a 
   * multiple of 2 (which it always is).
   */

  if (((alt_u32) start) & (NIOS2_ICACHE_LINE_SIZE - 1))
   4cba8:	e0bffe17 	ldw	r2,-8(fp)
   4cbac:	108007cc 	andi	r2,r2,31
   4cbb0:	10000226 	beq	r2,zero,4cbbc <alt_icache_flush+0x78>
  {
    __asm__ volatile ("flushi %0" :: "r" (i));
   4cbb4:	e0bffc17 	ldw	r2,-16(fp)
   4cbb8:	1000603a 	flushi	r2
  /* 
   * Having flushed the cache, flush any stale instructions in the 
   * pipeline 
   */

  __asm__ volatile ("flushp");
   4cbbc:	0000203a 	flushp

#endif /* NIOS2_ICACHE_SIZE > 0 */
}
   4cbc0:	e037883a 	mov	sp,fp
   4cbc4:	df000017 	ldw	fp,0(sp)
   4cbc8:	dec00104 	addi	sp,sp,4
   4cbcc:	f800283a 	ret

0004cbd0 <atexit>:
   4cbd0:	200b883a 	mov	r5,r4
   4cbd4:	000d883a 	mov	r6,zero
   4cbd8:	0009883a 	mov	r4,zero
   4cbdc:	000f883a 	mov	r7,zero
   4cbe0:	004cc601 	jmpi	4cc60 <__register_exitproc>

0004cbe4 <memcmp>:
   4cbe4:	01c000c4 	movi	r7,3
   4cbe8:	3980192e 	bgeu	r7,r6,4cc50 <memcmp+0x6c>
   4cbec:	2904b03a 	or	r2,r5,r4
   4cbf0:	11c4703a 	and	r2,r2,r7
   4cbf4:	10000f26 	beq	r2,zero,4cc34 <memcmp+0x50>
   4cbf8:	20c00003 	ldbu	r3,0(r4)
   4cbfc:	28800003 	ldbu	r2,0(r5)
   4cc00:	1880151e 	bne	r3,r2,4cc58 <memcmp+0x74>
   4cc04:	31bfff84 	addi	r6,r6,-2
   4cc08:	01ffffc4 	movi	r7,-1
   4cc0c:	00000406 	br	4cc20 <memcmp+0x3c>
   4cc10:	20c00003 	ldbu	r3,0(r4)
   4cc14:	28800003 	ldbu	r2,0(r5)
   4cc18:	31bfffc4 	addi	r6,r6,-1
   4cc1c:	18800e1e 	bne	r3,r2,4cc58 <memcmp+0x74>
   4cc20:	21000044 	addi	r4,r4,1
   4cc24:	29400044 	addi	r5,r5,1
   4cc28:	31fff91e 	bne	r6,r7,4cc10 <memcmp+0x2c>
   4cc2c:	0005883a 	mov	r2,zero
   4cc30:	f800283a 	ret
   4cc34:	20c00017 	ldw	r3,0(r4)
   4cc38:	28800017 	ldw	r2,0(r5)
   4cc3c:	1880041e 	bne	r3,r2,4cc50 <memcmp+0x6c>
   4cc40:	31bfff04 	addi	r6,r6,-4
   4cc44:	21000104 	addi	r4,r4,4
   4cc48:	29400104 	addi	r5,r5,4
   4cc4c:	39bff936 	bltu	r7,r6,4cc34 <memcmp+0x50>
   4cc50:	303fe91e 	bne	r6,zero,4cbf8 <memcmp+0x14>
   4cc54:	003ff506 	br	4cc2c <memcmp+0x48>
   4cc58:	1885c83a 	sub	r2,r3,r2
   4cc5c:	f800283a 	ret

0004cc60 <__register_exitproc>:
   4cc60:	defffa04 	addi	sp,sp,-24
   4cc64:	00800174 	movhi	r2,5
   4cc68:	10bc4104 	addi	r2,r2,-3836
   4cc6c:	dc000315 	stw	r16,12(sp)
   4cc70:	14000017 	ldw	r16,0(r2)
   4cc74:	dc400415 	stw	r17,16(sp)
   4cc78:	dfc00515 	stw	ra,20(sp)
   4cc7c:	80805217 	ldw	r2,328(r16)
   4cc80:	2023883a 	mov	r17,r4
   4cc84:	10003e26 	beq	r2,zero,4cd80 <__register_exitproc+0x120>
   4cc88:	10c00117 	ldw	r3,4(r2)
   4cc8c:	020007c4 	movi	r8,31
   4cc90:	40c0180e 	bge	r8,r3,4ccf4 <__register_exitproc+0x94>
   4cc94:	00800034 	movhi	r2,0
   4cc98:	10800004 	addi	r2,r2,0
   4cc9c:	1000061e 	bne	r2,zero,4ccb8 <__register_exitproc+0x58>
   4cca0:	00bfffc4 	movi	r2,-1
   4cca4:	dfc00517 	ldw	ra,20(sp)
   4cca8:	dc400417 	ldw	r17,16(sp)
   4ccac:	dc000317 	ldw	r16,12(sp)
   4ccb0:	dec00604 	addi	sp,sp,24
   4ccb4:	f800283a 	ret
   4ccb8:	01006404 	movi	r4,400
   4ccbc:	d9400015 	stw	r5,0(sp)
   4ccc0:	d9800115 	stw	r6,4(sp)
   4ccc4:	d9c00215 	stw	r7,8(sp)
   4ccc8:	00000000 	call	0 <__alt_mem_onchip_mem-0x40000>
   4cccc:	d9400017 	ldw	r5,0(sp)
   4ccd0:	d9800117 	ldw	r6,4(sp)
   4ccd4:	d9c00217 	ldw	r7,8(sp)
   4ccd8:	103ff126 	beq	r2,zero,4cca0 <__register_exitproc+0x40>
   4ccdc:	80c05217 	ldw	r3,328(r16)
   4cce0:	10000115 	stw	zero,4(r2)
   4cce4:	10c00015 	stw	r3,0(r2)
   4cce8:	80805215 	stw	r2,328(r16)
   4ccec:	10006215 	stw	zero,392(r2)
   4ccf0:	10006315 	stw	zero,396(r2)
   4ccf4:	10c00117 	ldw	r3,4(r2)
   4ccf8:	88000d1e 	bne	r17,zero,4cd30 <__register_exitproc+0xd0>
   4ccfc:	19000084 	addi	r4,r3,2
   4cd00:	2109883a 	add	r4,r4,r4
   4cd04:	18c00044 	addi	r3,r3,1
   4cd08:	2109883a 	add	r4,r4,r4
   4cd0c:	1109883a 	add	r4,r2,r4
   4cd10:	10c00115 	stw	r3,4(r2)
   4cd14:	0005883a 	mov	r2,zero
   4cd18:	21400015 	stw	r5,0(r4)
   4cd1c:	dfc00517 	ldw	ra,20(sp)
   4cd20:	dc400417 	ldw	r17,16(sp)
   4cd24:	dc000317 	ldw	r16,12(sp)
   4cd28:	dec00604 	addi	sp,sp,24
   4cd2c:	f800283a 	ret
   4cd30:	02400044 	movi	r9,1
   4cd34:	12806217 	ldw	r10,392(r2)
   4cd38:	48d2983a 	sll	r9,r9,r3
   4cd3c:	19000804 	addi	r4,r3,32
   4cd40:	18d1883a 	add	r8,r3,r3
   4cd44:	2109883a 	add	r4,r4,r4
   4cd48:	4211883a 	add	r8,r8,r8
   4cd4c:	2109883a 	add	r4,r4,r4
   4cd50:	1109883a 	add	r4,r2,r4
   4cd54:	1211883a 	add	r8,r2,r8
   4cd58:	5254b03a 	or	r10,r10,r9
   4cd5c:	21c02215 	stw	r7,136(r4)
   4cd60:	41802215 	stw	r6,136(r8)
   4cd64:	12806215 	stw	r10,392(r2)
   4cd68:	01000084 	movi	r4,2
   4cd6c:	893fe31e 	bne	r17,r4,4ccfc <__register_exitproc+0x9c>
   4cd70:	11006317 	ldw	r4,396(r2)
   4cd74:	2252b03a 	or	r9,r4,r9
   4cd78:	12406315 	stw	r9,396(r2)
   4cd7c:	003fdf06 	br	4ccfc <__register_exitproc+0x9c>
   4cd80:	00800174 	movhi	r2,5
   4cd84:	108c3f04 	addi	r2,r2,12540
   4cd88:	80805215 	stw	r2,328(r16)
   4cd8c:	003fbe06 	br	4cc88 <__register_exitproc+0x28>
