
custom_crc.elf:     file format elf32-littlenios2
custom_crc.elf
architecture: nios2, flags 0x00000112:
EXEC_P, HAS_SYMS, D_PAGED
start address 0x000401b8

Program Header:
    LOAD off    0x00001000 vaddr 0x00040000 paddr 0x00040000 align 2**12
         filesz 0x00000020 memsz 0x00000020 flags r-x
    LOAD off    0x00001020 vaddr 0x00040020 paddr 0x00040020 align 2**12
         filesz 0x0000d9bc memsz 0x0000d9bc flags r-x
    LOAD off    0x0000e9dc vaddr 0x0004d9dc paddr 0x0004f434 align 2**12
         filesz 0x00001a58 memsz 0x00001a58 flags rw-
    LOAD off    0x00010e8c vaddr 0x00050e8c paddr 0x00050e8c align 2**12
         filesz 0x00000000 memsz 0x000026f4 flags rw-

Sections:
Idx Name          Size      VMA       LMA       File off  Algn
  0 .entry        00000020  00040000  00040000  00001000  2**5
                  CONTENTS, ALLOC, LOAD, READONLY, CODE
  1 .exceptions   00000198  00040020  00040020  00001020  2**2
                  CONTENTS, ALLOC, LOAD, READONLY, CODE
  2 .text         0000cec8  000401b8  000401b8  000011b8  2**2
                  CONTENTS, ALLOC, LOAD, READONLY, CODE
  3 .rodata       0000095c  0004d080  0004d080  0000e080  2**2
                  CONTENTS, ALLOC, LOAD, READONLY, DATA
  4 .rwdata       00001a58  0004d9dc  0004f434  0000e9dc  2**2
                  CONTENTS, ALLOC, LOAD, DATA, SMALL_DATA
  5 .bss          000026f4  00050e8c  00050e8c  00010e8c  2**2
                  ALLOC, SMALL_DATA
  6 .comment      00000023  00000000  00000000  00010434  2**0
                  CONTENTS, READONLY
  7 .debug_aranges 00000dd8  00000000  00000000  00010458  2**3
                  CONTENTS, READONLY, DEBUGGING
  8 .debug_info   00022eb6  00000000  00000000  00011230  2**0
                  CONTENTS, READONLY, DEBUGGING
  9 .debug_abbrev 00009186  00000000  00000000  000340e6  2**0
                  CONTENTS, READONLY, DEBUGGING
 10 .debug_line   0000a427  00000000  00000000  0003d26c  2**0
                  CONTENTS, READONLY, DEBUGGING
 11 .debug_frame  00001920  00000000  00000000  00047694  2**2
                  CONTENTS, READONLY, DEBUGGING
 12 .debug_str    00002fa9  00000000  00000000  00048fb4  2**0
                  CONTENTS, READONLY, DEBUGGING
 13 .debug_loc    00010dc7  00000000  00000000  0004bf5d  2**0
                  CONTENTS, READONLY, DEBUGGING
 14 .debug_alt_sim_info 00000020  00000000  00000000  0005cd24  2**2
                  CONTENTS, READONLY, DEBUGGING
 15 .debug_ranges 00000a98  00000000  00000000  0005cd48  2**3
                  CONTENTS, READONLY, DEBUGGING
 16 .thread_model 00000003  00000000  00000000  000608c2  2**0
                  CONTENTS, READONLY
 17 .cpu          00000003  00000000  00000000  000608c5  2**0
                  CONTENTS, READONLY
 18 .qsys         00000001  00000000  00000000  000608c8  2**0
                  CONTENTS, READONLY
 19 .simulation_enabled 00000001  00000000  00000000  000608c9  2**0
                  CONTENTS, READONLY
 20 .sysid_hash   00000004  00000000  00000000  000608ca  2**0
                  CONTENTS, READONLY
 21 .sysid_base   00000004  00000000  00000000  000608ce  2**0
                  CONTENTS, READONLY
 22 .sysid_time   00000004  00000000  00000000  000608d2  2**0
                  CONTENTS, READONLY
 23 .stderr_dev   00000009  00000000  00000000  000608d6  2**0
                  CONTENTS, READONLY
 24 .stdin_dev    00000009  00000000  00000000  000608df  2**0
                  CONTENTS, READONLY
 25 .stdout_dev   00000009  00000000  00000000  000608e8  2**0
                  CONTENTS, READONLY
 26 .sopc_system_name 00000007  00000000  00000000  000608f1  2**0
                  CONTENTS, READONLY
 27 .quartus_project_dir 00000061  00000000  00000000  000608f8  2**0
                  CONTENTS, READONLY
 28 .sopcinfo     0003c553  00000000  00000000  00060959  2**0
                  CONTENTS, READONLY
SYMBOL TABLE:
00040000 l    d  .entry	00000000 .entry
00040020 l    d  .exceptions	00000000 .exceptions
000401b8 l    d  .text	00000000 .text
0004d080 l    d  .rodata	00000000 .rodata
0004d9dc l    d  .rwdata	00000000 .rwdata
00050e8c l    d  .bss	00000000 .bss
00000000 l    d  .comment	00000000 .comment
00000000 l    d  .debug_aranges	00000000 .debug_aranges
00000000 l    d  .debug_info	00000000 .debug_info
00000000 l    d  .debug_abbrev	00000000 .debug_abbrev
00000000 l    d  .debug_line	00000000 .debug_line
00000000 l    d  .debug_frame	00000000 .debug_frame
00000000 l    d  .debug_str	00000000 .debug_str
00000000 l    d  .debug_loc	00000000 .debug_loc
00000000 l    d  .debug_alt_sim_info	00000000 .debug_alt_sim_info
00000000 l    d  .debug_ranges	00000000 .debug_ranges
00000000 l    df *ABS*	00000000 ../custom_crc_bsp//obj/HAL/src/crt0.o
000401f0 l       .text	00000000 alt_after_alt_main
00000000 l    df *ABS*	00000000 alt_exception_entry.o
00040094 l       .exceptions	00000000 alt_exception_unknown
00000000 l    df *ABS*	00000000 alt_irq_handler.c
00000000 l    df *ABS*	00000000 ci_crc.c
00000000 l    df *ABS*	00000000 crc.c
000402f4 l     F .text	0000008c reflect
00000000 l    df *ABS*	00000000 crc_main.c
00000000 l    df *ABS*	00000000 fp-bit.c
00000000 l    df *ABS*	00000000 fp-bit.c
00000000 l    df *ABS*	00000000 fp-bit.c
00000000 l    df *ABS*	00000000 fp-bit.c
00000000 l    df *ABS*	00000000 libgcc2.c
00000000 l    df *ABS*	00000000 libgcc2.c
00000000 l    df *ABS*	00000000 fp-bit.c
00000000 l    df *ABS*	00000000 fp-bit.c
00000000 l    df *ABS*	00000000 lib2-mul.c
00000000 l    df *ABS*	00000000 libgcc2.c
00000000 l    df *ABS*	00000000 libgcc2.c
00000000 l    df *ABS*	00000000 libgcc2.c
00000000 l    df *ABS*	00000000 exit.c
00000000 l    df *ABS*	00000000 impure.c
0004d9dc l     O .rwdata	00000400 impure_data
00000000 l    df *ABS*	00000000 printf.c
00000000 l    df *ABS*	00000000 puts.c
00000000 l    df *ABS*	00000000 strlen.c
00000000 l    df *ABS*	00000000 vfprintf.c
00041ccc l     F .text	00000034 __sprint_r
0004d81a l     O .rodata	00000010 blanks.3515
0004d82a l     O .rodata	00000010 zeroes.3516
00000000 l    df *ABS*	00000000 wsetup.c
00000000 l    df *ABS*	00000000 __call_atexit.c
00000000 l    df *ABS*	00000000 dtoa.c
00043eb4 l     F .text	0000023c quorem
00000000 l    df *ABS*	00000000 fflush.c
00000000 l    df *ABS*	00000000 findfp.c
00045924 l     F .text	00000008 __fp_lock
0004592c l     F .text	00000008 __fp_unlock
00000000 l    df *ABS*	00000000 mallocr.c
00000000 l    df *ABS*	00000000 fvwrite.c
00000000 l    df *ABS*	00000000 fwalk.c
00000000 l    df *ABS*	00000000 locale.c
0004d85c l     O .rodata	00000030 lconv
00000000 l    df *ABS*	00000000 makebuf.c
00000000 l    df *ABS*	00000000 mallocr.c
00000000 l    df *ABS*	00000000 memchr.c
00000000 l    df *ABS*	00000000 memcpy.c
00000000 l    df *ABS*	00000000 memmove.c
00000000 l    df *ABS*	00000000 memset.c
00000000 l    df *ABS*	00000000 mprec.c
0004d9a4 l     O .rodata	0000000c p05.2435
00000000 l    df *ABS*	00000000 mallocr.c
00000000 l    df *ABS*	00000000 s_isinfd.c
00000000 l    df *ABS*	00000000 s_isnand.c
00000000 l    df *ABS*	00000000 sbrkr.c
00000000 l    df *ABS*	00000000 stdio.c
00000000 l    df *ABS*	00000000 strcmp.c
00000000 l    df *ABS*	00000000 writer.c
00000000 l    df *ABS*	00000000 mallocr.c
00000000 l    df *ABS*	00000000 closer.c
00000000 l    df *ABS*	00000000 fclose.c
00000000 l    df *ABS*	00000000 fstatr.c
00000000 l    df *ABS*	00000000 int_errno.c
00000000 l    df *ABS*	00000000 isattyr.c
00000000 l    df *ABS*	00000000 lseekr.c
00000000 l    df *ABS*	00000000 readr.c
00000000 l    df *ABS*	00000000 libgcc2.c
00000000 l    df *ABS*	00000000 libgcc2.c
00000000 l    df *ABS*	00000000 fp-bit.c
00049f08 l     F .text	00000354 _fpadd_parts
00000000 l    df *ABS*	00000000 fp-bit.c
00000000 l    df *ABS*	00000000 fp-bit.c
00000000 l    df *ABS*	00000000 fp-bit.c
00000000 l    df *ABS*	00000000 fp-bit.c
00000000 l    df *ABS*	00000000 fp-bit.c
00000000 l    df *ABS*	00000000 fp-bit.c
00000000 l    df *ABS*	00000000 fp-bit.c
00000000 l    df *ABS*	00000000 lib2-divmod.c
0004a694 l     F .text	00000074 udivmodsi4
00000000 l    df *ABS*	00000000 fp-bit.c
00000000 l    df *ABS*	00000000 alt_close.c
0004a894 l     F .text	00000050 alt_get_errno
00000000 l    df *ABS*	00000000 alt_dev.c
0004a9b0 l     F .text	0000002c alt_dev_null_write
00000000 l    df *ABS*	00000000 alt_errno.c
00000000 l    df *ABS*	00000000 alt_exit.c
00000000 l    df *ABS*	00000000 alt_fstat.c
0004aa18 l     F .text	00000050 alt_get_errno
00000000 l    df *ABS*	00000000 alt_isatty.c
0004ab18 l     F .text	00000050 alt_get_errno
00000000 l    df *ABS*	00000000 alt_load.c
0004ac0c l     F .text	0000006c alt_load_section
00000000 l    df *ABS*	00000000 alt_lseek.c
0004acf8 l     F .text	00000050 alt_get_errno
00000000 l    df *ABS*	00000000 alt_main.c
00000000 l    df *ABS*	00000000 alt_malloc_lock.c
00000000 l    df *ABS*	00000000 alt_read.c
0004aed4 l     F .text	00000050 alt_get_errno
00000000 l    df *ABS*	00000000 alt_release_fd.c
00000000 l    df *ABS*	00000000 alt_sbrk.c
0004f424 l     O .rwdata	00000004 heap_end
00000000 l    df *ABS*	00000000 alt_write.c
0004b148 l     F .text	00000050 alt_get_errno
00000000 l    df *ABS*	00000000 alt_sys_init.c
0004b288 l     F .text	00000038 alt_dev_reg
0004e398 l     O .rwdata	00001060 jtag_uart
00000000 l    df *ABS*	00000000 altera_avalon_jtag_uart_fd.c
00000000 l    df *ABS*	00000000 altera_avalon_jtag_uart_init.c
0004b598 l     F .text	00000204 altera_avalon_jtag_uart_irq
0004b79c l     F .text	000000a4 altera_avalon_jtag_uart_timeout
00000000 l    df *ABS*	00000000 altera_avalon_jtag_uart_ioctl.c
00000000 l    df *ABS*	00000000 altera_avalon_jtag_uart_read.c
00000000 l    df *ABS*	00000000 altera_avalon_jtag_uart_write.c
00000000 l    df *ABS*	00000000 altera_avalon_timer_sc.c
0004bdd8 l     F .text	00000074 alt_avalon_timer_sc_irq
00000000 l    df *ABS*	00000000 altera_avalon_timer_ts.c
00000000 l    df *ABS*	00000000 altera_avalon_timer_vars.c
00000000 l    df *ABS*	00000000 alt_alarm_start.c
00000000 l    df *ABS*	00000000 alt_dcache_flush_all.c
00000000 l    df *ABS*	00000000 alt_dev_llist_insert.c
0004c170 l     F .text	00000050 alt_get_errno
00000000 l    df *ABS*	00000000 alt_do_ctors.c
00000000 l    df *ABS*	00000000 alt_do_dtors.c
00000000 l    df *ABS*	00000000 alt_icache_flush_all.c
00000000 l    df *ABS*	00000000 alt_iic.c
00000000 l    df *ABS*	00000000 alt_iic_isr_register.c
00000000 l    df *ABS*	00000000 alt_io_redirect.c
0004c610 l     F .text	000000e0 alt_open_fd
00000000 l    df *ABS*	00000000 alt_irq_vars.c
00000000 l    df *ABS*	00000000 alt_open.c
0004c768 l     F .text	00000050 alt_get_errno
0004c7b8 l     F .text	000000f0 alt_file_locked
00000000 l    df *ABS*	00000000 alt_tick.c
00000000 l    df *ABS*	00000000 altera_nios2_qsys_irq.c
00000000 l    df *ABS*	00000000 alt_find_dev.c
00000000 l    df *ABS*	00000000 alt_find_file.c
00000000 l    df *ABS*	00000000 alt_get_fd.c
00000000 l    df *ABS*	00000000 alt_icache_flush.c
00000000 l    df *ABS*	00000000 atexit.c
00000000 l    df *ABS*	00000000 memcmp.c
00000000 l    df *ABS*	00000000 __atexit.c
00000000 l    df *ABS*	00000000 
000483e4 g     F .text	00000074 _mprec_log10
000484d4 g     F .text	00000084 __any_on
00049154 g     F .text	00000064 _isatty_r
0004d88c g     O .rodata	00000028 __mprec_tinytens
0004ae1c g     F .text	00000078 alt_main
00041ac4 g     F .text	00000044 __ashldi3
00041ba8 g     F .text	00000084 _puts_r
000532f0 g     O .bss	00000100 alt_irq
000491b8 g     F .text	0000006c _lseek_r
0004f434 g       *ABS*	00000000 __flash_rwdata_start
0004a310 g     F .text	0000005c __eqdf2
00053580 g       *ABS*	00000000 __alt_heap_start
00041b6c g     F .text	0000003c printf
00048cf8 g     F .text	0000005c __sseek
000459c8 g     F .text	0000010c __sinit
00046660 g     F .text	0000009c _setlocale_r
00045940 g     F .text	00000078 __sfmoreglue
0004aeb4 g     F .text	00000020 __malloc_unlock
00050eb8 g     O .bss	00000004 altera_avalon_timer_ts_freq
000472a0 g     F .text	0000018c memmove
000459b8 g     F .text	00000010 _cleanup
00047508 g     F .text	000000a8 _Balloc
0004a3c8 g     F .text	00000064 __gtdf2
00000000  w      *UND*	00000000 __errno
00040000 g     F .entry	0000001c __reset
00040020 g       *ABS*	00000000 __flash_exceptions_start
000490ec g     F .text	00000068 _fstat_r
00050ea4 g     O .bss	00000004 errno
00050eac g     O .bss	00000004 alt_argv
000573f8 g       *ABS*	00000000 _gp
0004e218 g     O .rwdata	00000180 alt_fd_list
0004cbbc g     F .text	00000090 alt_find_dev
00047160 g     F .text	00000140 memcpy
00045934 g     F .text	0000000c _cleanup_r
0004a4ec g     F .text	000000d4 __floatsidf
0004c6f0 g     F .text	00000078 alt_io_redirect
0004a490 g     F .text	0000005c __ltdf2
0004d080 g       *ABS*	00000000 __DTOR_END__
00041c2c g     F .text	00000014 puts
00048340 g     F .text	000000a4 __ratio
0004b99c g     F .text	00000218 altera_avalon_jtag_uart_read
00000000  w      *UND*	00000000 malloc
00041b40 g     F .text	0000002c _printf_r
0004a7b4 g     F .text	00000008 __udivsi3
0004ab68 g     F .text	000000a4 isatty
0004d8dc g     O .rodata	000000c8 __mprec_tens
000466fc g     F .text	0000000c __locale_charset
0004ce34 g     F .text	0000008c alt_icache_flush
00050ea0 g     O .bss	00000004 __malloc_top_pad
0004f400 g     O .rwdata	00000004 __mb_cur_max
00046708 g     F .text	0000000c _localeconv_r
00047938 g     F .text	0000003c __i2b
0004601c g     F .text	000004e4 __sfvwrite_r
00048bb8 g     F .text	00000064 _sbrk_r
00049224 g     F .text	0000006c _read_r
0004dddc g     O .rwdata	0000000c __lc_ctype
0004f41c g     O .rwdata	00000004 alt_max_fd
00041954 g     F .text	00000104 __unpack_d
00048f9c g     F .text	0000013c _fclose_r
000458f4 g     F .text	00000030 fflush
00050e9c g     O .bss	00000004 __malloc_max_sbrked_mem
0004a25c g     F .text	00000054 __adddf3
000480b4 g     F .text	00000148 __b2d
000498e0 g     F .text	00000628 __umoddi3
0004ad48 g     F .text	000000d4 lseek
0004f3f8 g     O .rwdata	00000004 _global_impure_ptr
00048558 g     F .text	000005fc _realloc_r
00053580 g       *ABS*	00000000 __bss_end
0004c520 g     F .text	000000f0 alt_iic_isr_register
0004ca98 g     F .text	00000104 alt_tick
00049290 g     F .text	00000650 __udivdi3
0004d8b4 g     O .rodata	00000028 __mprec_bigtens
0004771c g     F .text	00000104 __s2b
00041458 g     F .text	0000011c __floatunsidf
00047e54 g     F .text	00000058 __mcmp
00045be0 g     F .text	00000018 __fp_lock_all
0004c4d4 g     F .text	0000004c alt_ic_irq_enabled
0004ca00 g     F .text	00000098 alt_alarm_stop
00050ebc g     O .bss	00000004 alt_irq_active
00040000 g       *ABS*	00000000 __alt_mem_onchip_mem
000400ec g     F .exceptions	000000cc alt_irq_handler
0004e1f0 g     O .rwdata	00000028 alt_dev_null
0004c154 g     F .text	0000001c alt_dcache_flush_all
00047820 g     F .text	00000068 __hi0bits
0004a5c0 g     F .text	000000d4 __fixdfsi
0004f434 g       *ABS*	00000000 __ram_rwdata_end
0004f414 g     O .rwdata	00000008 alt_dev_list
0004b198 g     F .text	000000f0 write
00040380 g     F .text	000000ec crcSlow
0004bfec g     F .text	00000028 alt_timestamp_freq
0004d9dc g       *ABS*	00000000 __ram_rodata_end
0004aa68 g     F .text	000000b0 fstat
00041a80 g     F .text	00000044 __lshrdi3
00047bcc g     F .text	0000012c __pow5mult
00050e94 g     O .bss	00000004 __nlocale_changed
0004a7bc g     F .text	00000008 __umodsi3
00053580 g       *ABS*	00000000 end
000512f0 g     O .bss	00002000 data_buffer_region
0004b4d8 g     F .text	000000c0 altera_avalon_jtag_uart_init
0004d080 g       *ABS*	00000000 __CTOR_LIST__
00080000 g       *ABS*	00000000 __alt_stack_pointer
0004be4c g     F .text	00000088 alt_avalon_timer_sc_init
00041684 g     F .text	000000ac __clzsi2
0004bbb4 g     F .text	00000224 altera_avalon_jtag_uart_write
00045bd0 g     F .text	00000004 __sfp_lock_acquire
00047068 g     F .text	000000f8 memchr
00041d00 g     F .text	00001e7c ___vfprintf_internal_r
00045d4c g     F .text	000002d0 _free_r
00043d14 g     F .text	000001a0 __call_exitprocs
00050e90 g     O .bss	00000004 __mlocale_changed
0004f404 g     O .rwdata	00000004 __malloc_sbrk_base
000401b8 g     F .text	0000003c _start
00050ec0 g     O .bss	00000004 _alt_tick_rate
00047cf8 g     F .text	0000015c __lshift
00050ec4 g     O .bss	00000004 _alt_nticks
0004af24 g     F .text	000000f4 read
0004b2f4 g     F .text	00000080 alt_sys_init
0004cf50 g     F .text	00000130 __register_exitproc
00047974 g     F .text	00000258 __multiply
0004b840 g     F .text	00000068 altera_avalon_jtag_uart_close
00041a58 g     F .text	00000028 __mulsi3
0004d9dc g       *ABS*	00000000 __ram_rwdata_start
0004d080 g       *ABS*	00000000 __ram_rodata_start
00050ec8 g     O .bss	00000028 __malloc_current_mallinfo
000481fc g     F .text	00000144 __d2b
0004b374 g     F .text	00000060 altera_avalon_jtag_uart_read_fd
0004cd60 g     F .text	000000d4 alt_get_fd
0004a7c4 g     F .text	000000d0 __fpcmp_parts_d
00048f38 g     F .text	00000064 _close_r
0004ced4 g     F .text	0000007c memcmp
0004b434 g     F .text	00000050 altera_avalon_jtag_uart_close_fd
00053580 g       *ABS*	00000000 __alt_stack_base
0004b484 g     F .text	00000054 altera_avalon_jtag_uart_ioctl_fd
00043ba0 g     F .text	00000174 __swsetup_r
000412a4 g     F .text	000001b4 __divdf3
0004046c g     F .text	000000bc crcInit
00045ad4 g     F .text	000000fc __sfp
00048458 g     F .text	0000007c __copybits
0004dde8 g     O .rwdata	00000408 __malloc_av_
00045bdc g     F .text	00000004 __sinit_lock_release
00040fc0 g     F .text	000002e4 __muldf3
00048c1c g     F .text	00000054 __sread
000401f4 g     F .text	00000100 crcCI
0004cc4c g     F .text	00000114 alt_find_file
0004c1c0 g     F .text	000000a0 alt_dev_llist_insert
0004ae94 g     F .text	00000020 __malloc_lock
0004b098 g     F .text	000000b0 sbrk
0004570c g     F .text	000001e8 _fflush_r
00048e6c g     F .text	000000cc _calloc_r
00050e8c g       *ABS*	00000000 __bss_start
0004742c g     F .text	000000dc memset
000405ec g     F .text	000009d4 main
00050eb0 g     O .bss	00000004 alt_envp
00050e98 g     O .bss	00000004 __malloc_max_total_mem
0004b3d4 g     F .text	00000060 altera_avalon_jtag_uart_write_fd
00048d54 g     F .text	00000008 __sclose
00080000 g       *ABS*	00000000 __alt_heap_limit
000490d8 g     F .text	00000014 fclose
0004bed4 g     F .text	00000088 alt_timestamp_start
000533f0 g     O .bss	00000190 _atexit0
000440f0 g     F .text	0000161c _dtoa_r
000468e4 g     F .text	00000784 _malloc_r
0004f420 g     O .rwdata	00000004 alt_errno
00046500 g     F .text	000000a8 _fwalk
0004a708 g     F .text	00000050 __divsi3
0004d6bc g     O .rodata	00000014 __thenan_df
00045c10 g     F .text	0000013c _malloc_trim_r
0004d080 g       *ABS*	00000000 __CTOR_END__
00048d5c g     F .text	000000a4 strcmp
0004d080 g       *ABS*	00000000 __flash_rodata_start
0004d080 g       *ABS*	00000000 __DTOR_LIST__
0004a36c g     F .text	0000005c __nedf2
0004b2c0 g     F .text	00000034 alt_irq_init
0004b018 g     F .text	00000080 alt_release_fd
0004d6d0 g     O .rodata	00000100 __clz_tab
00050e8c g     O .bss	00000004 _PathLocale
0004cec0 g     F .text	00000014 atexit
00048e00 g     F .text	0000006c _write_r
00046714 g     F .text	0000001c setlocale
0004f3fc g     O .rwdata	00000004 _impure_ptr
00050ea8 g     O .bss	00000004 alt_argc
00050eb4 g     O .bss	00000004 altera_avalon_timer_ts_base
0004c2bc g     F .text	0000005c _do_dtors
00040528 g     F .text	000000c4 crcFast
00040020 g       .exceptions	00000000 alt_irq_entry
00048054 g     F .text	00000060 __ulp
00048b54 g     F .text	00000038 __isinfd
00045bf8 g     F .text	00000018 __fp_unlock_all
0004f40c g     O .rwdata	00000008 alt_fs_list
00040020 g       *ABS*	00000000 __ram_exceptions_start
00046730 g     F .text	0000000c localeconv
0004bf5c g     F .text	00000090 alt_timestamp
0004c348 g     F .text	00000050 alt_ic_isr_register
0004f434 g       *ABS*	00000000 _edata
00053580 g       *ABS*	00000000 _end
00050ef0 g     O .bss	00000400 crcTable
000401b8 g       *ABS*	00000000 __ram_exceptions_end
0004b8a8 g     F .text	000000f4 altera_avalon_jtag_uart_ioctl
0004c434 g     F .text	000000a0 alt_ic_irq_disable
00048c70 g     F .text	00000088 __swrite
0004f408 g     O .rwdata	00000004 __malloc_trim_threshold
0004cb9c g     F .text	00000020 altera_nios2_qsys_irq_init
00041b08 g     F .text	00000038 exit
000465a8 g     F .text	000000b8 _fwalk_reent
00047eac g     F .text	000001a8 __mdiff
0004a758 g     F .text	0000005c __modsi3
00080000 g       *ABS*	00000000 __alt_data_end
00040020 g     F .exceptions	00000000 alt_exception
00045bd4 g     F .text	00000004 __sfp_lock_release
00048b8c g     F .text	0000002c __isnand
0004a9dc g     F .text	0000003c _exit
0004c014 g     F .text	00000140 alt_alarm_start
00041574 g     F .text	00000110 __muldi3
0004673c g     F .text	000001a8 __smakebuf_r
00041c40 g     F .text	0000008c strlen
0004c8a8 g     F .text	00000158 open
0004a42c g     F .text	00000064 __gedf2
0004c318 g     F .text	00000030 alt_icache_flush_all
0004f428 g     O .rwdata	00000004 alt_priority_mask
0004c398 g     F .text	0000009c alt_ic_irq_enable
00043b7c g     F .text	00000024 __vfprintf_internal
0004a2b0 g     F .text	00000060 __subdf3
00047888 g     F .text	000000b0 __lo0bits
0004f42c g     O .rwdata	00000008 alt_alarm_list
0004c260 g     F .text	0000005c _do_ctors
0004a8e4 g     F .text	000000cc close
0004ac78 g     F .text	00000080 alt_load
00041730 g     F .text	00000224 __pack_d
00000000  w      *UND*	00000000 free
00045bd8 g     F .text	00000004 __sinit_lock_acquire
000475d8 g     F .text	00000144 __multadd
000475b0 g     F .text	00000028 _Bfree



Disassembly of section .entry:

00040000 <__reset>:
#if NIOS2_ICACHE_SIZE > 0 && defined(ALT_ALLOW_CODE_AT_RESET) && !defined(ALT_SIM_OPTIMIZE)
    /* Assume the instruction cache size is always a power of two. */
#if NIOS2_ICACHE_SIZE > 0x8000
    movhi r2, %hi(NIOS2_ICACHE_SIZE)
#else
    movui r2, NIOS2_ICACHE_SIZE
   40000:	00840014 	movui	r2,4096
#endif

0:
    initi r2
   40004:	1001483a 	initi	r2
    addi r2, r2, -NIOS2_ICACHE_LINE_SIZE
   40008:	10bff804 	addi	r2,r2,-32
    bgt r2, zero, 0b
   4000c:	00bffd16 	blt	zero,r2,40004 <__reset+0x4>
 * Jump to the _start entry point in the .text section if reset code
 * is allowed or if optimizing for RTL simulation.
 */
#if defined(ALT_ALLOW_CODE_AT_RESET) || defined(ALT_SIM_OPTIMIZE)
    /* Jump to the _start entry point in the .text section. */
    movhi r1, %hi(_start)
   40010:	00400134 	movhi	at,4
    ori r1, r1, %lo(_start)
   40014:	08406e14 	ori	at,at,440
    jmp r1
   40018:	0800683a 	jmp	at
   4001c:	00000000 	call	0 <__alt_mem_onchip_mem-0x40000>

Disassembly of section .exceptions:

00040020 <alt_exception>:

#else /* ALT_EXCEPTION_STACK disabled */
        /* 
         * Reserve space on normal stack for registers about to be pushed.
         */
        addi  sp, sp, -76
   40020:	deffed04 	addi	sp,sp,-76
         * documentation for details).
         *
         * Leave a gap in the stack frame at 4(sp) for the muldiv handler to
         * store zero into.
         */
        stw   ra,  0(sp)
   40024:	dfc00015 	stw	ra,0(sp)
        stw   r1,   8(sp)
   40028:	d8400215 	stw	at,8(sp)
        stw   r2,  12(sp)
   4002c:	d8800315 	stw	r2,12(sp)
        stw   r3,  16(sp)
   40030:	d8c00415 	stw	r3,16(sp)
        stw   r4,  20(sp)
   40034:	d9000515 	stw	r4,20(sp)
        stw   r5,  24(sp)
   40038:	d9400615 	stw	r5,24(sp)
        stw   r6,  28(sp)
   4003c:	d9800715 	stw	r6,28(sp)
        stw   r7,  32(sp)
   40040:	d9c00815 	stw	r7,32(sp)
        rdctl r5, estatus   /* Read early to avoid usage stall */
   40044:	000b307a 	rdctl	r5,estatus
        stw   r8,  36(sp)
   40048:	da000915 	stw	r8,36(sp)
        stw   r9,  40(sp)
   4004c:	da400a15 	stw	r9,40(sp)
        stw   r10, 44(sp)
   40050:	da800b15 	stw	r10,44(sp)
        stw   r11, 48(sp)
   40054:	dac00c15 	stw	r11,48(sp)
        stw   r12, 52(sp)
   40058:	db000d15 	stw	r12,52(sp)
        stw   r13, 56(sp)
   4005c:	db400e15 	stw	r13,56(sp)
        stw   r14, 60(sp)
   40060:	db800f15 	stw	r14,60(sp)
        stw   r15, 64(sp)
   40064:	dbc01015 	stw	r15,64(sp)
        /*
         * ea-4 contains the address of the instruction being executed
         * when the exception occured. For interrupt exceptions, we will
         * will be re-issue the isntruction. Store it in 72(sp)
         */
        stw   r5,  68(sp)  /* estatus */
   40068:	d9401115 	stw	r5,68(sp)
        addi  r15, ea, -4  /* instruction that caused exception */
   4006c:	ebffff04 	addi	r15,ea,-4
        stw   r15,  72(sp)
   40070:	dbc01215 	stw	r15,72(sp)
#else
        /*
         * Test to see if the exception was a software exception or caused 
         * by an external interrupt, and vector accordingly.
         */
        rdctl r4, ipending
   40074:	0009313a 	rdctl	r4,ipending
        andi  r2, r5, 1
   40078:	2880004c 	andi	r2,r5,1
        beq   r2, zero, .Lnot_irq
   4007c:	10000326 	beq	r2,zero,4008c <alt_exception+0x6c>
        beq   r4, zero, .Lnot_irq
   40080:	20000226 	beq	r4,zero,4008c <alt_exception+0x6c>
        /*
         * Now that all necessary registers have been preserved, call 
         * alt_irq_handler() to process the interrupts.
         */

        call alt_irq_handler
   40084:	00400ec0 	call	400ec <alt_irq_handler>

        .section .exceptions.irqreturn, "xa"

        br    .Lexception_exit
   40088:	00000306 	br	40098 <alt_exception_unknown+0x4>
         * upon completion, so we write ea (address of instruction *after*
         * the one where the exception occured) into 72(sp). The actual
         * instruction that caused the exception is written in r2, which these
         * handlers will utilize.
         */
        stw   ea,  72(sp)  /* Don't re-issue */
   4008c:	df401215 	stw	ea,72(sp)
        ldw   r2, -4(ea)   /* Instruction that caused exception */
   40090:	e8bfff17 	ldw	r2,-4(ea)

00040094 <alt_exception_unknown>:
#ifdef NIOS2_HAS_DEBUG_STUB
       /*
        *  Either tell the user now (if there is a debugger attached) or go into
        *  the debug monitor which will loop until a debugger is attached.
        */
        break
   40094:	003da03a 	break	0
        /* 
         * Restore the saved registers, so that all general purpose registers 
         * have been restored to their state at the time the interrupt occured.
         */

        ldw   r5,  68(sp)
   40098:	d9401117 	ldw	r5,68(sp)
        ldw   ea,  72(sp)  /* This becomes the PC once eret is executed */
   4009c:	df401217 	ldw	ea,72(sp)
        ldw   ra,   0(sp)
   400a0:	dfc00017 	ldw	ra,0(sp)

        wrctl estatus, r5
   400a4:	2801707a 	wrctl	estatus,r5

        ldw   r1,   8(sp)
   400a8:	d8400217 	ldw	at,8(sp)
        ldw   r2,  12(sp)
   400ac:	d8800317 	ldw	r2,12(sp)
        ldw   r3,  16(sp)
   400b0:	d8c00417 	ldw	r3,16(sp)
        ldw   r4,  20(sp)
   400b4:	d9000517 	ldw	r4,20(sp)
        ldw   r5,  24(sp)
   400b8:	d9400617 	ldw	r5,24(sp)
        ldw   r6,  28(sp)
   400bc:	d9800717 	ldw	r6,28(sp)
        ldw   r7,  32(sp)
   400c0:	d9c00817 	ldw	r7,32(sp)

#if defined(ALT_EXCEPTION_STACK) && defined(ALT_STACK_CHECK)
        ldw   et, %gprel(alt_exception_old_stack_limit)(gp)
#endif

        ldw   r8,  36(sp)
   400c4:	da000917 	ldw	r8,36(sp)
        ldw   r9,  40(sp)
   400c8:	da400a17 	ldw	r9,40(sp)
        ldw   r10, 44(sp)
   400cc:	da800b17 	ldw	r10,44(sp)
        ldw   r11, 48(sp)
   400d0:	dac00c17 	ldw	r11,48(sp)
        ldw   r12, 52(sp)
   400d4:	db000d17 	ldw	r12,52(sp)
        ldw   r13, 56(sp)
   400d8:	db400e17 	ldw	r13,56(sp)
        ldw   r14, 60(sp)
   400dc:	db800f17 	ldw	r14,60(sp)
        ldw   r15, 64(sp)
   400e0:	dbc01017 	ldw	r15,64(sp)
        stw   et, %gprel(alt_stack_limit_value)(gp)
        stw   zero, %gprel(alt_exception_old_stack_limit)(gp)
#endif /* ALT_STACK_CHECK */
        ldw   sp,  76(sp)
#else /* ALT_EXCEPTION_STACK disabled */
        addi  sp, sp, 76
   400e4:	dec01304 	addi	sp,sp,76

        /*
         * Return to the interrupted instruction.
         */

        eret
   400e8:	ef80083a 	eret

000400ec <alt_irq_handler>:
 * instruction is present if the macro ALT_CI_INTERRUPT_VECTOR defined.
 */

void alt_irq_handler (void) __attribute__ ((section (".exceptions")));
void alt_irq_handler (void)
{
   400ec:	defff904 	addi	sp,sp,-28
   400f0:	dfc00615 	stw	ra,24(sp)
   400f4:	df000515 	stw	fp,20(sp)
   400f8:	df000504 	addi	fp,sp,20
  
  /*
   * Notify the operating system that we are at interrupt level.
   */ 
  
  ALT_OS_INT_ENTER();
   400fc:	0001883a 	nop
#ifndef NIOS2_EIC_PRESENT
static ALT_INLINE alt_u32 ALT_ALWAYS_INLINE alt_irq_pending (void)
{
  alt_u32 active;

  NIOS2_READ_IPENDING (active);
   40100:	0005313a 	rdctl	r2,ipending
   40104:	e0bffe15 	stw	r2,-8(fp)

  return active;
   40108:	e0bffe17 	ldw	r2,-8(fp)
   * Consider the case where the high priority interupt is asserted during
   * the interrupt entry sequence for a lower priority interrupt to see why
   * this is the case.
   */

  active = alt_irq_pending ();
   4010c:	e0bffb15 	stw	r2,-20(fp)

  do
  {
    i = 0;
   40110:	e03ffd15 	stw	zero,-12(fp)
    mask = 1;
   40114:	00800044 	movi	r2,1
   40118:	e0bffc15 	stw	r2,-16(fp)
     * called to clear the interrupt condition.
     */

    do
    {
      if (active & mask)
   4011c:	e0fffb17 	ldw	r3,-20(fp)
   40120:	e0bffc17 	ldw	r2,-16(fp)
   40124:	1884703a 	and	r2,r3,r2
   40128:	10001726 	beq	r2,zero,40188 <alt_irq_handler+0x9c>
      { 
#ifdef ALT_ENHANCED_INTERRUPT_API_PRESENT
        alt_irq[i].handler(alt_irq[i].context); 
   4012c:	00c00174 	movhi	r3,5
   40130:	18ccbc04 	addi	r3,r3,13040
   40134:	e0bffd17 	ldw	r2,-12(fp)
   40138:	100490fa 	slli	r2,r2,3
   4013c:	1885883a 	add	r2,r3,r2
   40140:	10c00017 	ldw	r3,0(r2)
   40144:	01000174 	movhi	r4,5
   40148:	210cbc04 	addi	r4,r4,13040
   4014c:	e0bffd17 	ldw	r2,-12(fp)
   40150:	100490fa 	slli	r2,r2,3
   40154:	2085883a 	add	r2,r4,r2
   40158:	10800104 	addi	r2,r2,4
   4015c:	10800017 	ldw	r2,0(r2)
   40160:	1009883a 	mov	r4,r2
   40164:	183ee83a 	callr	r3
#else
        alt_irq[i].handler(alt_irq[i].context, i); 
#endif
        break;
   40168:	0001883a 	nop
#ifndef NIOS2_EIC_PRESENT
static ALT_INLINE alt_u32 ALT_ALWAYS_INLINE alt_irq_pending (void)
{
  alt_u32 active;

  NIOS2_READ_IPENDING (active);
   4016c:	0005313a 	rdctl	r2,ipending
   40170:	e0bfff15 	stw	r2,-4(fp)

  return active;
   40174:	e0bfff17 	ldw	r2,-4(fp)
      mask <<= 1;
      i++;

    } while (1);

    active = alt_irq_pending ();
   40178:	e0bffb15 	stw	r2,-20(fp)
    
  } while (active);
   4017c:	e0bffb17 	ldw	r2,-20(fp)
   40180:	103fe31e 	bne	r2,zero,40110 <alt_irq_handler+0x24>

  /*
   * Notify the operating system that interrupt processing is complete.
   */ 

  ALT_OS_INT_EXIT();
   40184:	00000706 	br	401a4 <alt_irq_handler+0xb8>
#else
        alt_irq[i].handler(alt_irq[i].context, i); 
#endif
        break;
      }
      mask <<= 1;
   40188:	e0bffc17 	ldw	r2,-16(fp)
   4018c:	1085883a 	add	r2,r2,r2
   40190:	e0bffc15 	stw	r2,-16(fp)
      i++;
   40194:	e0bffd17 	ldw	r2,-12(fp)
   40198:	10800044 	addi	r2,r2,1
   4019c:	e0bffd15 	stw	r2,-12(fp)

    } while (1);
   401a0:	003fde06 	br	4011c <alt_irq_handler+0x30>
  /*
   * Notify the operating system that interrupt processing is complete.
   */ 

  ALT_OS_INT_EXIT();
}
   401a4:	e037883a 	mov	sp,fp
   401a8:	dfc00117 	ldw	ra,4(sp)
   401ac:	df000017 	ldw	fp,0(sp)
   401b0:	dec00204 	addi	sp,sp,8
   401b4:	f800283a 	ret

Disassembly of section .text:

000401b8 <_start>:

    /*
     * Now that the caches are initialized, set up the stack pointer and global pointer.
     * The values provided by the linker are assumed to be correctly aligned.
     */
    movhi sp, %hi(__alt_stack_pointer)
   401b8:	06c00234 	movhi	sp,8
    ori sp, sp, %lo(__alt_stack_pointer)
   401bc:	dec00014 	ori	sp,sp,0
    movhi gp, %hi(_gp)
   401c0:	06800174 	movhi	gp,5
    ori gp, gp, %lo(_gp)
   401c4:	d69cfe14 	ori	gp,gp,29688
 */
#ifndef ALT_SIM_OPTIMIZE
    /* Log that the BSS is about to be cleared. */
    ALT_LOG_PUTS(alt_log_msg_bss)

    movhi r2, %hi(__bss_start)
   401c8:	00800174 	movhi	r2,5
    ori r2, r2, %lo(__bss_start)
   401cc:	1083a314 	ori	r2,r2,3724

    movhi r3, %hi(__bss_end)
   401d0:	00c00174 	movhi	r3,5
    ori r3, r3, %lo(__bss_end)
   401d4:	18cd6014 	ori	r3,r3,13696

    beq r2, r3, 1f
   401d8:	10c00326 	beq	r2,r3,401e8 <_start+0x30>

0:
    stw zero, (r2)
   401dc:	10000015 	stw	zero,0(r2)
    addi r2, r2, 4
   401e0:	10800104 	addi	r2,r2,4
    bltu r2, r3, 0b
   401e4:	10fffd36 	bltu	r2,r3,401dc <_start+0x24>
     * section aren't defined until alt_load() has been called).
     */
    mov   et, zero
#endif

    call alt_load
   401e8:	004ac780 	call	4ac78 <alt_load>

    /* Log that alt_main is about to be called. */
    ALT_LOG_PUTS(alt_log_msg_alt_main)

    /* Call the C entry point. It should never return. */
    call alt_main
   401ec:	004ae1c0 	call	4ae1c <alt_main>

000401f0 <alt_after_alt_main>:

    /* Wait in infinite loop in case alt_main does return. */
alt_after_alt_main:
    br alt_after_alt_main
   401f0:	003fff06 	br	401f0 <alt_after_alt_main>

000401f4 <crcCI>:
 * n = 6, Read  96 bits data from the custom instruction
 * n = 7, Read 128 bits data from the custom instruction*/
#define CRC_CI_MACRO(n, A) ALT_CI_CRC_CUSTOM_INSTRUCTION_0(n,A)      // __builtin_custom_ini(ALT_CI_CRC_N + (n & 0x7), (A))

unsigned long crcCI(unsigned char * input_data, unsigned long input_data_length)
{
   401f4:	defffb04 	addi	sp,sp,-20
   401f8:	df000415 	stw	fp,16(sp)
   401fc:	df000404 	addi	fp,sp,16
   40200:	e13ffe15 	stw	r4,-8(fp)
   40204:	e17fff15 	stw	r5,-4(fp)
  unsigned long index;
  /* copy of the data buffer pointer so that it can advance by different widths */
  void * input_data_copy = (void *)input_data;
   40208:	e0bffe17 	ldw	r2,-8(fp)
   4020c:	e0bffd15 	stw	r2,-12(fp)

  /* The custom instruction CRC will initialize to the inital remainder value */    
  CRC_CI_MACRO(0,0);
   40210:	0005883a 	mov	r2,zero
   40214:	1005c032 	custom	0,r2,r2,zero
  
  /* Write 32 bit data to the custom instruction.  If the buffer does not end
   * on a 32 bit boundary then the remaining data will be sent to the custom
   * instruction in the 'if' statement below.
   */
  for(index = 0; index < (input_data_length & 0xFFFFFFFC); index+=4)
   40218:	e03ffc15 	stw	zero,-16(fp)
   4021c:	00000906 	br	40244 <crcCI+0x50>
  {
    CRC_CI_MACRO(3, *(unsigned long *)input_data_copy);
   40220:	e0bffd17 	ldw	r2,-12(fp)
   40224:	10800017 	ldw	r2,0(r2)
   40228:	1005c0f2 	custom	3,r2,r2,zero
    input_data_copy += 4;  /* void pointer, must move by 4 for each word */
   4022c:	e0bffd17 	ldw	r2,-12(fp)
   40230:	10800104 	addi	r2,r2,4
   40234:	e0bffd15 	stw	r2,-12(fp)
  
  /* Write 32 bit data to the custom instruction.  If the buffer does not end
   * on a 32 bit boundary then the remaining data will be sent to the custom
   * instruction in the 'if' statement below.
   */
  for(index = 0; index < (input_data_length & 0xFFFFFFFC); index+=4)
   40238:	e0bffc17 	ldw	r2,-16(fp)
   4023c:	10800104 	addi	r2,r2,4
   40240:	e0bffc15 	stw	r2,-16(fp)
   40244:	e0ffff17 	ldw	r3,-4(fp)
   40248:	00bfff04 	movi	r2,-4
   4024c:	1884703a 	and	r2,r3,r2
   40250:	e0fffc17 	ldw	r3,-16(fp)
   40254:	18bff236 	bltu	r3,r2,40220 <crcCI+0x2c>
    CRC_CI_MACRO(3, *(unsigned long *)input_data_copy);
    input_data_copy += 4;  /* void pointer, must move by 4 for each word */
  }

  /* Write the remainder of the buffer if it does not end on a word boundary */  
  if((input_data_length & 0x3) == 0x3)  /* 3 bytes left */
   40258:	e0bfff17 	ldw	r2,-4(fp)
   4025c:	108000cc 	andi	r2,r2,3
   40260:	108000d8 	cmpnei	r2,r2,3
   40264:	10000c1e 	bne	r2,zero,40298 <crcCI+0xa4>
  {
    CRC_CI_MACRO(2, *(unsigned short *)input_data_copy);
   40268:	e0bffd17 	ldw	r2,-12(fp)
   4026c:	1080000b 	ldhu	r2,0(r2)
   40270:	10bfffcc 	andi	r2,r2,65535
   40274:	1005c0b2 	custom	2,r2,r2,zero
    input_data_copy += 2;
   40278:	e0bffd17 	ldw	r2,-12(fp)
   4027c:	10800084 	addi	r2,r2,2
   40280:	e0bffd15 	stw	r2,-12(fp)
    CRC_CI_MACRO(1, *(unsigned char *)input_data_copy);
   40284:	e0bffd17 	ldw	r2,-12(fp)
   40288:	10800003 	ldbu	r2,0(r2)
   4028c:	10803fcc 	andi	r2,r2,255
   40290:	1005c072 	custom	1,r2,r2,zero
   40294:	00001106 	br	402dc <crcCI+0xe8>
  }
  else if((input_data_length & 0x3) == 0x2) /* 2 bytes left */
   40298:	e0bfff17 	ldw	r2,-4(fp)
   4029c:	108000cc 	andi	r2,r2,3
   402a0:	10800098 	cmpnei	r2,r2,2
   402a4:	1000051e 	bne	r2,zero,402bc <crcCI+0xc8>
  {
    CRC_CI_MACRO(2, *(unsigned short *)input_data_copy);    
   402a8:	e0bffd17 	ldw	r2,-12(fp)
   402ac:	1080000b 	ldhu	r2,0(r2)
   402b0:	10bfffcc 	andi	r2,r2,65535
   402b4:	1005c0b2 	custom	2,r2,r2,zero
   402b8:	00000806 	br	402dc <crcCI+0xe8>
  }
  else if((input_data_length & 0x3) == 0x1) /* 1 byte left */
   402bc:	e0bfff17 	ldw	r2,-4(fp)
   402c0:	108000cc 	andi	r2,r2,3
   402c4:	10800058 	cmpnei	r2,r2,1
   402c8:	1000041e 	bne	r2,zero,402dc <crcCI+0xe8>
  {
    CRC_CI_MACRO(1, *(unsigned char *)input_data_copy);    
   402cc:	e0bffd17 	ldw	r2,-12(fp)
   402d0:	10800003 	ldbu	r2,0(r2)
   402d4:	10803fcc 	andi	r2,r2,255
   402d8:	1005c072 	custom	1,r2,r2,zero
  
  /* There are 4 registers in the CRC custom instruction.  Since
   * this example uses CRC-32 only the first register must be read
   * in order to receive the full result.
   */
  return CRC_CI_MACRO(4, 0);
   402dc:	0005883a 	mov	r2,zero
   402e0:	1005c132 	custom	4,r2,r2,zero
}
   402e4:	e037883a 	mov	sp,fp
   402e8:	df000017 	ldw	fp,0(sp)
   402ec:	dec00104 	addi	sp,sp,4
   402f0:	f800283a 	ret

000402f4 <reflect>:
 * Returns:   The reflection of the original data.
 *
 *********************************************************************/
static unsigned long
reflect(unsigned long data, unsigned char nBits)
{
   402f4:	defffb04 	addi	sp,sp,-20
   402f8:	df000415 	stw	fp,16(sp)
   402fc:	df000404 	addi	fp,sp,16
   40300:	e13ffe15 	stw	r4,-8(fp)
   40304:	2805883a 	mov	r2,r5
   40308:	e0bfff05 	stb	r2,-4(fp)
  unsigned long  reflection = 0x00000000;
   4030c:	e03ffc15 	stw	zero,-16(fp)
  unsigned char  bit;

  /*
   * Reflect the data about the center bit.
   */
  for (bit = 0; bit < nBits; ++bit)
   40310:	e03ffd05 	stb	zero,-12(fp)
   40314:	00001206 	br	40360 <reflect+0x6c>
  {
    /*
     * If the LSB bit is set, set the reflection of it.
     */
    if (data & 0x01)
   40318:	e0bffe17 	ldw	r2,-8(fp)
   4031c:	1080004c 	andi	r2,r2,1
   40320:	10000926 	beq	r2,zero,40348 <reflect+0x54>
    {
      reflection |= (1 << ((nBits - 1) - bit));
   40324:	e0bfff03 	ldbu	r2,-4(fp)
   40328:	10ffffc4 	addi	r3,r2,-1
   4032c:	e0bffd03 	ldbu	r2,-12(fp)
   40330:	1885c83a 	sub	r2,r3,r2
   40334:	00c00044 	movi	r3,1
   40338:	1884983a 	sll	r2,r3,r2
   4033c:	e0fffc17 	ldw	r3,-16(fp)
   40340:	1884b03a 	or	r2,r3,r2
   40344:	e0bffc15 	stw	r2,-16(fp)
    }

    data = (data >> 1);
   40348:	e0bffe17 	ldw	r2,-8(fp)
   4034c:	1004d07a 	srli	r2,r2,1
   40350:	e0bffe15 	stw	r2,-8(fp)
  unsigned char  bit;

  /*
   * Reflect the data about the center bit.
   */
  for (bit = 0; bit < nBits; ++bit)
   40354:	e0bffd03 	ldbu	r2,-12(fp)
   40358:	10800044 	addi	r2,r2,1
   4035c:	e0bffd05 	stb	r2,-12(fp)
   40360:	e0fffd03 	ldbu	r3,-12(fp)
   40364:	e0bfff03 	ldbu	r2,-4(fp)
   40368:	18bfeb36 	bltu	r3,r2,40318 <reflect+0x24>
    }

    data = (data >> 1);
  }

  return (reflection);
   4036c:	e0bffc17 	ldw	r2,-16(fp)

} /* reflect() */
   40370:	e037883a 	mov	sp,fp
   40374:	df000017 	ldw	fp,0(sp)
   40378:	dec00104 	addi	sp,sp,4
   4037c:	f800283a 	ret

00040380 <crcSlow>:
 * Returns:   The CRC of the message.
 *
 *********************************************************************/
crc
crcSlow(unsigned char const message[], int nBytes)
{
   40380:	defff904 	addi	sp,sp,-28
   40384:	dfc00615 	stw	ra,24(sp)
   40388:	df000515 	stw	fp,20(sp)
   4038c:	df000504 	addi	fp,sp,20
   40390:	e13ffe15 	stw	r4,-8(fp)
   40394:	e17fff15 	stw	r5,-4(fp)
    crc            remainder = INITIAL_REMAINDER;
   40398:	00bfffc4 	movi	r2,-1
   4039c:	e0bffb15 	stw	r2,-20(fp)


    /*
     * Perform modulo-2 division, a byte at a time.
     */
    for (byte = 0; byte < nBytes; ++byte)
   403a0:	e03ffc15 	stw	zero,-16(fp)
   403a4:	00002506 	br	4043c <crcSlow+0xbc>
    {
        /*
         * Bring the next byte into the remainder.
         */
        remainder ^= (REFLECT_DATA(message[byte]) << (WIDTH - 8));
   403a8:	e0bffc17 	ldw	r2,-16(fp)
   403ac:	e0fffe17 	ldw	r3,-8(fp)
   403b0:	1885883a 	add	r2,r3,r2
   403b4:	10800003 	ldbu	r2,0(r2)
   403b8:	10803fcc 	andi	r2,r2,255
   403bc:	1009883a 	mov	r4,r2
   403c0:	01400204 	movi	r5,8
   403c4:	00402f40 	call	402f4 <reflect>
   403c8:	10803fcc 	andi	r2,r2,255
   403cc:	1004963a 	slli	r2,r2,24
   403d0:	e0fffb17 	ldw	r3,-20(fp)
   403d4:	1884f03a 	xor	r2,r3,r2
   403d8:	e0bffb15 	stw	r2,-20(fp)

        /*
         * Perform modulo-2 division, a bit at a time.
         */
        for (bit = 8; bit > 0; --bit)
   403dc:	00800204 	movi	r2,8
   403e0:	e0bffd05 	stb	r2,-12(fp)
   403e4:	00001006 	br	40428 <crcSlow+0xa8>
        {
            /*
             * Try to divide the current data bit.
             */
            if (remainder & TOPBIT)
   403e8:	e0bffb17 	ldw	r2,-20(fp)
   403ec:	1000080e 	bge	r2,zero,40410 <crcSlow+0x90>
            {
                remainder = (remainder << 1) ^ POLYNOMIAL;
   403f0:	e0bffb17 	ldw	r2,-20(fp)
   403f4:	1085883a 	add	r2,r2,r2
   403f8:	1007883a 	mov	r3,r2
   403fc:	00813074 	movhi	r2,1217
   40400:	10876dc4 	addi	r2,r2,7607
   40404:	1884f03a 	xor	r2,r3,r2
   40408:	e0bffb15 	stw	r2,-20(fp)
   4040c:	00000306 	br	4041c <crcSlow+0x9c>
            }
            else
            {
                remainder = (remainder << 1);
   40410:	e0bffb17 	ldw	r2,-20(fp)
   40414:	1085883a 	add	r2,r2,r2
   40418:	e0bffb15 	stw	r2,-20(fp)
        remainder ^= (REFLECT_DATA(message[byte]) << (WIDTH - 8));

        /*
         * Perform modulo-2 division, a bit at a time.
         */
        for (bit = 8; bit > 0; --bit)
   4041c:	e0bffd03 	ldbu	r2,-12(fp)
   40420:	10bfffc4 	addi	r2,r2,-1
   40424:	e0bffd05 	stb	r2,-12(fp)
   40428:	e0bffd03 	ldbu	r2,-12(fp)
   4042c:	103fee1e 	bne	r2,zero,403e8 <crcSlow+0x68>


    /*
     * Perform modulo-2 division, a byte at a time.
     */
    for (byte = 0; byte < nBytes; ++byte)
   40430:	e0bffc17 	ldw	r2,-16(fp)
   40434:	10800044 	addi	r2,r2,1
   40438:	e0bffc15 	stw	r2,-16(fp)
   4043c:	e0fffc17 	ldw	r3,-16(fp)
   40440:	e0bfff17 	ldw	r2,-4(fp)
   40444:	18bfd816 	blt	r3,r2,403a8 <crcSlow+0x28>
    }

    /*
     * The final remainder is the CRC result.
     */
    return (REFLECT_REMAINDER(remainder) ^ FINAL_XOR_VALUE);
   40448:	e13ffb17 	ldw	r4,-20(fp)
   4044c:	01400804 	movi	r5,32
   40450:	00402f40 	call	402f4 <reflect>
   40454:	0084303a 	nor	r2,zero,r2

}   /* crcSlow() */
   40458:	e037883a 	mov	sp,fp
   4045c:	dfc00117 	ldw	ra,4(sp)
   40460:	df000017 	ldw	fp,0(sp)
   40464:	dec00204 	addi	sp,sp,8
   40468:	f800283a 	ret

0004046c <crcInit>:
 * Returns:   None defined.
 *
 *********************************************************************/
void
crcInit(void)
{
   4046c:	defffc04 	addi	sp,sp,-16
   40470:	df000315 	stw	fp,12(sp)
   40474:	df000304 	addi	fp,sp,12


    /*
     * Compute the remainder of each possible dividend.
     */
    for (dividend = 0; dividend < 256; ++dividend)
   40478:	e03ffe15 	stw	zero,-8(fp)
   4047c:	00002306 	br	4050c <crcInit+0xa0>
    {
        /*
         * Start with the dividend followed by zeros.
         */
        remainder = dividend << (WIDTH - 8);
   40480:	e0bffe17 	ldw	r2,-8(fp)
   40484:	1004963a 	slli	r2,r2,24
   40488:	e0bffd15 	stw	r2,-12(fp)

        /*
         * Perform modulo-2 division, a bit at a time.
         */
        for (bit = 8; bit > 0; --bit)
   4048c:	00800204 	movi	r2,8
   40490:	e0bfff05 	stb	r2,-4(fp)
   40494:	00001006 	br	404d8 <crcInit+0x6c>
        {
            /*
             * Try to divide the current data bit.
             */     
            if (remainder & TOPBIT)
   40498:	e0bffd17 	ldw	r2,-12(fp)
   4049c:	1000080e 	bge	r2,zero,404c0 <crcInit+0x54>
            {
                remainder = (remainder << 1) ^ POLYNOMIAL;
   404a0:	e0bffd17 	ldw	r2,-12(fp)
   404a4:	1085883a 	add	r2,r2,r2
   404a8:	1007883a 	mov	r3,r2
   404ac:	00813074 	movhi	r2,1217
   404b0:	10876dc4 	addi	r2,r2,7607
   404b4:	1884f03a 	xor	r2,r3,r2
   404b8:	e0bffd15 	stw	r2,-12(fp)
   404bc:	00000306 	br	404cc <crcInit+0x60>
            }
            else
            {
                remainder = (remainder << 1);
   404c0:	e0bffd17 	ldw	r2,-12(fp)
   404c4:	1085883a 	add	r2,r2,r2
   404c8:	e0bffd15 	stw	r2,-12(fp)
        remainder = dividend << (WIDTH - 8);

        /*
         * Perform modulo-2 division, a bit at a time.
         */
        for (bit = 8; bit > 0; --bit)
   404cc:	e0bfff03 	ldbu	r2,-4(fp)
   404d0:	10bfffc4 	addi	r2,r2,-1
   404d4:	e0bfff05 	stb	r2,-4(fp)
   404d8:	e0bfff03 	ldbu	r2,-4(fp)
   404dc:	103fee1e 	bne	r2,zero,40498 <crcInit+0x2c>
        }

        /*
         * Store the result into the table.
         */
        crcTable[dividend] = remainder;
   404e0:	00c00174 	movhi	r3,5
   404e4:	18c3bc04 	addi	r3,r3,3824
   404e8:	e0bffe17 	ldw	r2,-8(fp)
   404ec:	1085883a 	add	r2,r2,r2
   404f0:	1085883a 	add	r2,r2,r2
   404f4:	1885883a 	add	r2,r3,r2
   404f8:	e0fffd17 	ldw	r3,-12(fp)
   404fc:	10c00015 	stw	r3,0(r2)


    /*
     * Compute the remainder of each possible dividend.
     */
    for (dividend = 0; dividend < 256; ++dividend)
   40500:	e0bffe17 	ldw	r2,-8(fp)
   40504:	10800044 	addi	r2,r2,1
   40508:	e0bffe15 	stw	r2,-8(fp)
   4050c:	e0bffe17 	ldw	r2,-8(fp)
   40510:	10804010 	cmplti	r2,r2,256
   40514:	103fda1e 	bne	r2,zero,40480 <crcInit+0x14>
         * Store the result into the table.
         */
        crcTable[dividend] = remainder;
    }

}   /* crcInit() */
   40518:	e037883a 	mov	sp,fp
   4051c:	df000017 	ldw	fp,0(sp)
   40520:	dec00104 	addi	sp,sp,4
   40524:	f800283a 	ret

00040528 <crcFast>:
 * Returns:   The CRC of the message.
 *
 *********************************************************************/
crc
crcFast(unsigned char const message[], int nBytes)
{
   40528:	defff904 	addi	sp,sp,-28
   4052c:	dfc00615 	stw	ra,24(sp)
   40530:	df000515 	stw	fp,20(sp)
   40534:	df000504 	addi	fp,sp,20
   40538:	e13ffe15 	stw	r4,-8(fp)
   4053c:	e17fff15 	stw	r5,-4(fp)
    crc            remainder = INITIAL_REMAINDER;
   40540:	00bfffc4 	movi	r2,-1
   40544:	e0bffb15 	stw	r2,-20(fp)


    /*
     * Divide the message by the polynomial, a byte at a time.
     */
    for (byte = 0; byte < nBytes; ++byte)
   40548:	e03ffc15 	stw	zero,-16(fp)
   4054c:	00001b06 	br	405bc <crcFast+0x94>
    {
        data = REFLECT_DATA(message[byte]) ^ (remainder >> (WIDTH - 8));
   40550:	e0bffc17 	ldw	r2,-16(fp)
   40554:	e0fffe17 	ldw	r3,-8(fp)
   40558:	1885883a 	add	r2,r3,r2
   4055c:	10800003 	ldbu	r2,0(r2)
   40560:	10803fcc 	andi	r2,r2,255
   40564:	1009883a 	mov	r4,r2
   40568:	01400204 	movi	r5,8
   4056c:	00402f40 	call	402f4 <reflect>
   40570:	1007883a 	mov	r3,r2
   40574:	e0bffb17 	ldw	r2,-20(fp)
   40578:	1004d63a 	srli	r2,r2,24
   4057c:	1884f03a 	xor	r2,r3,r2
   40580:	e0bffd05 	stb	r2,-12(fp)
      remainder = crcTable[data] ^ (remainder << 8);
   40584:	e0bffd03 	ldbu	r2,-12(fp)
   40588:	00c00174 	movhi	r3,5
   4058c:	18c3bc04 	addi	r3,r3,3824
   40590:	1085883a 	add	r2,r2,r2
   40594:	1085883a 	add	r2,r2,r2
   40598:	1885883a 	add	r2,r3,r2
   4059c:	10c00017 	ldw	r3,0(r2)
   405a0:	e0bffb17 	ldw	r2,-20(fp)
   405a4:	1004923a 	slli	r2,r2,8
   405a8:	1884f03a 	xor	r2,r3,r2
   405ac:	e0bffb15 	stw	r2,-20(fp)


    /*
     * Divide the message by the polynomial, a byte at a time.
     */
    for (byte = 0; byte < nBytes; ++byte)
   405b0:	e0bffc17 	ldw	r2,-16(fp)
   405b4:	10800044 	addi	r2,r2,1
   405b8:	e0bffc15 	stw	r2,-16(fp)
   405bc:	e0fffc17 	ldw	r3,-16(fp)
   405c0:	e0bfff17 	ldw	r2,-4(fp)
   405c4:	18bfe216 	blt	r3,r2,40550 <crcFast+0x28>
    }

    /*
     * The final remainder is the CRC.
     */
    return (REFLECT_REMAINDER(remainder) ^ FINAL_XOR_VALUE);
   405c8:	e13ffb17 	ldw	r4,-20(fp)
   405cc:	01400804 	movi	r5,32
   405d0:	00402f40 	call	402f4 <reflect>
   405d4:	0084303a 	nor	r2,zero,r2

}   /* crcFast() */
   405d8:	e037883a 	mov	sp,fp
   405dc:	dfc00117 	ldw	ra,4(sp)
   405e0:	df000017 	ldw	fp,0(sp)
   405e4:	dec00204 	addi	sp,sp,8
   405e8:	f800283a 	ret

000405ec <main>:




int main()
{
   405ec:	deff9304 	addi	sp,sp,-436
   405f0:	dfc06c15 	stw	ra,432(sp)
   405f4:	df006b15 	stw	fp,428(sp)
   405f8:	dc406a15 	stw	r17,424(sp)
   405fc:	dc006915 	stw	r16,420(sp)
   40600:	df006904 	addi	fp,sp,420
  unsigned long buffer_counter, data_counter;
  unsigned long sw_slow_results[NUMBER_OF_BUFFERS];
  unsigned long sw_fast_results[NUMBER_OF_BUFFERS];
  unsigned long ci_results[NUMBER_OF_BUFFERS];
  unsigned char random_data = 0x5A;
   40604:	00801684 	movi	r2,90
   40608:	e0bf9905 	stb	r2,-412(fp)
  alt_u32 sw_slow_timeA, sw_slow_timeB;
  alt_u32 sw_fast_timeA, sw_fast_timeB;
  alt_u32 ci_timeA, ci_timeB;


  printf("+-----------------------------------------------------------+\n");
   4060c:	01000174 	movhi	r4,5
   40610:	21342004 	addi	r4,r4,-12160
   40614:	0041c2c0 	call	41c2c <puts>
  printf("| Comparison between software and custom instruction CRC32  |\n");
   40618:	01000174 	movhi	r4,5
   4061c:	21343004 	addi	r4,r4,-12096
   40620:	0041c2c0 	call	41c2c <puts>
  printf("+-----------------------------------------------------------+\n\n\n");
   40624:	01000174 	movhi	r4,5
   40628:	21344004 	addi	r4,r4,-12032
   4062c:	0041c2c0 	call	41c2c <puts>
  
  printf("System specification\n");
   40630:	01000174 	movhi	r4,5
   40634:	21345004 	addi	r4,r4,-11968
   40638:	0041c2c0 	call	41c2c <puts>
  printf("--------------------\n");
   4063c:	01000174 	movhi	r4,5
   40640:	21345604 	addi	r4,r4,-11944
   40644:	0041c2c0 	call	41c2c <puts>

  printf("System clock speed = %lu MHz\n", (unsigned long)ALT_CPU_FREQ /(unsigned long)1000000);
   40648:	01000174 	movhi	r4,5
   4064c:	21345c04 	addi	r4,r4,-11920
   40650:	01400c84 	movi	r5,50
   40654:	0041b6c0 	call	41b6c <printf>
  printf("Number of buffer locations = %d\n", NUMBER_OF_BUFFERS);
   40658:	01000174 	movhi	r4,5
   4065c:	21346404 	addi	r4,r4,-11888
   40660:	01400804 	movi	r5,32
   40664:	0041b6c0 	call	41b6c <printf>
  printf("Size of each buffer = %d bytes\n\n\n", BUFFER_SIZE);
   40668:	01000174 	movhi	r4,5
   4066c:	21346d04 	addi	r4,r4,-11852
   40670:	01404004 	movi	r5,256
   40674:	0041b6c0 	call	41b6c <printf>


  /* Initializing the data buffers */
  printf("Initializing all of the buffers with pseudo-random data\n");
   40678:	01000174 	movhi	r4,5
   4067c:	21347604 	addi	r4,r4,-11816
   40680:	0041c2c0 	call	41c2c <puts>
  printf("-------------------------------------------------------\n");
   40684:	01000174 	movhi	r4,5
   40688:	21348404 	addi	r4,r4,-11760
   4068c:	0041c2c0 	call	41c2c <puts>
  for(buffer_counter = 0; buffer_counter < NUMBER_OF_BUFFERS; buffer_counter++)
   40690:	e03f9715 	stw	zero,-420(fp)
   40694:	00001d06 	br	4070c <main+0x120>
  {
    for(data_counter = 0; data_counter < BUFFER_SIZE; data_counter++)
   40698:	e03f9815 	stw	zero,-416(fp)
   4069c:	00001506 	br	406f4 <main+0x108>
    {
      data_buffer_region[buffer_counter][data_counter] = random_data;
   406a0:	00c00174 	movhi	r3,5
   406a4:	18c4bc04 	addi	r3,r3,4848
   406a8:	e0bf9717 	ldw	r2,-420(fp)
   406ac:	1008923a 	slli	r4,r2,8
   406b0:	e0bf9817 	ldw	r2,-416(fp)
   406b4:	2085883a 	add	r2,r4,r2
   406b8:	1885883a 	add	r2,r3,r2
   406bc:	e0ff9903 	ldbu	r3,-412(fp)
   406c0:	10c00005 	stb	r3,0(r2)
      random_data = (random_data >> 4) + (random_data << 4) + (data_counter & 0xFF);
   406c4:	e0bf9903 	ldbu	r2,-412(fp)
   406c8:	10c03fcc 	andi	r3,r2,255
   406cc:	1806d13a 	srli	r3,r3,4
   406d0:	1004913a 	slli	r2,r2,4
   406d4:	1884b03a 	or	r2,r3,r2
   406d8:	1007883a 	mov	r3,r2
   406dc:	e0bf9817 	ldw	r2,-416(fp)
   406e0:	1885883a 	add	r2,r3,r2
   406e4:	e0bf9905 	stb	r2,-412(fp)
  /* Initializing the data buffers */
  printf("Initializing all of the buffers with pseudo-random data\n");
  printf("-------------------------------------------------------\n");
  for(buffer_counter = 0; buffer_counter < NUMBER_OF_BUFFERS; buffer_counter++)
  {
    for(data_counter = 0; data_counter < BUFFER_SIZE; data_counter++)
   406e8:	e0bf9817 	ldw	r2,-416(fp)
   406ec:	10800044 	addi	r2,r2,1
   406f0:	e0bf9815 	stw	r2,-416(fp)
   406f4:	e0bf9817 	ldw	r2,-416(fp)
   406f8:	10804030 	cmpltui	r2,r2,256
   406fc:	103fe81e 	bne	r2,zero,406a0 <main+0xb4>


  /* Initializing the data buffers */
  printf("Initializing all of the buffers with pseudo-random data\n");
  printf("-------------------------------------------------------\n");
  for(buffer_counter = 0; buffer_counter < NUMBER_OF_BUFFERS; buffer_counter++)
   40700:	e0bf9717 	ldw	r2,-420(fp)
   40704:	10800044 	addi	r2,r2,1
   40708:	e0bf9715 	stw	r2,-420(fp)
   4070c:	e0bf9717 	ldw	r2,-420(fp)
   40710:	10800830 	cmpltui	r2,r2,32
   40714:	103fe01e 	bne	r2,zero,40698 <main+0xac>
    {
      data_buffer_region[buffer_counter][data_counter] = random_data;
      random_data = (random_data >> 4) + (random_data << 4) + (data_counter & 0xFF);
    }
  }
  printf("Initialization completed\n\n\n");
   40718:	01000174 	movhi	r4,5
   4071c:	21349204 	addi	r4,r4,-11704
   40720:	0041c2c0 	call	41c2c <puts>


  if(alt_timestamp_start() < 0) // starts the timestamp timer
   40724:	004bed40 	call	4bed4 <alt_timestamp_start>
   40728:	1000050e 	bge	r2,zero,40740 <main+0x154>
  {
    printf("Please add the high resolution timer to the timestamp timer setting in the syslib properties page.\n");
   4072c:	01000174 	movhi	r4,5
   40730:	21349904 	addi	r4,r4,-11676
   40734:	0041c2c0 	call	41c2c <puts>
    exit(1);
   40738:	01000044 	movi	r4,1
   4073c:	0041b080 	call	41b08 <exit>
  }


  /* Slow software CRC based on a modulo 2 division implementation */
  printf("Running the software CRC\n");
   40740:	01000174 	movhi	r4,5
   40744:	2134b204 	addi	r4,r4,-11576
   40748:	0041c2c0 	call	41c2c <puts>
  printf("------------------------\n");
   4074c:	01000174 	movhi	r4,5
   40750:	2134b904 	addi	r4,r4,-11548
   40754:	0041c2c0 	call	41c2c <puts>
  sw_slow_timeA = alt_timestamp();
   40758:	004bf5c0 	call	4bf5c <alt_timestamp>
   4075c:	e0bf9a15 	stw	r2,-408(fp)

  for(buffer_counter = 0; buffer_counter < NUMBER_OF_BUFFERS; buffer_counter++)
   40760:	e03f9715 	stw	zero,-420(fp)
   40764:	00001306 	br	407b4 <main+0x1c8>
  {
    sw_slow_results[buffer_counter] = crcSlow(data_buffer_region[buffer_counter], BUFFER_SIZE);
   40768:	e0bf9717 	ldw	r2,-420(fp)
   4076c:	1006923a 	slli	r3,r2,8
   40770:	00800174 	movhi	r2,5
   40774:	1084bc04 	addi	r2,r2,4848
   40778:	1885883a 	add	r2,r3,r2
   4077c:	1009883a 	mov	r4,r2
   40780:	01404004 	movi	r5,256
   40784:	00403800 	call	40380 <crcSlow>
   40788:	1007883a 	mov	r3,r2
   4078c:	e0bf9717 	ldw	r2,-420(fp)
   40790:	1085883a 	add	r2,r2,r2
   40794:	1085883a 	add	r2,r2,r2
   40798:	e13f9704 	addi	r4,fp,-420
   4079c:	2085883a 	add	r2,r4,r2
   407a0:	10800904 	addi	r2,r2,36
   407a4:	10c00015 	stw	r3,0(r2)
  /* Slow software CRC based on a modulo 2 division implementation */
  printf("Running the software CRC\n");
  printf("------------------------\n");
  sw_slow_timeA = alt_timestamp();

  for(buffer_counter = 0; buffer_counter < NUMBER_OF_BUFFERS; buffer_counter++)
   407a8:	e0bf9717 	ldw	r2,-420(fp)
   407ac:	10800044 	addi	r2,r2,1
   407b0:	e0bf9715 	stw	r2,-420(fp)
   407b4:	e0bf9717 	ldw	r2,-420(fp)
   407b8:	10800830 	cmpltui	r2,r2,32
   407bc:	103fea1e 	bne	r2,zero,40768 <main+0x17c>
  {
    sw_slow_results[buffer_counter] = crcSlow(data_buffer_region[buffer_counter], BUFFER_SIZE);
  }
 sw_slow_timeB = alt_timestamp();
   407c0:	004bf5c0 	call	4bf5c <alt_timestamp>
   407c4:	e0bf9b15 	stw	r2,-404(fp)

  printf("Completed\n\n\n");
   407c8:	01000174 	movhi	r4,5
   407cc:	2134c004 	addi	r4,r4,-11520
   407d0:	0041c2c0 	call	41c2c <puts>


  /* Fast software CRC based on a lookup table implementation */
  crcInit();
   407d4:	004046c0 	call	4046c <crcInit>
  printf("Running the optimized software CRC\n");
   407d8:	01000174 	movhi	r4,5
   407dc:	2134c304 	addi	r4,r4,-11508
   407e0:	0041c2c0 	call	41c2c <puts>
  printf("----------------------------------\n");
   407e4:	01000174 	movhi	r4,5
   407e8:	2134cc04 	addi	r4,r4,-11472
   407ec:	0041c2c0 	call	41c2c <puts>
  sw_fast_timeA = alt_timestamp();
   407f0:	004bf5c0 	call	4bf5c <alt_timestamp>
   407f4:	e0bf9c15 	stw	r2,-400(fp)
  for(buffer_counter = 0; buffer_counter < NUMBER_OF_BUFFERS; buffer_counter++)
   407f8:	e03f9715 	stw	zero,-420(fp)
   407fc:	00001306 	br	4084c <main+0x260>
  {
    sw_fast_results[buffer_counter] = crcFast(data_buffer_region[buffer_counter], BUFFER_SIZE);
   40800:	e0bf9717 	ldw	r2,-420(fp)
   40804:	1006923a 	slli	r3,r2,8
   40808:	00800174 	movhi	r2,5
   4080c:	1084bc04 	addi	r2,r2,4848
   40810:	1885883a 	add	r2,r3,r2
   40814:	1009883a 	mov	r4,r2
   40818:	01404004 	movi	r5,256
   4081c:	00405280 	call	40528 <crcFast>
   40820:	1007883a 	mov	r3,r2
   40824:	e0bf9717 	ldw	r2,-420(fp)
   40828:	1085883a 	add	r2,r2,r2
   4082c:	1085883a 	add	r2,r2,r2
   40830:	e17f9704 	addi	r5,fp,-420
   40834:	2885883a 	add	r2,r5,r2
   40838:	10802904 	addi	r2,r2,164
   4083c:	10c00015 	stw	r3,0(r2)
  /* Fast software CRC based on a lookup table implementation */
  crcInit();
  printf("Running the optimized software CRC\n");
  printf("----------------------------------\n");
  sw_fast_timeA = alt_timestamp();
  for(buffer_counter = 0; buffer_counter < NUMBER_OF_BUFFERS; buffer_counter++)
   40840:	e0bf9717 	ldw	r2,-420(fp)
   40844:	10800044 	addi	r2,r2,1
   40848:	e0bf9715 	stw	r2,-420(fp)
   4084c:	e0bf9717 	ldw	r2,-420(fp)
   40850:	10800830 	cmpltui	r2,r2,32
   40854:	103fea1e 	bne	r2,zero,40800 <main+0x214>
  {
    sw_fast_results[buffer_counter] = crcFast(data_buffer_region[buffer_counter], BUFFER_SIZE);
  }
 sw_fast_timeB = alt_timestamp();
   40858:	004bf5c0 	call	4bf5c <alt_timestamp>
   4085c:	e0bf9d15 	stw	r2,-396(fp)
  printf("Completed\n\n\n");
   40860:	01000174 	movhi	r4,5
   40864:	2134c004 	addi	r4,r4,-11520
   40868:	0041c2c0 	call	41c2c <puts>


  /* Custom instruction CRC */
  printf("Running the custom instruction CRC\n");
   4086c:	01000174 	movhi	r4,5
   40870:	2134d504 	addi	r4,r4,-11436
   40874:	0041c2c0 	call	41c2c <puts>
  printf("----------------------------------\n");
   40878:	01000174 	movhi	r4,5
   4087c:	2134cc04 	addi	r4,r4,-11472
   40880:	0041c2c0 	call	41c2c <puts>
 ci_timeA = alt_timestamp();
   40884:	004bf5c0 	call	4bf5c <alt_timestamp>
   40888:	e0bf9e15 	stw	r2,-392(fp)
  for(buffer_counter = 0; buffer_counter < NUMBER_OF_BUFFERS; buffer_counter++)
   4088c:	e03f9715 	stw	zero,-420(fp)
   40890:	00001306 	br	408e0 <main+0x2f4>
  {
    ci_results[buffer_counter] = crcCI(data_buffer_region[buffer_counter], BUFFER_SIZE);
   40894:	e0bf9717 	ldw	r2,-420(fp)
   40898:	1006923a 	slli	r3,r2,8
   4089c:	00800174 	movhi	r2,5
   408a0:	1084bc04 	addi	r2,r2,4848
   408a4:	1885883a 	add	r2,r3,r2
   408a8:	1009883a 	mov	r4,r2
   408ac:	01404004 	movi	r5,256
   408b0:	00401f40 	call	401f4 <crcCI>
   408b4:	1007883a 	mov	r3,r2
   408b8:	e0bf9717 	ldw	r2,-420(fp)
   408bc:	1085883a 	add	r2,r2,r2
   408c0:	1085883a 	add	r2,r2,r2
   408c4:	e13f9704 	addi	r4,fp,-420
   408c8:	2085883a 	add	r2,r4,r2
   408cc:	10804904 	addi	r2,r2,292
   408d0:	10c00015 	stw	r3,0(r2)

  /* Custom instruction CRC */
  printf("Running the custom instruction CRC\n");
  printf("----------------------------------\n");
 ci_timeA = alt_timestamp();
  for(buffer_counter = 0; buffer_counter < NUMBER_OF_BUFFERS; buffer_counter++)
   408d4:	e0bf9717 	ldw	r2,-420(fp)
   408d8:	10800044 	addi	r2,r2,1
   408dc:	e0bf9715 	stw	r2,-420(fp)
   408e0:	e0bf9717 	ldw	r2,-420(fp)
   408e4:	10800830 	cmpltui	r2,r2,32
   408e8:	103fea1e 	bne	r2,zero,40894 <main+0x2a8>
  {
    ci_results[buffer_counter] = crcCI(data_buffer_region[buffer_counter], BUFFER_SIZE);
  }
  ci_timeB = alt_timestamp();
   408ec:	004bf5c0 	call	4bf5c <alt_timestamp>
   408f0:	e0bf9f15 	stw	r2,-388(fp)
  printf("Completed\n\n\n");
   408f4:	01000174 	movhi	r4,5
   408f8:	2134c004 	addi	r4,r4,-11520
   408fc:	0041c2c0 	call	41c2c <puts>

  /* Validation of results */  
  printf("Validating the CRC results from all implementations\n");
   40900:	01000174 	movhi	r4,5
   40904:	2134de04 	addi	r4,r4,-11400
   40908:	0041c2c0 	call	41c2c <puts>
  printf("----------------------------------------------------\n");
   4090c:	01000174 	movhi	r4,5
   40910:	2134eb04 	addi	r4,r4,-11348
   40914:	0041c2c0 	call	41c2c <puts>
  for(buffer_counter = 0; buffer_counter < NUMBER_OF_BUFFERS; buffer_counter++)
   40918:	e03f9715 	stw	zero,-420(fp)
   4091c:	00004106 	br	40a24 <main+0x438>
  {
    /* Test every combination of results to make sure they are consistant */
    if((sw_slow_results[buffer_counter] != ci_results[buffer_counter]) | 
   40920:	e0bf9717 	ldw	r2,-420(fp)
   40924:	1085883a 	add	r2,r2,r2
   40928:	1085883a 	add	r2,r2,r2
   4092c:	e17f9704 	addi	r5,fp,-420
   40930:	2885883a 	add	r2,r5,r2
   40934:	10800904 	addi	r2,r2,36
   40938:	10c00017 	ldw	r3,0(r2)
   4093c:	e0bf9717 	ldw	r2,-420(fp)
   40940:	1085883a 	add	r2,r2,r2
   40944:	1085883a 	add	r2,r2,r2
   40948:	e13f9704 	addi	r4,fp,-420
   4094c:	2085883a 	add	r2,r4,r2
   40950:	10804904 	addi	r2,r2,292
   40954:	10800017 	ldw	r2,0(r2)
   40958:	1884c03a 	cmpne	r2,r3,r2
   4095c:	1007883a 	mov	r3,r2
       (sw_fast_results[buffer_counter] != ci_results[buffer_counter]))
   40960:	e0bf9717 	ldw	r2,-420(fp)
   40964:	1085883a 	add	r2,r2,r2
   40968:	1085883a 	add	r2,r2,r2
   4096c:	e17f9704 	addi	r5,fp,-420
   40970:	2885883a 	add	r2,r5,r2
   40974:	10802904 	addi	r2,r2,164
   40978:	11000017 	ldw	r4,0(r2)
   4097c:	e0bf9717 	ldw	r2,-420(fp)
   40980:	1085883a 	add	r2,r2,r2
   40984:	1085883a 	add	r2,r2,r2
   40988:	e17f9704 	addi	r5,fp,-420
   4098c:	2885883a 	add	r2,r5,r2
   40990:	10804904 	addi	r2,r2,292
   40994:	10800017 	ldw	r2,0(r2)
  printf("Validating the CRC results from all implementations\n");
  printf("----------------------------------------------------\n");
  for(buffer_counter = 0; buffer_counter < NUMBER_OF_BUFFERS; buffer_counter++)
  {
    /* Test every combination of results to make sure they are consistant */
    if((sw_slow_results[buffer_counter] != ci_results[buffer_counter]) | 
   40998:	2084c03a 	cmpne	r2,r4,r2
   4099c:	1884b03a 	or	r2,r3,r2
   409a0:	10803fcc 	andi	r2,r2,255
   409a4:	10001c26 	beq	r2,zero,40a18 <main+0x42c>
       (sw_fast_results[buffer_counter] != ci_results[buffer_counter]))
    {
      printf("FAILURE!  Software CRC = 0x%lx, Optimized Software CRC = 0x%lx, Custom Instruction CRC = 0x%lx,\n",
   409a8:	e0bf9717 	ldw	r2,-420(fp)
   409ac:	1085883a 	add	r2,r2,r2
   409b0:	1085883a 	add	r2,r2,r2
   409b4:	e0ff9704 	addi	r3,fp,-420
   409b8:	1885883a 	add	r2,r3,r2
   409bc:	10800904 	addi	r2,r2,36
   409c0:	11400017 	ldw	r5,0(r2)
   409c4:	e0bf9717 	ldw	r2,-420(fp)
   409c8:	1085883a 	add	r2,r2,r2
   409cc:	1085883a 	add	r2,r2,r2
   409d0:	e13f9704 	addi	r4,fp,-420
   409d4:	2085883a 	add	r2,r4,r2
   409d8:	10802904 	addi	r2,r2,164
   409dc:	10c00017 	ldw	r3,0(r2)
   409e0:	e0bf9717 	ldw	r2,-420(fp)
   409e4:	1085883a 	add	r2,r2,r2
   409e8:	1085883a 	add	r2,r2,r2
   409ec:	e13f9704 	addi	r4,fp,-420
   409f0:	2085883a 	add	r2,r4,r2
   409f4:	10804904 	addi	r2,r2,292
   409f8:	10800017 	ldw	r2,0(r2)
   409fc:	01000174 	movhi	r4,5
   40a00:	2134f904 	addi	r4,r4,-11292
   40a04:	180d883a 	mov	r6,r3
   40a08:	100f883a 	mov	r7,r2
   40a0c:	0041b6c0 	call	41b6c <printf>
      sw_slow_results[buffer_counter], sw_fast_results[buffer_counter], ci_results[buffer_counter]);       
      exit(1);     
   40a10:	01000044 	movi	r4,1
   40a14:	0041b080 	call	41b08 <exit>
  printf("Completed\n\n\n");

  /* Validation of results */  
  printf("Validating the CRC results from all implementations\n");
  printf("----------------------------------------------------\n");
  for(buffer_counter = 0; buffer_counter < NUMBER_OF_BUFFERS; buffer_counter++)
   40a18:	e0bf9717 	ldw	r2,-420(fp)
   40a1c:	10800044 	addi	r2,r2,1
   40a20:	e0bf9715 	stw	r2,-420(fp)
   40a24:	e0bf9717 	ldw	r2,-420(fp)
   40a28:	10800830 	cmpltui	r2,r2,32
   40a2c:	103fbc1e 	bne	r2,zero,40920 <main+0x334>
      printf("FAILURE!  Software CRC = 0x%lx, Optimized Software CRC = 0x%lx, Custom Instruction CRC = 0x%lx,\n",
      sw_slow_results[buffer_counter], sw_fast_results[buffer_counter], ci_results[buffer_counter]);       
      exit(1);     
    }
  }
  printf("All CRC implementations produced the same results\n\n\n");
   40a30:	01000174 	movhi	r4,5
   40a34:	21351204 	addi	r4,r4,-11192
   40a38:	0041c2c0 	call	41c2c <puts>


  // Report processing times
  printf("Processing time for each implementation\n");
   40a3c:	01000174 	movhi	r4,5
   40a40:	21351f04 	addi	r4,r4,-11140
   40a44:	0041c2c0 	call	41c2c <puts>
  printf("---------------------------------------\n");
   40a48:	01000174 	movhi	r4,5
   40a4c:	21352904 	addi	r4,r4,-11100
   40a50:	0041c2c0 	call	41c2c <puts>
  printf("Software CRC = %.2lf ms\n", (double)(sw_slow_timeB - sw_slow_timeA) * 1000 / alt_timestamp_freq());
   40a54:	e0ff9b17 	ldw	r3,-404(fp)
   40a58:	e0bf9a17 	ldw	r2,-408(fp)
   40a5c:	1885c83a 	sub	r2,r3,r2
   40a60:	1009883a 	mov	r4,r2
   40a64:	00414580 	call	41458 <__floatunsidf>
   40a68:	100b883a 	mov	r5,r2
   40a6c:	180d883a 	mov	r6,r3
   40a70:	2809883a 	mov	r4,r5
   40a74:	300b883a 	mov	r5,r6
   40a78:	000d883a 	mov	r6,zero
   40a7c:	01d023f4 	movhi	r7,16527
   40a80:	39d00004 	addi	r7,r7,16384
   40a84:	0040fc00 	call	40fc0 <__muldf3>
   40a88:	1009883a 	mov	r4,r2
   40a8c:	180b883a 	mov	r5,r3
   40a90:	2021883a 	mov	r16,r4
   40a94:	2823883a 	mov	r17,r5
   40a98:	004bfec0 	call	4bfec <alt_timestamp_freq>
   40a9c:	1009883a 	mov	r4,r2
   40aa0:	00414580 	call	41458 <__floatunsidf>
   40aa4:	100f883a 	mov	r7,r2
   40aa8:	1811883a 	mov	r8,r3
   40aac:	8009883a 	mov	r4,r16
   40ab0:	880b883a 	mov	r5,r17
   40ab4:	380d883a 	mov	r6,r7
   40ab8:	400f883a 	mov	r7,r8
   40abc:	00412a40 	call	412a4 <__divdf3>
   40ac0:	1009883a 	mov	r4,r2
   40ac4:	180b883a 	mov	r5,r3
   40ac8:	2005883a 	mov	r2,r4
   40acc:	2807883a 	mov	r3,r5
   40ad0:	01000174 	movhi	r4,5
   40ad4:	21353304 	addi	r4,r4,-11060
   40ad8:	100b883a 	mov	r5,r2
   40adc:	180d883a 	mov	r6,r3
   40ae0:	0041b6c0 	call	41b6c <printf>
  printf("Optimized software CRC = %.2lf ms\n", (double)(sw_fast_timeB - sw_fast_timeA) * 1000 / alt_timestamp_freq());
   40ae4:	e0ff9d17 	ldw	r3,-396(fp)
   40ae8:	e0bf9c17 	ldw	r2,-400(fp)
   40aec:	1885c83a 	sub	r2,r3,r2
   40af0:	1009883a 	mov	r4,r2
   40af4:	00414580 	call	41458 <__floatunsidf>
   40af8:	100b883a 	mov	r5,r2
   40afc:	180d883a 	mov	r6,r3
   40b00:	2809883a 	mov	r4,r5
   40b04:	300b883a 	mov	r5,r6
   40b08:	000d883a 	mov	r6,zero
   40b0c:	01d023f4 	movhi	r7,16527
   40b10:	39d00004 	addi	r7,r7,16384
   40b14:	0040fc00 	call	40fc0 <__muldf3>
   40b18:	1009883a 	mov	r4,r2
   40b1c:	180b883a 	mov	r5,r3
   40b20:	2021883a 	mov	r16,r4
   40b24:	2823883a 	mov	r17,r5
   40b28:	004bfec0 	call	4bfec <alt_timestamp_freq>
   40b2c:	1009883a 	mov	r4,r2
   40b30:	00414580 	call	41458 <__floatunsidf>
   40b34:	100f883a 	mov	r7,r2
   40b38:	1811883a 	mov	r8,r3
   40b3c:	8009883a 	mov	r4,r16
   40b40:	880b883a 	mov	r5,r17
   40b44:	380d883a 	mov	r6,r7
   40b48:	400f883a 	mov	r7,r8
   40b4c:	00412a40 	call	412a4 <__divdf3>
   40b50:	1009883a 	mov	r4,r2
   40b54:	180b883a 	mov	r5,r3
   40b58:	2005883a 	mov	r2,r4
   40b5c:	2807883a 	mov	r3,r5
   40b60:	01000174 	movhi	r4,5
   40b64:	21353a04 	addi	r4,r4,-11032
   40b68:	100b883a 	mov	r5,r2
   40b6c:	180d883a 	mov	r6,r3
   40b70:	0041b6c0 	call	41b6c <printf>
  printf("Custom instruction CRC = %.2lf ms\n\n\n", (double)(ci_timeB - ci_timeA) * 1000 / alt_timestamp_freq());
   40b74:	e0ff9f17 	ldw	r3,-388(fp)
   40b78:	e0bf9e17 	ldw	r2,-392(fp)
   40b7c:	1885c83a 	sub	r2,r3,r2
   40b80:	1009883a 	mov	r4,r2
   40b84:	00414580 	call	41458 <__floatunsidf>
   40b88:	100b883a 	mov	r5,r2
   40b8c:	180d883a 	mov	r6,r3
   40b90:	2809883a 	mov	r4,r5
   40b94:	300b883a 	mov	r5,r6
   40b98:	000d883a 	mov	r6,zero
   40b9c:	01d023f4 	movhi	r7,16527
   40ba0:	39d00004 	addi	r7,r7,16384
   40ba4:	0040fc00 	call	40fc0 <__muldf3>
   40ba8:	1009883a 	mov	r4,r2
   40bac:	180b883a 	mov	r5,r3
   40bb0:	2021883a 	mov	r16,r4
   40bb4:	2823883a 	mov	r17,r5
   40bb8:	004bfec0 	call	4bfec <alt_timestamp_freq>
   40bbc:	1009883a 	mov	r4,r2
   40bc0:	00414580 	call	41458 <__floatunsidf>
   40bc4:	100f883a 	mov	r7,r2
   40bc8:	1811883a 	mov	r8,r3
   40bcc:	8009883a 	mov	r4,r16
   40bd0:	880b883a 	mov	r5,r17
   40bd4:	380d883a 	mov	r6,r7
   40bd8:	400f883a 	mov	r7,r8
   40bdc:	00412a40 	call	412a4 <__divdf3>
   40be0:	1009883a 	mov	r4,r2
   40be4:	180b883a 	mov	r5,r3
   40be8:	2005883a 	mov	r2,r4
   40bec:	2807883a 	mov	r3,r5
   40bf0:	01000174 	movhi	r4,5
   40bf4:	21354304 	addi	r4,r4,-10996
   40bf8:	100b883a 	mov	r5,r2
   40bfc:	180d883a 	mov	r6,r3
   40c00:	0041b6c0 	call	41b6c <printf>

  printf("Processing throughput for each implementation\n"); // throughput = total bits / (time(s) * 1000000)
   40c04:	01000174 	movhi	r4,5
   40c08:	21354d04 	addi	r4,r4,-10956
   40c0c:	0041c2c0 	call	41c2c <puts>
  printf("---------------------------------------------\n");
   40c10:	01000174 	movhi	r4,5
   40c14:	21355904 	addi	r4,r4,-10908
   40c18:	0041c2c0 	call	41c2c <puts>
  printf("Software CRC = %.2lf Mbps\n", (8.0 * NUMBER_OF_BUFFERS * BUFFER_SIZE) / ((double)(sw_slow_timeB - sw_slow_timeA) / alt_timestamp_freq() * 1000000));
   40c1c:	e0ff9b17 	ldw	r3,-404(fp)
   40c20:	e0bf9a17 	ldw	r2,-408(fp)
   40c24:	1885c83a 	sub	r2,r3,r2
   40c28:	1009883a 	mov	r4,r2
   40c2c:	00414580 	call	41458 <__floatunsidf>
   40c30:	1021883a 	mov	r16,r2
   40c34:	1823883a 	mov	r17,r3
   40c38:	004bfec0 	call	4bfec <alt_timestamp_freq>
   40c3c:	1009883a 	mov	r4,r2
   40c40:	00414580 	call	41458 <__floatunsidf>
   40c44:	100f883a 	mov	r7,r2
   40c48:	1811883a 	mov	r8,r3
   40c4c:	8009883a 	mov	r4,r16
   40c50:	880b883a 	mov	r5,r17
   40c54:	380d883a 	mov	r6,r7
   40c58:	400f883a 	mov	r7,r8
   40c5c:	00412a40 	call	412a4 <__divdf3>
   40c60:	1009883a 	mov	r4,r2
   40c64:	180b883a 	mov	r5,r3
   40c68:	2005883a 	mov	r2,r4
   40c6c:	2807883a 	mov	r3,r5
   40c70:	1009883a 	mov	r4,r2
   40c74:	180b883a 	mov	r5,r3
   40c78:	000d883a 	mov	r6,zero
   40c7c:	01d04bf4 	movhi	r7,16687
   40c80:	39e12004 	addi	r7,r7,-31616
   40c84:	0040fc00 	call	40fc0 <__muldf3>
   40c88:	1009883a 	mov	r4,r2
   40c8c:	180b883a 	mov	r5,r3
   40c90:	2005883a 	mov	r2,r4
   40c94:	2807883a 	mov	r3,r5
   40c98:	0009883a 	mov	r4,zero
   40c9c:	01503c34 	movhi	r5,16624
   40ca0:	100d883a 	mov	r6,r2
   40ca4:	180f883a 	mov	r7,r3
   40ca8:	00412a40 	call	412a4 <__divdf3>
   40cac:	1009883a 	mov	r4,r2
   40cb0:	180b883a 	mov	r5,r3
   40cb4:	2005883a 	mov	r2,r4
   40cb8:	2807883a 	mov	r3,r5
   40cbc:	01000174 	movhi	r4,5
   40cc0:	21356504 	addi	r4,r4,-10860
   40cc4:	100b883a 	mov	r5,r2
   40cc8:	180d883a 	mov	r6,r3
   40ccc:	0041b6c0 	call	41b6c <printf>
  printf("Optimized software CRC = %.2lf Mbps\n", (8.0 * NUMBER_OF_BUFFERS * BUFFER_SIZE) / ((double)(sw_fast_timeB - sw_fast_timeA) / alt_timestamp_freq() * 1000000));
   40cd0:	e0ff9d17 	ldw	r3,-396(fp)
   40cd4:	e0bf9c17 	ldw	r2,-400(fp)
   40cd8:	1885c83a 	sub	r2,r3,r2
   40cdc:	1009883a 	mov	r4,r2
   40ce0:	00414580 	call	41458 <__floatunsidf>
   40ce4:	1021883a 	mov	r16,r2
   40ce8:	1823883a 	mov	r17,r3
   40cec:	004bfec0 	call	4bfec <alt_timestamp_freq>
   40cf0:	1009883a 	mov	r4,r2
   40cf4:	00414580 	call	41458 <__floatunsidf>
   40cf8:	100f883a 	mov	r7,r2
   40cfc:	1811883a 	mov	r8,r3
   40d00:	8009883a 	mov	r4,r16
   40d04:	880b883a 	mov	r5,r17
   40d08:	380d883a 	mov	r6,r7
   40d0c:	400f883a 	mov	r7,r8
   40d10:	00412a40 	call	412a4 <__divdf3>
   40d14:	1009883a 	mov	r4,r2
   40d18:	180b883a 	mov	r5,r3
   40d1c:	2005883a 	mov	r2,r4
   40d20:	2807883a 	mov	r3,r5
   40d24:	1009883a 	mov	r4,r2
   40d28:	180b883a 	mov	r5,r3
   40d2c:	000d883a 	mov	r6,zero
   40d30:	01d04bf4 	movhi	r7,16687
   40d34:	39e12004 	addi	r7,r7,-31616
   40d38:	0040fc00 	call	40fc0 <__muldf3>
   40d3c:	1009883a 	mov	r4,r2
   40d40:	180b883a 	mov	r5,r3
   40d44:	2005883a 	mov	r2,r4
   40d48:	2807883a 	mov	r3,r5
   40d4c:	0009883a 	mov	r4,zero
   40d50:	01503c34 	movhi	r5,16624
   40d54:	100d883a 	mov	r6,r2
   40d58:	180f883a 	mov	r7,r3
   40d5c:	00412a40 	call	412a4 <__divdf3>
   40d60:	1009883a 	mov	r4,r2
   40d64:	180b883a 	mov	r5,r3
   40d68:	2005883a 	mov	r2,r4
   40d6c:	2807883a 	mov	r3,r5
   40d70:	01000174 	movhi	r4,5
   40d74:	21356c04 	addi	r4,r4,-10832
   40d78:	100b883a 	mov	r5,r2
   40d7c:	180d883a 	mov	r6,r3
   40d80:	0041b6c0 	call	41b6c <printf>
  printf("Custom instruction CRC = %.2lf Mbps\n\n\n", (8.0 * NUMBER_OF_BUFFERS * BUFFER_SIZE) / ((double)(ci_timeB - ci_timeA) / alt_timestamp_freq() * 1000000));
   40d84:	e0ff9f17 	ldw	r3,-388(fp)
   40d88:	e0bf9e17 	ldw	r2,-392(fp)
   40d8c:	1885c83a 	sub	r2,r3,r2
   40d90:	1009883a 	mov	r4,r2
   40d94:	00414580 	call	41458 <__floatunsidf>
   40d98:	1021883a 	mov	r16,r2
   40d9c:	1823883a 	mov	r17,r3
   40da0:	004bfec0 	call	4bfec <alt_timestamp_freq>
   40da4:	1009883a 	mov	r4,r2
   40da8:	00414580 	call	41458 <__floatunsidf>
   40dac:	100f883a 	mov	r7,r2
   40db0:	1811883a 	mov	r8,r3
   40db4:	8009883a 	mov	r4,r16
   40db8:	880b883a 	mov	r5,r17
   40dbc:	380d883a 	mov	r6,r7
   40dc0:	400f883a 	mov	r7,r8
   40dc4:	00412a40 	call	412a4 <__divdf3>
   40dc8:	1009883a 	mov	r4,r2
   40dcc:	180b883a 	mov	r5,r3
   40dd0:	2005883a 	mov	r2,r4
   40dd4:	2807883a 	mov	r3,r5
   40dd8:	1009883a 	mov	r4,r2
   40ddc:	180b883a 	mov	r5,r3
   40de0:	000d883a 	mov	r6,zero
   40de4:	01d04bf4 	movhi	r7,16687
   40de8:	39e12004 	addi	r7,r7,-31616
   40dec:	0040fc00 	call	40fc0 <__muldf3>
   40df0:	1009883a 	mov	r4,r2
   40df4:	180b883a 	mov	r5,r3
   40df8:	2005883a 	mov	r2,r4
   40dfc:	2807883a 	mov	r3,r5
   40e00:	0009883a 	mov	r4,zero
   40e04:	01503c34 	movhi	r5,16624
   40e08:	100d883a 	mov	r6,r2
   40e0c:	180f883a 	mov	r7,r3
   40e10:	00412a40 	call	412a4 <__divdf3>
   40e14:	1009883a 	mov	r4,r2
   40e18:	180b883a 	mov	r5,r3
   40e1c:	2005883a 	mov	r2,r4
   40e20:	2807883a 	mov	r3,r5
   40e24:	01000174 	movhi	r4,5
   40e28:	21357604 	addi	r4,r4,-10792
   40e2c:	100b883a 	mov	r5,r2
   40e30:	180d883a 	mov	r6,r3
   40e34:	0041b6c0 	call	41b6c <printf>

  printf("Speedup ratio\n");
   40e38:	01000174 	movhi	r4,5
   40e3c:	21358004 	addi	r4,r4,-10752
   40e40:	0041c2c0 	call	41c2c <puts>
  printf("-------------\n");
   40e44:	01000174 	movhi	r4,5
   40e48:	21358404 	addi	r4,r4,-10736
   40e4c:	0041c2c0 	call	41c2c <puts>
  printf("Custom instruction CRC vs software CRC = %.2lf\n", (double)(sw_slow_timeB - sw_slow_timeA) / (double)(ci_timeB - ci_timeA));
   40e50:	e0ff9b17 	ldw	r3,-404(fp)
   40e54:	e0bf9a17 	ldw	r2,-408(fp)
   40e58:	1885c83a 	sub	r2,r3,r2
   40e5c:	1009883a 	mov	r4,r2
   40e60:	00414580 	call	41458 <__floatunsidf>
   40e64:	1021883a 	mov	r16,r2
   40e68:	1823883a 	mov	r17,r3
   40e6c:	e0ff9f17 	ldw	r3,-388(fp)
   40e70:	e0bf9e17 	ldw	r2,-392(fp)
   40e74:	1885c83a 	sub	r2,r3,r2
   40e78:	1009883a 	mov	r4,r2
   40e7c:	00414580 	call	41458 <__floatunsidf>
   40e80:	100f883a 	mov	r7,r2
   40e84:	1811883a 	mov	r8,r3
   40e88:	8009883a 	mov	r4,r16
   40e8c:	880b883a 	mov	r5,r17
   40e90:	380d883a 	mov	r6,r7
   40e94:	400f883a 	mov	r7,r8
   40e98:	00412a40 	call	412a4 <__divdf3>
   40e9c:	1009883a 	mov	r4,r2
   40ea0:	180b883a 	mov	r5,r3
   40ea4:	2005883a 	mov	r2,r4
   40ea8:	2807883a 	mov	r3,r5
   40eac:	01000174 	movhi	r4,5
   40eb0:	21358804 	addi	r4,r4,-10720
   40eb4:	100b883a 	mov	r5,r2
   40eb8:	180d883a 	mov	r6,r3
   40ebc:	0041b6c0 	call	41b6c <printf>
  printf("Custom instruction CRC vs optimized software CRC = %.2lf\n", (double)(sw_fast_timeB - sw_fast_timeA) / (double)(ci_timeB - ci_timeA));
   40ec0:	e0ff9d17 	ldw	r3,-396(fp)
   40ec4:	e0bf9c17 	ldw	r2,-400(fp)
   40ec8:	1885c83a 	sub	r2,r3,r2
   40ecc:	1009883a 	mov	r4,r2
   40ed0:	00414580 	call	41458 <__floatunsidf>
   40ed4:	1021883a 	mov	r16,r2
   40ed8:	1823883a 	mov	r17,r3
   40edc:	e0ff9f17 	ldw	r3,-388(fp)
   40ee0:	e0bf9e17 	ldw	r2,-392(fp)
   40ee4:	1885c83a 	sub	r2,r3,r2
   40ee8:	1009883a 	mov	r4,r2
   40eec:	00414580 	call	41458 <__floatunsidf>
   40ef0:	100f883a 	mov	r7,r2
   40ef4:	1811883a 	mov	r8,r3
   40ef8:	8009883a 	mov	r4,r16
   40efc:	880b883a 	mov	r5,r17
   40f00:	380d883a 	mov	r6,r7
   40f04:	400f883a 	mov	r7,r8
   40f08:	00412a40 	call	412a4 <__divdf3>
   40f0c:	1009883a 	mov	r4,r2
   40f10:	180b883a 	mov	r5,r3
   40f14:	2005883a 	mov	r2,r4
   40f18:	2807883a 	mov	r3,r5
   40f1c:	01000174 	movhi	r4,5
   40f20:	21359404 	addi	r4,r4,-10672
   40f24:	100b883a 	mov	r5,r2
   40f28:	180d883a 	mov	r6,r3
   40f2c:	0041b6c0 	call	41b6c <printf>
  printf("Optimized software CRC vs software CRC= %.2lf\n", (double)(sw_slow_timeB - sw_slow_timeA) / (double)(sw_fast_timeB - sw_fast_timeA));
   40f30:	e0ff9b17 	ldw	r3,-404(fp)
   40f34:	e0bf9a17 	ldw	r2,-408(fp)
   40f38:	1885c83a 	sub	r2,r3,r2
   40f3c:	1009883a 	mov	r4,r2
   40f40:	00414580 	call	41458 <__floatunsidf>
   40f44:	1021883a 	mov	r16,r2
   40f48:	1823883a 	mov	r17,r3
   40f4c:	e0ff9d17 	ldw	r3,-396(fp)
   40f50:	e0bf9c17 	ldw	r2,-400(fp)
   40f54:	1885c83a 	sub	r2,r3,r2
   40f58:	1009883a 	mov	r4,r2
   40f5c:	00414580 	call	41458 <__floatunsidf>
   40f60:	100f883a 	mov	r7,r2
   40f64:	1811883a 	mov	r8,r3
   40f68:	8009883a 	mov	r4,r16
   40f6c:	880b883a 	mov	r5,r17
   40f70:	380d883a 	mov	r6,r7
   40f74:	400f883a 	mov	r7,r8
   40f78:	00412a40 	call	412a4 <__divdf3>
   40f7c:	1009883a 	mov	r4,r2
   40f80:	180b883a 	mov	r5,r3
   40f84:	2005883a 	mov	r2,r4
   40f88:	2807883a 	mov	r3,r5
   40f8c:	01000174 	movhi	r4,5
   40f90:	2135a304 	addi	r4,r4,-10612
   40f94:	100b883a 	mov	r5,r2
   40f98:	180d883a 	mov	r6,r3
   40f9c:	0041b6c0 	call	41b6c <printf>

  return 0;
   40fa0:	0005883a 	mov	r2,zero
}
   40fa4:	e037883a 	mov	sp,fp
   40fa8:	dfc00317 	ldw	ra,12(sp)
   40fac:	df000217 	ldw	fp,8(sp)
   40fb0:	dc400117 	ldw	r17,4(sp)
   40fb4:	dc000017 	ldw	r16,0(sp)
   40fb8:	dec00404 	addi	sp,sp,16
   40fbc:	f800283a 	ret

00040fc0 <__muldf3>:
   40fc0:	deffe404 	addi	sp,sp,-112
   40fc4:	d9001115 	stw	r4,68(sp)
   40fc8:	d9401215 	stw	r5,72(sp)
   40fcc:	d9001104 	addi	r4,sp,68
   40fd0:	d9400a04 	addi	r5,sp,40
   40fd4:	dfc01b15 	stw	ra,108(sp)
   40fd8:	d9800f15 	stw	r6,60(sp)
   40fdc:	d9c01015 	stw	r7,64(sp)
   40fe0:	ddc01a15 	stw	r23,104(sp)
   40fe4:	dd801915 	stw	r22,100(sp)
   40fe8:	dd401815 	stw	r21,96(sp)
   40fec:	dd001715 	stw	r20,92(sp)
   40ff0:	dcc01615 	stw	r19,88(sp)
   40ff4:	dc801515 	stw	r18,84(sp)
   40ff8:	dc401415 	stw	r17,80(sp)
   40ffc:	dc001315 	stw	r16,76(sp)
   41000:	00419540 	call	41954 <__unpack_d>
   41004:	d9000f04 	addi	r4,sp,60
   41008:	d9400504 	addi	r5,sp,20
   4100c:	00419540 	call	41954 <__unpack_d>
   41010:	d8c00a17 	ldw	r3,40(sp)
   41014:	00800044 	movi	r2,1
   41018:	10c01136 	bltu	r2,r3,41060 <__muldf3+0xa0>
   4101c:	d8c00b17 	ldw	r3,44(sp)
   41020:	d8800617 	ldw	r2,24(sp)
   41024:	d9000a04 	addi	r4,sp,40
   41028:	1884c03a 	cmpne	r2,r3,r2
   4102c:	d8800b15 	stw	r2,44(sp)
   41030:	00417300 	call	41730 <__pack_d>
   41034:	dfc01b17 	ldw	ra,108(sp)
   41038:	ddc01a17 	ldw	r23,104(sp)
   4103c:	dd801917 	ldw	r22,100(sp)
   41040:	dd401817 	ldw	r21,96(sp)
   41044:	dd001717 	ldw	r20,92(sp)
   41048:	dcc01617 	ldw	r19,88(sp)
   4104c:	dc801517 	ldw	r18,84(sp)
   41050:	dc401417 	ldw	r17,80(sp)
   41054:	dc001317 	ldw	r16,76(sp)
   41058:	dec01c04 	addi	sp,sp,112
   4105c:	f800283a 	ret
   41060:	d9000517 	ldw	r4,20(sp)
   41064:	11000636 	bltu	r2,r4,41080 <__muldf3+0xc0>
   41068:	d8800617 	ldw	r2,24(sp)
   4106c:	d8c00b17 	ldw	r3,44(sp)
   41070:	d9000504 	addi	r4,sp,20
   41074:	1884c03a 	cmpne	r2,r3,r2
   41078:	d8800615 	stw	r2,24(sp)
   4107c:	003fec06 	br	41030 <__muldf3+0x70>
   41080:	00800104 	movi	r2,4
   41084:	1880051e 	bne	r3,r2,4109c <__muldf3+0xdc>
   41088:	00800084 	movi	r2,2
   4108c:	20bfe31e 	bne	r4,r2,4101c <__muldf3+0x5c>
   41090:	01000174 	movhi	r4,5
   41094:	2135af04 	addi	r4,r4,-10564
   41098:	003fe506 	br	41030 <__muldf3+0x70>
   4109c:	2080031e 	bne	r4,r2,410ac <__muldf3+0xec>
   410a0:	00800084 	movi	r2,2
   410a4:	18bffa26 	beq	r3,r2,41090 <__muldf3+0xd0>
   410a8:	003fef06 	br	41068 <__muldf3+0xa8>
   410ac:	00800084 	movi	r2,2
   410b0:	18bfda26 	beq	r3,r2,4101c <__muldf3+0x5c>
   410b4:	20bfec26 	beq	r4,r2,41068 <__muldf3+0xa8>
   410b8:	dc000d17 	ldw	r16,52(sp)
   410bc:	dd000817 	ldw	r20,32(sp)
   410c0:	dc800917 	ldw	r18,36(sp)
   410c4:	8009883a 	mov	r4,r16
   410c8:	000b883a 	mov	r5,zero
   410cc:	a00d883a 	mov	r6,r20
   410d0:	000f883a 	mov	r7,zero
   410d4:	00415740 	call	41574 <__muldi3>
   410d8:	dc400e17 	ldw	r17,56(sp)
   410dc:	9009883a 	mov	r4,r18
   410e0:	800d883a 	mov	r6,r16
   410e4:	000b883a 	mov	r5,zero
   410e8:	000f883a 	mov	r7,zero
   410ec:	102f883a 	mov	r23,r2
   410f0:	1827883a 	mov	r19,r3
   410f4:	00415740 	call	41574 <__muldi3>
   410f8:	900d883a 	mov	r6,r18
   410fc:	8809883a 	mov	r4,r17
   41100:	000b883a 	mov	r5,zero
   41104:	000f883a 	mov	r7,zero
   41108:	102b883a 	mov	r21,r2
   4110c:	1821883a 	mov	r16,r3
   41110:	00415740 	call	41574 <__muldi3>
   41114:	8809883a 	mov	r4,r17
   41118:	000b883a 	mov	r5,zero
   4111c:	a00d883a 	mov	r6,r20
   41120:	000f883a 	mov	r7,zero
   41124:	102d883a 	mov	r22,r2
   41128:	1825883a 	mov	r18,r3
   4112c:	00415740 	call	41574 <__muldi3>
   41130:	154b883a 	add	r5,r2,r21
   41134:	2889803a 	cmpltu	r4,r5,r2
   41138:	1c07883a 	add	r3,r3,r16
   4113c:	20c9883a 	add	r4,r4,r3
   41140:	24004b36 	bltu	r4,r16,41270 <__muldf3+0x2b0>
   41144:	8100011e 	bne	r16,r4,4114c <__muldf3+0x18c>
   41148:	2d404936 	bltu	r5,r21,41270 <__muldf3+0x2b0>
   4114c:	0011883a 	mov	r8,zero
   41150:	0007883a 	mov	r3,zero
   41154:	2ccb883a 	add	r5,r5,r19
   41158:	b80d883a 	mov	r6,r23
   4115c:	2cc0012e 	bgeu	r5,r19,41164 <__muldf3+0x1a4>
   41160:	02000044 	movi	r8,1
   41164:	258f883a 	add	r7,r4,r22
   41168:	3909803a 	cmpltu	r4,r7,r4
   4116c:	da400c17 	ldw	r9,48(sp)
   41170:	2489883a 	add	r4,r4,r18
   41174:	d8800717 	ldw	r2,28(sp)
   41178:	20c9883a 	add	r4,r4,r3
   4117c:	da800b17 	ldw	r10,44(sp)
   41180:	d8c00617 	ldw	r3,24(sp)
   41184:	3a11883a 	add	r8,r7,r8
   41188:	4885883a 	add	r2,r9,r2
   4118c:	50c6c03a 	cmpne	r3,r10,r3
   41190:	41cf803a 	cmpltu	r7,r8,r7
   41194:	12400104 	addi	r9,r2,4
   41198:	d8c00115 	stw	r3,4(sp)
   4119c:	3909883a 	add	r4,r7,r4
   411a0:	da400215 	stw	r9,8(sp)
   411a4:	03480034 	movhi	r13,8192
   411a8:	6b7fffc4 	addi	r13,r13,-1
   411ac:	4007883a 	mov	r3,r8
   411b0:	6900102e 	bgeu	r13,r4,411f4 <__muldf3+0x234>
   411b4:	10800144 	addi	r2,r2,5
   411b8:	180ed07a 	srli	r7,r3,1
   411bc:	18c0004c 	andi	r3,r3,1
   411c0:	201097fa 	slli	r8,r4,31
   411c4:	281697fa 	slli	r11,r5,31
   411c8:	2008d07a 	srli	r4,r4,1
   411cc:	3014d07a 	srli	r10,r6,1
   411d0:	2812d07a 	srli	r9,r5,1
   411d4:	1019883a 	mov	r12,r2
   411d8:	18000226 	beq	r3,zero,411e4 <__muldf3+0x224>
   411dc:	5a8cb03a 	or	r6,r11,r10
   411e0:	49600034 	orhi	r5,r9,32768
   411e4:	41c6b03a 	or	r3,r8,r7
   411e8:	10800044 	addi	r2,r2,1
   411ec:	693ff236 	bltu	r13,r4,411b8 <__muldf3+0x1f8>
   411f0:	db000215 	stw	r12,8(sp)
   411f4:	03440034 	movhi	r13,4096
   411f8:	6b7fffc4 	addi	r13,r13,-1
   411fc:	69001336 	bltu	r13,r4,4124c <__muldf3+0x28c>
   41200:	d8800217 	ldw	r2,8(sp)
   41204:	10bfffc4 	addi	r2,r2,-1
   41208:	18d3883a 	add	r9,r3,r3
   4120c:	48c7803a 	cmpltu	r3,r9,r3
   41210:	2109883a 	add	r4,r4,r4
   41214:	190f883a 	add	r7,r3,r4
   41218:	3191883a 	add	r8,r6,r6
   4121c:	4197803a 	cmpltu	r11,r8,r6
   41220:	2955883a 	add	r10,r5,r5
   41224:	1019883a 	mov	r12,r2
   41228:	4807883a 	mov	r3,r9
   4122c:	3809883a 	mov	r4,r7
   41230:	2800010e 	bge	r5,zero,41238 <__muldf3+0x278>
   41234:	48c00054 	ori	r3,r9,1
   41238:	400d883a 	mov	r6,r8
   4123c:	5a8b883a 	add	r5,r11,r10
   41240:	10bfffc4 	addi	r2,r2,-1
   41244:	69fff02e 	bgeu	r13,r7,41208 <__muldf3+0x248>
   41248:	db000215 	stw	r12,8(sp)
   4124c:	18803fcc 	andi	r2,r3,255
   41250:	01c02004 	movi	r7,128
   41254:	11c00926 	beq	r2,r7,4127c <__muldf3+0x2bc>
   41258:	008000c4 	movi	r2,3
   4125c:	d9000415 	stw	r4,16(sp)
   41260:	d8c00315 	stw	r3,12(sp)
   41264:	d8800015 	stw	r2,0(sp)
   41268:	d809883a 	mov	r4,sp
   4126c:	003f7006 	br	41030 <__muldf3+0x70>
   41270:	0011883a 	mov	r8,zero
   41274:	00c00044 	movi	r3,1
   41278:	003fb606 	br	41154 <__muldf3+0x194>
   4127c:	19c0400c 	andi	r7,r3,256
   41280:	383ff51e 	bne	r7,zero,41258 <__muldf3+0x298>
   41284:	314ab03a 	or	r5,r6,r5
   41288:	283ff326 	beq	r5,zero,41258 <__muldf3+0x298>
   4128c:	1885883a 	add	r2,r3,r2
   41290:	10cb803a 	cmpltu	r5,r2,r3
   41294:	00ffc004 	movi	r3,-256
   41298:	10c6703a 	and	r3,r2,r3
   4129c:	2909883a 	add	r4,r5,r4
   412a0:	003fed06 	br	41258 <__muldf3+0x298>

000412a4 <__divdf3>:
   412a4:	defff104 	addi	sp,sp,-60
   412a8:	d9000c15 	stw	r4,48(sp)
   412ac:	d9400d15 	stw	r5,52(sp)
   412b0:	d9000c04 	addi	r4,sp,48
   412b4:	d9400504 	addi	r5,sp,20
   412b8:	dfc00e15 	stw	ra,56(sp)
   412bc:	d9800a15 	stw	r6,40(sp)
   412c0:	d9c00b15 	stw	r7,44(sp)
   412c4:	00419540 	call	41954 <__unpack_d>
   412c8:	d9000a04 	addi	r4,sp,40
   412cc:	d80b883a 	mov	r5,sp
   412d0:	00419540 	call	41954 <__unpack_d>
   412d4:	d8c00517 	ldw	r3,20(sp)
   412d8:	00800044 	movi	r2,1
   412dc:	10c00536 	bltu	r2,r3,412f4 <__divdf3+0x50>
   412e0:	d9000504 	addi	r4,sp,20
   412e4:	00417300 	call	41730 <__pack_d>
   412e8:	dfc00e17 	ldw	ra,56(sp)
   412ec:	dec00f04 	addi	sp,sp,60
   412f0:	f800283a 	ret
   412f4:	d9000017 	ldw	r4,0(sp)
   412f8:	11000536 	bltu	r2,r4,41310 <__divdf3+0x6c>
   412fc:	d809883a 	mov	r4,sp
   41300:	00417300 	call	41730 <__pack_d>
   41304:	dfc00e17 	ldw	ra,56(sp)
   41308:	dec00f04 	addi	sp,sp,60
   4130c:	f800283a 	ret
   41310:	d9800617 	ldw	r6,24(sp)
   41314:	d9400117 	ldw	r5,4(sp)
   41318:	00800104 	movi	r2,4
   4131c:	314af03a 	xor	r5,r6,r5
   41320:	d9400615 	stw	r5,24(sp)
   41324:	18800226 	beq	r3,r2,41330 <__divdf3+0x8c>
   41328:	01400084 	movi	r5,2
   4132c:	1940041e 	bne	r3,r5,41340 <__divdf3+0x9c>
   41330:	193feb1e 	bne	r3,r4,412e0 <__divdf3+0x3c>
   41334:	01000174 	movhi	r4,5
   41338:	2135af04 	addi	r4,r4,-10564
   4133c:	003fe906 	br	412e4 <__divdf3+0x40>
   41340:	20803326 	beq	r4,r2,41410 <__divdf3+0x16c>
   41344:	21403726 	beq	r4,r5,41424 <__divdf3+0x180>
   41348:	d8800217 	ldw	r2,8(sp)
   4134c:	d9000717 	ldw	r4,28(sp)
   41350:	d8c00917 	ldw	r3,36(sp)
   41354:	da000417 	ldw	r8,16(sp)
   41358:	2089c83a 	sub	r4,r4,r2
   4135c:	d9000715 	stw	r4,28(sp)
   41360:	d8800817 	ldw	r2,32(sp)
   41364:	dbc00317 	ldw	r15,12(sp)
   41368:	1a000236 	bltu	r3,r8,41374 <__divdf3+0xd0>
   4136c:	40c0081e 	bne	r8,r3,41390 <__divdf3+0xec>
   41370:	13c0072e 	bgeu	r2,r15,41390 <__divdf3+0xec>
   41374:	108b883a 	add	r5,r2,r2
   41378:	288d803a 	cmpltu	r6,r5,r2
   4137c:	18c7883a 	add	r3,r3,r3
   41380:	213fffc4 	addi	r4,r4,-1
   41384:	2805883a 	mov	r2,r5
   41388:	30c7883a 	add	r3,r6,r3
   4138c:	d9000715 	stw	r4,28(sp)
   41390:	01400f44 	movi	r5,61
   41394:	000f883a 	mov	r7,zero
   41398:	01040034 	movhi	r4,4096
   4139c:	0019883a 	mov	r12,zero
   413a0:	001b883a 	mov	r13,zero
   413a4:	201697fa 	slli	r11,r4,31
   413a8:	3814d07a 	srli	r10,r7,1
   413ac:	297fffc4 	addi	r5,r5,-1
   413b0:	1a000936 	bltu	r3,r8,413d8 <__divdf3+0x134>
   413b4:	13cdc83a 	sub	r6,r2,r15
   413b8:	1193803a 	cmpltu	r9,r2,r6
   413bc:	1a1dc83a 	sub	r14,r3,r8
   413c0:	40c0011e 	bne	r8,r3,413c8 <__divdf3+0x124>
   413c4:	13c00436 	bltu	r2,r15,413d8 <__divdf3+0x134>
   413c8:	3005883a 	mov	r2,r6
   413cc:	7247c83a 	sub	r3,r14,r9
   413d0:	61d8b03a 	or	r12,r12,r7
   413d4:	691ab03a 	or	r13,r13,r4
   413d8:	108d883a 	add	r6,r2,r2
   413dc:	3093803a 	cmpltu	r9,r6,r2
   413e0:	18c7883a 	add	r3,r3,r3
   413e4:	5a8eb03a 	or	r7,r11,r10
   413e8:	2008d07a 	srli	r4,r4,1
   413ec:	3005883a 	mov	r2,r6
   413f0:	48c7883a 	add	r3,r9,r3
   413f4:	283feb1e 	bne	r5,zero,413a4 <__divdf3+0x100>
   413f8:	61003fcc 	andi	r4,r12,255
   413fc:	01402004 	movi	r5,128
   41400:	21400b26 	beq	r4,r5,41430 <__divdf3+0x18c>
   41404:	db000815 	stw	r12,32(sp)
   41408:	db400915 	stw	r13,36(sp)
   4140c:	003fb406 	br	412e0 <__divdf3+0x3c>
   41410:	d8000815 	stw	zero,32(sp)
   41414:	d8000915 	stw	zero,36(sp)
   41418:	d8000715 	stw	zero,28(sp)
   4141c:	d9000504 	addi	r4,sp,20
   41420:	003fb006 	br	412e4 <__divdf3+0x40>
   41424:	d8800515 	stw	r2,20(sp)
   41428:	d9000504 	addi	r4,sp,20
   4142c:	003fad06 	br	412e4 <__divdf3+0x40>
   41430:	6140400c 	andi	r5,r12,256
   41434:	283ff31e 	bne	r5,zero,41404 <__divdf3+0x160>
   41438:	30c4b03a 	or	r2,r6,r3
   4143c:	103ff126 	beq	r2,zero,41404 <__divdf3+0x160>
   41440:	6109883a 	add	r4,r12,r4
   41444:	2305803a 	cmpltu	r2,r4,r12
   41448:	033fc004 	movi	r12,-256
   4144c:	2318703a 	and	r12,r4,r12
   41450:	135b883a 	add	r13,r2,r13
   41454:	003feb06 	br	41404 <__divdf3+0x160>

00041458 <__floatunsidf>:
   41458:	defff904 	addi	sp,sp,-28
   4145c:	dc000515 	stw	r16,20(sp)
   41460:	dfc00615 	stw	ra,24(sp)
   41464:	d8000115 	stw	zero,4(sp)
   41468:	2021883a 	mov	r16,r4
   4146c:	20001726 	beq	r4,zero,414cc <__floatunsidf+0x74>
   41470:	008000c4 	movi	r2,3
   41474:	d8800015 	stw	r2,0(sp)
   41478:	00800f04 	movi	r2,60
   4147c:	d8800215 	stw	r2,8(sp)
   41480:	00416840 	call	41684 <__clzsi2>
   41484:	10c00744 	addi	r3,r2,29
   41488:	18001816 	blt	r3,zero,414ec <__floatunsidf+0x94>
   4148c:	18002d26 	beq	r3,zero,41544 <__floatunsidf+0xec>
   41490:	113fff44 	addi	r4,r2,-3
   41494:	20002e16 	blt	r4,zero,41550 <__floatunsidf+0xf8>
   41498:	8108983a 	sll	r4,r16,r4
   4149c:	0021883a 	mov	r16,zero
   414a0:	014007c4 	movi	r5,31
   414a4:	2885c83a 	sub	r2,r5,r2
   414a8:	dc000315 	stw	r16,12(sp)
   414ac:	d9000415 	stw	r4,16(sp)
   414b0:	d8800215 	stw	r2,8(sp)
   414b4:	d809883a 	mov	r4,sp
   414b8:	00417300 	call	41730 <__pack_d>
   414bc:	dfc00617 	ldw	ra,24(sp)
   414c0:	dc000517 	ldw	r16,20(sp)
   414c4:	dec00704 	addi	sp,sp,28
   414c8:	f800283a 	ret
   414cc:	00800084 	movi	r2,2
   414d0:	d809883a 	mov	r4,sp
   414d4:	d8800015 	stw	r2,0(sp)
   414d8:	00417300 	call	41730 <__pack_d>
   414dc:	dfc00617 	ldw	ra,24(sp)
   414e0:	dc000517 	ldw	r16,20(sp)
   414e4:	dec00704 	addi	sp,sp,28
   414e8:	f800283a 	ret
   414ec:	00c7c83a 	sub	r3,zero,r3
   414f0:	193ff804 	addi	r4,r3,-32
   414f4:	20001c16 	blt	r4,zero,41568 <__floatunsidf+0x110>
   414f8:	000b883a 	mov	r5,zero
   414fc:	2009d7fa 	srai	r4,r4,31
   41500:	80c6d83a 	srl	r3,r16,r3
   41504:	297fffc4 	addi	r5,r5,-1
   41508:	2c20703a 	and	r16,r5,r16
   4150c:	8020c03a 	cmpne	r16,r16,zero
   41510:	1906703a 	and	r3,r3,r4
   41514:	010007c4 	movi	r4,31
   41518:	80c6b03a 	or	r3,r16,r3
   4151c:	2085c83a 	sub	r2,r4,r2
   41520:	d809883a 	mov	r4,sp
   41524:	d8c00315 	stw	r3,12(sp)
   41528:	d8000415 	stw	zero,16(sp)
   4152c:	d8800215 	stw	r2,8(sp)
   41530:	00417300 	call	41730 <__pack_d>
   41534:	dfc00617 	ldw	ra,24(sp)
   41538:	dc000517 	ldw	r16,20(sp)
   4153c:	dec00704 	addi	sp,sp,28
   41540:	f800283a 	ret
   41544:	dc000315 	stw	r16,12(sp)
   41548:	d8000415 	stw	zero,16(sp)
   4154c:	003fd906 	br	414b4 <__floatunsidf+0x5c>
   41550:	800ad07a 	srli	r5,r16,1
   41554:	010007c4 	movi	r4,31
   41558:	20c9c83a 	sub	r4,r4,r3
   4155c:	2908d83a 	srl	r4,r5,r4
   41560:	80e0983a 	sll	r16,r16,r3
   41564:	003fce06 	br	414a0 <__floatunsidf+0x48>
   41568:	01400044 	movi	r5,1
   4156c:	28ca983a 	sll	r5,r5,r3
   41570:	003fe206 	br	414fc <__floatunsidf+0xa4>

00041574 <__muldi3>:
   41574:	defff604 	addi	sp,sp,-40
   41578:	dd400515 	stw	r21,20(sp)
   4157c:	dd000415 	stw	r20,16(sp)
   41580:	257fffcc 	andi	r21,r4,65535
   41584:	353fffcc 	andi	r20,r6,65535
   41588:	dcc00315 	stw	r19,12(sp)
   4158c:	3026d43a 	srli	r19,r6,16
   41590:	dd800615 	stw	r22,24(sp)
   41594:	dc800215 	stw	r18,8(sp)
   41598:	dc400115 	stw	r17,4(sp)
   4159c:	2024d43a 	srli	r18,r4,16
   415a0:	2023883a 	mov	r17,r4
   415a4:	282d883a 	mov	r22,r5
   415a8:	a009883a 	mov	r4,r20
   415ac:	a80b883a 	mov	r5,r21
   415b0:	dfc00915 	stw	ra,36(sp)
   415b4:	df000815 	stw	fp,32(sp)
   415b8:	ddc00715 	stw	r23,28(sp)
   415bc:	3839883a 	mov	fp,r7
   415c0:	dc000015 	stw	r16,0(sp)
   415c4:	3021883a 	mov	r16,r6
   415c8:	0041a580 	call	41a58 <__mulsi3>
   415cc:	a80b883a 	mov	r5,r21
   415d0:	9809883a 	mov	r4,r19
   415d4:	102f883a 	mov	r23,r2
   415d8:	0041a580 	call	41a58 <__mulsi3>
   415dc:	a009883a 	mov	r4,r20
   415e0:	900b883a 	mov	r5,r18
   415e4:	102b883a 	mov	r21,r2
   415e8:	0041a580 	call	41a58 <__mulsi3>
   415ec:	9809883a 	mov	r4,r19
   415f0:	900b883a 	mov	r5,r18
   415f4:	1029883a 	mov	r20,r2
   415f8:	0041a580 	call	41a58 <__mulsi3>
   415fc:	1007883a 	mov	r3,r2
   41600:	b804d43a 	srli	r2,r23,16
   41604:	a549883a 	add	r4,r20,r21
   41608:	2089883a 	add	r4,r4,r2
   4160c:	2500022e 	bgeu	r4,r20,41618 <__muldi3+0xa4>
   41610:	00800074 	movhi	r2,1
   41614:	1887883a 	add	r3,r3,r2
   41618:	200cd43a 	srli	r6,r4,16
   4161c:	2004943a 	slli	r2,r4,16
   41620:	e00b883a 	mov	r5,fp
   41624:	8809883a 	mov	r4,r17
   41628:	bdffffcc 	andi	r23,r23,65535
   4162c:	19a3883a 	add	r17,r3,r6
   41630:	15ef883a 	add	r23,r2,r23
   41634:	0041a580 	call	41a58 <__mulsi3>
   41638:	8009883a 	mov	r4,r16
   4163c:	b00b883a 	mov	r5,r22
   41640:	1025883a 	mov	r18,r2
   41644:	0041a580 	call	41a58 <__mulsi3>
   41648:	9085883a 	add	r2,r18,r2
   4164c:	1447883a 	add	r3,r2,r17
   41650:	b805883a 	mov	r2,r23
   41654:	dfc00917 	ldw	ra,36(sp)
   41658:	df000817 	ldw	fp,32(sp)
   4165c:	ddc00717 	ldw	r23,28(sp)
   41660:	dd800617 	ldw	r22,24(sp)
   41664:	dd400517 	ldw	r21,20(sp)
   41668:	dd000417 	ldw	r20,16(sp)
   4166c:	dcc00317 	ldw	r19,12(sp)
   41670:	dc800217 	ldw	r18,8(sp)
   41674:	dc400117 	ldw	r17,4(sp)
   41678:	dc000017 	ldw	r16,0(sp)
   4167c:	dec00a04 	addi	sp,sp,40
   41680:	f800283a 	ret

00041684 <__clzsi2>:
   41684:	00bfffd4 	movui	r2,65535
   41688:	11000b36 	bltu	r2,r4,416b8 <__clzsi2+0x34>
   4168c:	00803fc4 	movi	r2,255
   41690:	11001e2e 	bgeu	r2,r4,4170c <__clzsi2+0x88>
   41694:	00c00204 	movi	r3,8
   41698:	20c8d83a 	srl	r4,r4,r3
   4169c:	00c00174 	movhi	r3,5
   416a0:	18f5b404 	addi	r3,r3,-10544
   416a4:	00800604 	movi	r2,24
   416a8:	1909883a 	add	r4,r3,r4
   416ac:	20c00003 	ldbu	r3,0(r4)
   416b0:	10c5c83a 	sub	r2,r2,r3
   416b4:	f800283a 	ret
   416b8:	00804034 	movhi	r2,256
   416bc:	10bfffc4 	addi	r2,r2,-1
   416c0:	11000936 	bltu	r2,r4,416e8 <__clzsi2+0x64>
   416c4:	00800404 	movi	r2,16
   416c8:	1007883a 	mov	r3,r2
   416cc:	20c8d83a 	srl	r4,r4,r3
   416d0:	00c00174 	movhi	r3,5
   416d4:	18f5b404 	addi	r3,r3,-10544
   416d8:	1909883a 	add	r4,r3,r4
   416dc:	20c00003 	ldbu	r3,0(r4)
   416e0:	10c5c83a 	sub	r2,r2,r3
   416e4:	f800283a 	ret
   416e8:	00c00604 	movi	r3,24
   416ec:	20c8d83a 	srl	r4,r4,r3
   416f0:	00c00174 	movhi	r3,5
   416f4:	18f5b404 	addi	r3,r3,-10544
   416f8:	00800204 	movi	r2,8
   416fc:	1909883a 	add	r4,r3,r4
   41700:	20c00003 	ldbu	r3,0(r4)
   41704:	10c5c83a 	sub	r2,r2,r3
   41708:	f800283a 	ret
   4170c:	0007883a 	mov	r3,zero
   41710:	20c8d83a 	srl	r4,r4,r3
   41714:	00c00174 	movhi	r3,5
   41718:	18f5b404 	addi	r3,r3,-10544
   4171c:	00800804 	movi	r2,32
   41720:	1909883a 	add	r4,r3,r4
   41724:	20c00003 	ldbu	r3,0(r4)
   41728:	10c5c83a 	sub	r2,r2,r3
   4172c:	f800283a 	ret

00041730 <__pack_d>:
   41730:	20800017 	ldw	r2,0(r4)
   41734:	defff804 	addi	sp,sp,-32
   41738:	dcc00315 	stw	r19,12(sp)
   4173c:	dc800215 	stw	r18,8(sp)
   41740:	dfc00715 	stw	ra,28(sp)
   41744:	dd800615 	stw	r22,24(sp)
   41748:	dd400515 	stw	r21,20(sp)
   4174c:	dd000415 	stw	r20,16(sp)
   41750:	dc400115 	stw	r17,4(sp)
   41754:	dc000015 	stw	r16,0(sp)
   41758:	04800044 	movi	r18,1
   4175c:	24400317 	ldw	r17,12(r4)
   41760:	24000417 	ldw	r16,16(r4)
   41764:	24c00117 	ldw	r19,4(r4)
   41768:	9080422e 	bgeu	r18,r2,41874 <__pack_d+0x144>
   4176c:	00c00104 	movi	r3,4
   41770:	10c03c26 	beq	r2,r3,41864 <__pack_d+0x134>
   41774:	00c00084 	movi	r3,2
   41778:	10c01926 	beq	r2,r3,417e0 <__pack_d+0xb0>
   4177c:	8c04b03a 	or	r2,r17,r16
   41780:	10001726 	beq	r2,zero,417e0 <__pack_d+0xb0>
   41784:	21000217 	ldw	r4,8(r4)
   41788:	00bf0084 	movi	r2,-1022
   4178c:	20804016 	blt	r4,r2,41890 <__pack_d+0x160>
   41790:	0080ffc4 	movi	r2,1023
   41794:	11003316 	blt	r2,r4,41864 <__pack_d+0x134>
   41798:	88803fcc 	andi	r2,r17,255
   4179c:	00c02004 	movi	r3,128
   417a0:	10c02926 	beq	r2,r3,41848 <__pack_d+0x118>
   417a4:	88801fc4 	addi	r2,r17,127
   417a8:	1463803a 	cmpltu	r17,r2,r17
   417ac:	8c21883a 	add	r16,r17,r16
   417b0:	1023883a 	mov	r17,r2
   417b4:	00880034 	movhi	r2,8192
   417b8:	10bfffc4 	addi	r2,r2,-1
   417bc:	14001c36 	bltu	r2,r16,41830 <__pack_d+0x100>
   417c0:	2100ffc4 	addi	r4,r4,1023
   417c4:	8006963a 	slli	r3,r16,24
   417c8:	8804d23a 	srli	r2,r17,8
   417cc:	8020913a 	slli	r16,r16,4
   417d0:	2101ffcc 	andi	r4,r4,2047
   417d4:	1884b03a 	or	r2,r3,r2
   417d8:	8020d33a 	srli	r16,r16,12
   417dc:	00000306 	br	417ec <__pack_d+0xbc>
   417e0:	0009883a 	mov	r4,zero
   417e4:	0005883a 	mov	r2,zero
   417e8:	0021883a 	mov	r16,zero
   417ec:	2008953a 	slli	r4,r4,20
   417f0:	982697fa 	slli	r19,r19,31
   417f4:	00c00434 	movhi	r3,16
   417f8:	18ffffc4 	addi	r3,r3,-1
   417fc:	80e0703a 	and	r16,r16,r3
   41800:	8106b03a 	or	r3,r16,r4
   41804:	1cc6b03a 	or	r3,r3,r19
   41808:	dfc00717 	ldw	ra,28(sp)
   4180c:	dd800617 	ldw	r22,24(sp)
   41810:	dd400517 	ldw	r21,20(sp)
   41814:	dd000417 	ldw	r20,16(sp)
   41818:	dcc00317 	ldw	r19,12(sp)
   4181c:	dc800217 	ldw	r18,8(sp)
   41820:	dc400117 	ldw	r17,4(sp)
   41824:	dc000017 	ldw	r16,0(sp)
   41828:	dec00804 	addi	sp,sp,32
   4182c:	f800283a 	ret
   41830:	800697fa 	slli	r3,r16,31
   41834:	8804d07a 	srli	r2,r17,1
   41838:	21010004 	addi	r4,r4,1024
   4183c:	8020d07a 	srli	r16,r16,1
   41840:	18a2b03a 	or	r17,r3,r2
   41844:	003fdf06 	br	417c4 <__pack_d+0x94>
   41848:	88c0400c 	andi	r3,r17,256
   4184c:	183fd926 	beq	r3,zero,417b4 <__pack_d+0x84>
   41850:	8885883a 	add	r2,r17,r2
   41854:	1463803a 	cmpltu	r17,r2,r17
   41858:	8c21883a 	add	r16,r17,r16
   4185c:	1023883a 	mov	r17,r2
   41860:	003fd406 	br	417b4 <__pack_d+0x84>
   41864:	0101ffc4 	movi	r4,2047
   41868:	0005883a 	mov	r2,zero
   4186c:	0021883a 	mov	r16,zero
   41870:	003fde06 	br	417ec <__pack_d+0xbc>
   41874:	84000234 	orhi	r16,r16,8
   41878:	00c00434 	movhi	r3,16
   4187c:	18ffffc4 	addi	r3,r3,-1
   41880:	8805883a 	mov	r2,r17
   41884:	80e0703a 	and	r16,r16,r3
   41888:	0101ffc4 	movi	r4,2047
   4188c:	003fd706 	br	417ec <__pack_d+0xbc>
   41890:	1129c83a 	sub	r20,r2,r4
   41894:	00800e04 	movi	r2,56
   41898:	15002716 	blt	r2,r20,41938 <__pack_d+0x208>
   4189c:	800b883a 	mov	r5,r16
   418a0:	a00d883a 	mov	r6,r20
   418a4:	8809883a 	mov	r4,r17
   418a8:	0041a800 	call	41a80 <__lshrdi3>
   418ac:	9009883a 	mov	r4,r18
   418b0:	000b883a 	mov	r5,zero
   418b4:	a00d883a 	mov	r6,r20
   418b8:	102d883a 	mov	r22,r2
   418bc:	182b883a 	mov	r21,r3
   418c0:	0041ac40 	call	41ac4 <__ashldi3>
   418c4:	1009003a 	cmpeq	r4,r2,zero
   418c8:	1907c83a 	sub	r3,r3,r4
   418cc:	10bfffc4 	addi	r2,r2,-1
   418d0:	1c20703a 	and	r16,r3,r16
   418d4:	1444703a 	and	r2,r2,r17
   418d8:	1404b03a 	or	r2,r2,r16
   418dc:	1004c03a 	cmpne	r2,r2,zero
   418e0:	1584b03a 	or	r2,r2,r22
   418e4:	11003fcc 	andi	r4,r2,255
   418e8:	01402004 	movi	r5,128
   418ec:	a807883a 	mov	r3,r21
   418f0:	2140131e 	bne	r4,r5,41940 <__pack_d+0x210>
   418f4:	1140400c 	andi	r5,r2,256
   418f8:	28000426 	beq	r5,zero,4190c <__pack_d+0x1dc>
   418fc:	1109883a 	add	r4,r2,r4
   41900:	2085803a 	cmpltu	r2,r4,r2
   41904:	1547883a 	add	r3,r2,r21
   41908:	2005883a 	mov	r2,r4
   4190c:	1808963a 	slli	r4,r3,24
   41910:	1004d23a 	srli	r2,r2,8
   41914:	1820913a 	slli	r16,r3,4
   41918:	01440034 	movhi	r5,4096
   4191c:	297fffc4 	addi	r5,r5,-1
   41920:	2084b03a 	or	r2,r4,r2
   41924:	8020d33a 	srli	r16,r16,12
   41928:	01000044 	movi	r4,1
   4192c:	28ffaf36 	bltu	r5,r3,417ec <__pack_d+0xbc>
   41930:	0009883a 	mov	r4,zero
   41934:	003fad06 	br	417ec <__pack_d+0xbc>
   41938:	0005883a 	mov	r2,zero
   4193c:	0007883a 	mov	r3,zero
   41940:	11001fc4 	addi	r4,r2,127
   41944:	2085803a 	cmpltu	r2,r4,r2
   41948:	10c7883a 	add	r3,r2,r3
   4194c:	2005883a 	mov	r2,r4
   41950:	003fee06 	br	4190c <__pack_d+0x1dc>

00041954 <__unpack_d>:
   41954:	21800117 	ldw	r6,4(r4)
   41958:	20c00017 	ldw	r3,0(r4)
   4195c:	3004d7fa 	srli	r2,r6,31
   41960:	3008d53a 	srli	r4,r6,20
   41964:	28800115 	stw	r2,4(r5)
   41968:	2101ffcc 	andi	r4,r4,2047
   4196c:	00800434 	movhi	r2,16
   41970:	10bfffc4 	addi	r2,r2,-1
   41974:	3084703a 	and	r2,r6,r2
   41978:	20001a1e 	bne	r4,zero,419e4 <__unpack_d+0x90>
   4197c:	1888b03a 	or	r4,r3,r2
   41980:	20002626 	beq	r4,zero,41a1c <__unpack_d+0xc8>
   41984:	1808d63a 	srli	r4,r3,24
   41988:	1004923a 	slli	r2,r2,8
   4198c:	01bf0084 	movi	r6,-1022
   41990:	29800215 	stw	r6,8(r5)
   41994:	2084b03a 	or	r2,r4,r2
   41998:	010000c4 	movi	r4,3
   4199c:	29000015 	stw	r4,0(r5)
   419a0:	02040034 	movhi	r8,4096
   419a4:	423fffc4 	addi	r8,r8,-1
   419a8:	1806923a 	slli	r3,r3,8
   419ac:	40801836 	bltu	r8,r2,41a10 <__unpack_d+0xbc>
   419b0:	013f0044 	movi	r4,-1023
   419b4:	18cd883a 	add	r6,r3,r3
   419b8:	30c7803a 	cmpltu	r3,r6,r3
   419bc:	1085883a 	add	r2,r2,r2
   419c0:	1885883a 	add	r2,r3,r2
   419c4:	200f883a 	mov	r7,r4
   419c8:	3007883a 	mov	r3,r6
   419cc:	213fffc4 	addi	r4,r4,-1
   419d0:	40bff82e 	bgeu	r8,r2,419b4 <__unpack_d+0x60>
   419d4:	29c00215 	stw	r7,8(r5)
   419d8:	28c00315 	stw	r3,12(r5)
   419dc:	28800415 	stw	r2,16(r5)
   419e0:	f800283a 	ret
   419e4:	01c1ffc4 	movi	r7,2047
   419e8:	21c00f26 	beq	r4,r7,41a28 <__unpack_d+0xd4>
   419ec:	180cd63a 	srli	r6,r3,24
   419f0:	1004923a 	slli	r2,r2,8
   419f4:	213f0044 	addi	r4,r4,-1023
   419f8:	1806923a 	slli	r3,r3,8
   419fc:	3084b03a 	or	r2,r6,r2
   41a00:	29000215 	stw	r4,8(r5)
   41a04:	010000c4 	movi	r4,3
   41a08:	10840034 	orhi	r2,r2,4096
   41a0c:	29000015 	stw	r4,0(r5)
   41a10:	28c00315 	stw	r3,12(r5)
   41a14:	28800415 	stw	r2,16(r5)
   41a18:	f800283a 	ret
   41a1c:	00800084 	movi	r2,2
   41a20:	28800015 	stw	r2,0(r5)
   41a24:	f800283a 	ret
   41a28:	1888b03a 	or	r4,r3,r2
   41a2c:	20000526 	beq	r4,zero,41a44 <__unpack_d+0xf0>
   41a30:	3180022c 	andhi	r6,r6,8
   41a34:	30000626 	beq	r6,zero,41a50 <__unpack_d+0xfc>
   41a38:	01000044 	movi	r4,1
   41a3c:	29000015 	stw	r4,0(r5)
   41a40:	003ff306 	br	41a10 <__unpack_d+0xbc>
   41a44:	00800104 	movi	r2,4
   41a48:	28800015 	stw	r2,0(r5)
   41a4c:	f800283a 	ret
   41a50:	28000015 	stw	zero,0(r5)
   41a54:	003fee06 	br	41a10 <__unpack_d+0xbc>

00041a58 <__mulsi3>:
   41a58:	0005883a 	mov	r2,zero
   41a5c:	20000726 	beq	r4,zero,41a7c <__mulsi3+0x24>
   41a60:	20c0004c 	andi	r3,r4,1
   41a64:	2008d07a 	srli	r4,r4,1
   41a68:	18000126 	beq	r3,zero,41a70 <__mulsi3+0x18>
   41a6c:	1145883a 	add	r2,r2,r5
   41a70:	294b883a 	add	r5,r5,r5
   41a74:	203ffa1e 	bne	r4,zero,41a60 <__mulsi3+0x8>
   41a78:	f800283a 	ret
   41a7c:	f800283a 	ret

00041a80 <__lshrdi3>:
   41a80:	2005883a 	mov	r2,r4
   41a84:	2807883a 	mov	r3,r5
   41a88:	30000826 	beq	r6,zero,41aac <__lshrdi3+0x2c>
   41a8c:	01000804 	movi	r4,32
   41a90:	2189c83a 	sub	r4,r4,r6
   41a94:	0100060e 	bge	zero,r4,41ab0 <__lshrdi3+0x30>
   41a98:	1184d83a 	srl	r2,r2,r6
   41a9c:	2908983a 	sll	r4,r5,r4
   41aa0:	298cd83a 	srl	r6,r5,r6
   41aa4:	2084b03a 	or	r2,r4,r2
   41aa8:	3007883a 	mov	r3,r6
   41aac:	f800283a 	ret
   41ab0:	0105c83a 	sub	r2,zero,r4
   41ab4:	000d883a 	mov	r6,zero
   41ab8:	2884d83a 	srl	r2,r5,r2
   41abc:	3007883a 	mov	r3,r6
   41ac0:	003ffa06 	br	41aac <__lshrdi3+0x2c>

00041ac4 <__ashldi3>:
   41ac4:	2005883a 	mov	r2,r4
   41ac8:	2807883a 	mov	r3,r5
   41acc:	30000826 	beq	r6,zero,41af0 <__ashldi3+0x2c>
   41ad0:	01000804 	movi	r4,32
   41ad4:	2189c83a 	sub	r4,r4,r6
   41ad8:	0100060e 	bge	zero,r4,41af4 <__ashldi3+0x30>
   41adc:	1108d83a 	srl	r4,r2,r4
   41ae0:	2986983a 	sll	r3,r5,r6
   41ae4:	118c983a 	sll	r6,r2,r6
   41ae8:	20c6b03a 	or	r3,r4,r3
   41aec:	3005883a 	mov	r2,r6
   41af0:	f800283a 	ret
   41af4:	0107c83a 	sub	r3,zero,r4
   41af8:	000d883a 	mov	r6,zero
   41afc:	10c6983a 	sll	r3,r2,r3
   41b00:	3005883a 	mov	r2,r6
   41b04:	003ffa06 	br	41af0 <__ashldi3+0x2c>

00041b08 <exit>:
   41b08:	defffe04 	addi	sp,sp,-8
   41b0c:	000b883a 	mov	r5,zero
   41b10:	dc000015 	stw	r16,0(sp)
   41b14:	dfc00115 	stw	ra,4(sp)
   41b18:	2021883a 	mov	r16,r4
   41b1c:	0043d140 	call	43d14 <__call_exitprocs>
   41b20:	00800174 	movhi	r2,5
   41b24:	10bcfe04 	addi	r2,r2,-3080
   41b28:	11000017 	ldw	r4,0(r2)
   41b2c:	20800f17 	ldw	r2,60(r4)
   41b30:	10000126 	beq	r2,zero,41b38 <exit+0x30>
   41b34:	103ee83a 	callr	r2
   41b38:	8009883a 	mov	r4,r16
   41b3c:	004a9dc0 	call	4a9dc <_exit>

00041b40 <_printf_r>:
   41b40:	defffd04 	addi	sp,sp,-12
   41b44:	dfc00015 	stw	ra,0(sp)
   41b48:	d9800115 	stw	r6,4(sp)
   41b4c:	d9c00215 	stw	r7,8(sp)
   41b50:	280d883a 	mov	r6,r5
   41b54:	21400217 	ldw	r5,8(r4)
   41b58:	d9c00104 	addi	r7,sp,4
   41b5c:	0041d000 	call	41d00 <___vfprintf_internal_r>
   41b60:	dfc00017 	ldw	ra,0(sp)
   41b64:	dec00304 	addi	sp,sp,12
   41b68:	f800283a 	ret

00041b6c <printf>:
   41b6c:	defffc04 	addi	sp,sp,-16
   41b70:	dfc00015 	stw	ra,0(sp)
   41b74:	d9400115 	stw	r5,4(sp)
   41b78:	d9800215 	stw	r6,8(sp)
   41b7c:	d9c00315 	stw	r7,12(sp)
   41b80:	00800174 	movhi	r2,5
   41b84:	10bcff04 	addi	r2,r2,-3076
   41b88:	10800017 	ldw	r2,0(r2)
   41b8c:	200b883a 	mov	r5,r4
   41b90:	d9800104 	addi	r6,sp,4
   41b94:	11000217 	ldw	r4,8(r2)
   41b98:	0043b7c0 	call	43b7c <__vfprintf_internal>
   41b9c:	dfc00017 	ldw	ra,0(sp)
   41ba0:	dec00404 	addi	sp,sp,16
   41ba4:	f800283a 	ret

00041ba8 <_puts_r>:
   41ba8:	defff604 	addi	sp,sp,-40
   41bac:	dc400815 	stw	r17,32(sp)
   41bb0:	2023883a 	mov	r17,r4
   41bb4:	2809883a 	mov	r4,r5
   41bb8:	dc000715 	stw	r16,28(sp)
   41bbc:	dfc00915 	stw	ra,36(sp)
   41bc0:	2821883a 	mov	r16,r5
   41bc4:	0041c400 	call	41c40 <strlen>
   41bc8:	10c00044 	addi	r3,r2,1
   41bcc:	d8800115 	stw	r2,4(sp)
   41bd0:	89400217 	ldw	r5,8(r17)
   41bd4:	00800174 	movhi	r2,5
   41bd8:	10b5f504 	addi	r2,r2,-10284
   41bdc:	d8800215 	stw	r2,8(sp)
   41be0:	00800044 	movi	r2,1
   41be4:	d8800315 	stw	r2,12(sp)
   41be8:	8809883a 	mov	r4,r17
   41bec:	00800084 	movi	r2,2
   41bf0:	d9800404 	addi	r6,sp,16
   41bf4:	dc000015 	stw	r16,0(sp)
   41bf8:	d8c00615 	stw	r3,24(sp)
   41bfc:	dec00415 	stw	sp,16(sp)
   41c00:	d8800515 	stw	r2,20(sp)
   41c04:	004601c0 	call	4601c <__sfvwrite_r>
   41c08:	1000061e 	bne	r2,zero,41c24 <_puts_r+0x7c>
   41c0c:	00800284 	movi	r2,10
   41c10:	dfc00917 	ldw	ra,36(sp)
   41c14:	dc400817 	ldw	r17,32(sp)
   41c18:	dc000717 	ldw	r16,28(sp)
   41c1c:	dec00a04 	addi	sp,sp,40
   41c20:	f800283a 	ret
   41c24:	00bfffc4 	movi	r2,-1
   41c28:	003ff906 	br	41c10 <_puts_r+0x68>

00041c2c <puts>:
   41c2c:	00800174 	movhi	r2,5
   41c30:	10bcff04 	addi	r2,r2,-3076
   41c34:	200b883a 	mov	r5,r4
   41c38:	11000017 	ldw	r4,0(r2)
   41c3c:	0041ba81 	jmpi	41ba8 <_puts_r>

00041c40 <strlen>:
   41c40:	208000cc 	andi	r2,r4,3
   41c44:	10001f1e 	bne	r2,zero,41cc4 <strlen+0x84>
   41c48:	20800017 	ldw	r2,0(r4)
   41c4c:	01ffbff4 	movhi	r7,65279
   41c50:	39ffbfc4 	addi	r7,r7,-257
   41c54:	01a02074 	movhi	r6,32897
   41c58:	31a02004 	addi	r6,r6,-32640
   41c5c:	11c7883a 	add	r3,r2,r7
   41c60:	0084303a 	nor	r2,zero,r2
   41c64:	1886703a 	and	r3,r3,r2
   41c68:	1986703a 	and	r3,r3,r6
   41c6c:	2005883a 	mov	r2,r4
   41c70:	1800101e 	bne	r3,zero,41cb4 <strlen+0x74>
   41c74:	10800104 	addi	r2,r2,4
   41c78:	10c00017 	ldw	r3,0(r2)
   41c7c:	19cb883a 	add	r5,r3,r7
   41c80:	00c6303a 	nor	r3,zero,r3
   41c84:	28c6703a 	and	r3,r5,r3
   41c88:	1986703a 	and	r3,r3,r6
   41c8c:	1800091e 	bne	r3,zero,41cb4 <strlen+0x74>
   41c90:	10800104 	addi	r2,r2,4
   41c94:	10c00017 	ldw	r3,0(r2)
   41c98:	19cb883a 	add	r5,r3,r7
   41c9c:	00c6303a 	nor	r3,zero,r3
   41ca0:	28c6703a 	and	r3,r5,r3
   41ca4:	1986703a 	and	r3,r3,r6
   41ca8:	183ff226 	beq	r3,zero,41c74 <strlen+0x34>
   41cac:	00000106 	br	41cb4 <strlen+0x74>
   41cb0:	10800044 	addi	r2,r2,1
   41cb4:	10c00007 	ldb	r3,0(r2)
   41cb8:	183ffd1e 	bne	r3,zero,41cb0 <strlen+0x70>
   41cbc:	1105c83a 	sub	r2,r2,r4
   41cc0:	f800283a 	ret
   41cc4:	2005883a 	mov	r2,r4
   41cc8:	003ffa06 	br	41cb4 <strlen+0x74>

00041ccc <__sprint_r>:
   41ccc:	30800217 	ldw	r2,8(r6)
   41cd0:	defffe04 	addi	sp,sp,-8
   41cd4:	dc000015 	stw	r16,0(sp)
   41cd8:	dfc00115 	stw	ra,4(sp)
   41cdc:	3021883a 	mov	r16,r6
   41ce0:	10000226 	beq	r2,zero,41cec <__sprint_r+0x20>
   41ce4:	004601c0 	call	4601c <__sfvwrite_r>
   41ce8:	80000215 	stw	zero,8(r16)
   41cec:	80000115 	stw	zero,4(r16)
   41cf0:	dfc00117 	ldw	ra,4(sp)
   41cf4:	dc000017 	ldw	r16,0(sp)
   41cf8:	dec00204 	addi	sp,sp,8
   41cfc:	f800283a 	ret

00041d00 <___vfprintf_internal_r>:
   41d00:	defeb904 	addi	sp,sp,-1308
   41d04:	dc013d15 	stw	r16,1268(sp)
   41d08:	d9013015 	stw	r4,1216(sp)
   41d0c:	dfc14615 	stw	ra,1304(sp)
   41d10:	df014515 	stw	fp,1300(sp)
   41d14:	ddc14415 	stw	r23,1296(sp)
   41d18:	dd814315 	stw	r22,1292(sp)
   41d1c:	dd414215 	stw	r21,1288(sp)
   41d20:	dd014115 	stw	r20,1284(sp)
   41d24:	dcc14015 	stw	r19,1280(sp)
   41d28:	dc813f15 	stw	r18,1276(sp)
   41d2c:	dc413e15 	stw	r17,1272(sp)
   41d30:	d9412915 	stw	r5,1188(sp)
   41d34:	3021883a 	mov	r16,r6
   41d38:	d9c12d15 	stw	r7,1204(sp)
   41d3c:	00467080 	call	46708 <_localeconv_r>
   41d40:	10800017 	ldw	r2,0(r2)
   41d44:	d9013017 	ldw	r4,1216(sp)
   41d48:	d8013315 	stw	zero,1228(sp)
   41d4c:	d8813715 	stw	r2,1244(sp)
   41d50:	d8013415 	stw	zero,1232(sp)
   41d54:	20000226 	beq	r4,zero,41d60 <___vfprintf_internal_r+0x60>
   41d58:	20800e17 	ldw	r2,56(r4)
   41d5c:	10014b26 	beq	r2,zero,4228c <___vfprintf_internal_r+0x58c>
   41d60:	d8c12917 	ldw	r3,1188(sp)
   41d64:	1880030b 	ldhu	r2,12(r3)
   41d68:	10c0020c 	andi	r3,r2,8
   41d6c:	18ffffcc 	andi	r3,r3,65535
   41d70:	18e0001c 	xori	r3,r3,32768
   41d74:	18e00004 	addi	r3,r3,-32768
   41d78:	1800ed26 	beq	r3,zero,42130 <___vfprintf_internal_r+0x430>
   41d7c:	d9012917 	ldw	r4,1188(sp)
   41d80:	20c00417 	ldw	r3,16(r4)
   41d84:	1800ea26 	beq	r3,zero,42130 <___vfprintf_internal_r+0x430>
   41d88:	1100068c 	andi	r4,r2,26
   41d8c:	00c00284 	movi	r3,10
   41d90:	20c0f026 	beq	r4,r3,42154 <___vfprintf_internal_r+0x454>
   41d94:	d9010dc4 	addi	r4,sp,1079
   41d98:	d8810e04 	addi	r2,sp,1080
   41d9c:	dc413017 	ldw	r17,1216(sp)
   41da0:	d8c00404 	addi	r3,sp,16
   41da4:	d9012615 	stw	r4,1176(sp)
   41da8:	1109c83a 	sub	r4,r2,r4
   41dac:	d8812715 	stw	r2,1180(sp)
   41db0:	d8c11b15 	stw	r3,1132(sp)
   41db4:	d8011d15 	stw	zero,1140(sp)
   41db8:	d8011c15 	stw	zero,1136(sp)
   41dbc:	802b883a 	mov	r21,r16
   41dc0:	d8013215 	stw	zero,1224(sp)
   41dc4:	d8013615 	stw	zero,1240(sp)
   41dc8:	d8013515 	stw	zero,1236(sp)
   41dcc:	d8012c15 	stw	zero,1200(sp)
   41dd0:	1813883a 	mov	r9,r3
   41dd4:	d9013915 	stw	r4,1252(sp)
   41dd8:	a8800007 	ldb	r2,0(r21)
   41ddc:	1002f326 	beq	r2,zero,429ac <___vfprintf_internal_r+0xcac>
   41de0:	00c00944 	movi	r3,37
   41de4:	a825883a 	mov	r18,r21
   41de8:	10c0021e 	bne	r2,r3,41df4 <___vfprintf_internal_r+0xf4>
   41dec:	00001406 	br	41e40 <___vfprintf_internal_r+0x140>
   41df0:	10c00326 	beq	r2,r3,41e00 <___vfprintf_internal_r+0x100>
   41df4:	94800044 	addi	r18,r18,1
   41df8:	90800007 	ldb	r2,0(r18)
   41dfc:	103ffc1e 	bne	r2,zero,41df0 <___vfprintf_internal_r+0xf0>
   41e00:	9561c83a 	sub	r16,r18,r21
   41e04:	80000e26 	beq	r16,zero,41e40 <___vfprintf_internal_r+0x140>
   41e08:	da011d17 	ldw	r8,1140(sp)
   41e0c:	d8c11c17 	ldw	r3,1136(sp)
   41e10:	4d400015 	stw	r21,0(r9)
   41e14:	4c000115 	stw	r16,4(r9)
   41e18:	4411883a 	add	r8,r8,r16
   41e1c:	18c00044 	addi	r3,r3,1
   41e20:	da011d15 	stw	r8,1140(sp)
   41e24:	d8c11c15 	stw	r3,1136(sp)
   41e28:	008001c4 	movi	r2,7
   41e2c:	10c11016 	blt	r2,r3,42270 <___vfprintf_internal_r+0x570>
   41e30:	4a400204 	addi	r9,r9,8
   41e34:	d8812c17 	ldw	r2,1200(sp)
   41e38:	1405883a 	add	r2,r2,r16
   41e3c:	d8812c15 	stw	r2,1200(sp)
   41e40:	90800007 	ldb	r2,0(r18)
   41e44:	1000ee26 	beq	r2,zero,42200 <___vfprintf_internal_r+0x500>
   41e48:	95400044 	addi	r21,r18,1
   41e4c:	94800047 	ldb	r18,1(r18)
   41e50:	073fffc4 	movi	fp,-1
   41e54:	e007883a 	mov	r3,fp
   41e58:	d8012585 	stb	zero,1174(sp)
   41e5c:	d8012e15 	stw	zero,1208(sp)
   41e60:	0021883a 	mov	r16,zero
   41e64:	05001604 	movi	r20,88
   41e68:	04c00244 	movi	r19,9
   41e6c:	4839883a 	mov	fp,r9
   41e70:	ad400044 	addi	r21,r21,1
   41e74:	90bff804 	addi	r2,r18,-32
   41e78:	a080462e 	bgeu	r20,r2,41f94 <___vfprintf_internal_r+0x294>
   41e7c:	e013883a 	mov	r9,fp
   41e80:	9000df26 	beq	r18,zero,42200 <___vfprintf_internal_r+0x500>
   41e84:	00c00044 	movi	r3,1
   41e88:	d8c12815 	stw	r3,1184(sp)
   41e8c:	dc810405 	stb	r18,1040(sp)
   41e90:	d8012585 	stb	zero,1174(sp)
   41e94:	d8c12b15 	stw	r3,1196(sp)
   41e98:	dcc10404 	addi	r19,sp,1040
   41e9c:	d8013115 	stw	zero,1220(sp)
   41ea0:	80c0008c 	andi	r3,r16,2
   41ea4:	d8c12a15 	stw	r3,1192(sp)
   41ea8:	18000326 	beq	r3,zero,41eb8 <___vfprintf_internal_r+0x1b8>
   41eac:	d8c12817 	ldw	r3,1184(sp)
   41eb0:	18c00084 	addi	r3,r3,2
   41eb4:	d8c12815 	stw	r3,1184(sp)
   41eb8:	80c0210c 	andi	r3,r16,132
   41ebc:	d8c12f15 	stw	r3,1212(sp)
   41ec0:	1802251e 	bne	r3,zero,42758 <___vfprintf_internal_r+0xa58>
   41ec4:	d9012e17 	ldw	r4,1208(sp)
   41ec8:	d8c12817 	ldw	r3,1184(sp)
   41ecc:	20edc83a 	sub	r22,r4,r3
   41ed0:	0582210e 	bge	zero,r22,42758 <___vfprintf_internal_r+0xa58>
   41ed4:	02800404 	movi	r10,16
   41ed8:	da011d17 	ldw	r8,1140(sp)
   41edc:	d8c11c17 	ldw	r3,1136(sp)
   41ee0:	05c00174 	movhi	r23,5
   41ee4:	bdf60684 	addi	r23,r23,-10214
   41ee8:	5580200e 	bge	r10,r22,41f6c <___vfprintf_internal_r+0x26c>
   41eec:	dc813815 	stw	r18,1248(sp)
   41ef0:	5039883a 	mov	fp,r10
   41ef4:	b825883a 	mov	r18,r23
   41ef8:	050001c4 	movi	r20,7
   41efc:	b02f883a 	mov	r23,r22
   41f00:	802d883a 	mov	r22,r16
   41f04:	dc012917 	ldw	r16,1188(sp)
   41f08:	00000306 	br	41f18 <___vfprintf_internal_r+0x218>
   41f0c:	bdfffc04 	addi	r23,r23,-16
   41f10:	4a400204 	addi	r9,r9,8
   41f14:	e5c0110e 	bge	fp,r23,41f5c <___vfprintf_internal_r+0x25c>
   41f18:	4c800015 	stw	r18,0(r9)
   41f1c:	4f000115 	stw	fp,4(r9)
   41f20:	42000404 	addi	r8,r8,16
   41f24:	18c00044 	addi	r3,r3,1
   41f28:	da011d15 	stw	r8,1140(sp)
   41f2c:	d8c11c15 	stw	r3,1136(sp)
   41f30:	a0fff60e 	bge	r20,r3,41f0c <___vfprintf_internal_r+0x20c>
   41f34:	8809883a 	mov	r4,r17
   41f38:	800b883a 	mov	r5,r16
   41f3c:	d9811b04 	addi	r6,sp,1132
   41f40:	0041ccc0 	call	41ccc <__sprint_r>
   41f44:	1000b41e 	bne	r2,zero,42218 <___vfprintf_internal_r+0x518>
   41f48:	bdfffc04 	addi	r23,r23,-16
   41f4c:	da011d17 	ldw	r8,1140(sp)
   41f50:	d8c11c17 	ldw	r3,1136(sp)
   41f54:	da400404 	addi	r9,sp,16
   41f58:	e5ffef16 	blt	fp,r23,41f18 <___vfprintf_internal_r+0x218>
   41f5c:	b021883a 	mov	r16,r22
   41f60:	b82d883a 	mov	r22,r23
   41f64:	902f883a 	mov	r23,r18
   41f68:	dc813817 	ldw	r18,1248(sp)
   41f6c:	4dc00015 	stw	r23,0(r9)
   41f70:	4d800115 	stw	r22,4(r9)
   41f74:	4591883a 	add	r8,r8,r22
   41f78:	18c00044 	addi	r3,r3,1
   41f7c:	da011d15 	stw	r8,1140(sp)
   41f80:	d8c11c15 	stw	r3,1136(sp)
   41f84:	008001c4 	movi	r2,7
   41f88:	10c3fe16 	blt	r2,r3,42f84 <___vfprintf_internal_r+0x1284>
   41f8c:	4a400204 	addi	r9,r9,8
   41f90:	0001f306 	br	42760 <___vfprintf_internal_r+0xa60>
   41f94:	1085883a 	add	r2,r2,r2
   41f98:	1085883a 	add	r2,r2,r2
   41f9c:	01000134 	movhi	r4,4
   41fa0:	2107ec04 	addi	r4,r4,8112
   41fa4:	1105883a 	add	r2,r2,r4
   41fa8:	10800017 	ldw	r2,0(r2)
   41fac:	1000683a 	jmp	r2
   41fb0:	0004268c 	andi	zero,zero,4250
   41fb4:	00041e7c 	xorhi	zero,zero,4217
   41fb8:	00041e7c 	xorhi	zero,zero,4217
   41fbc:	000426a4 	muli	zero,zero,4250
   41fc0:	00041e7c 	xorhi	zero,zero,4217
   41fc4:	00041e7c 	xorhi	zero,zero,4217
   41fc8:	00041e7c 	xorhi	zero,zero,4217
   41fcc:	00041e7c 	xorhi	zero,zero,4217
   41fd0:	00041e7c 	xorhi	zero,zero,4217
   41fd4:	00041e7c 	xorhi	zero,zero,4217
   41fd8:	0004255c 	xori	zero,zero,4245
   41fdc:	000426f0 	cmpltui	zero,zero,4251
   41fe0:	00041e7c 	xorhi	zero,zero,4217
   41fe4:	00042124 	muli	zero,zero,4228
   41fe8:	000424c4 	movi	zero,4243
   41fec:	00041e7c 	xorhi	zero,zero,4217
   41ff0:	000426b0 	cmpltui	zero,zero,4250
   41ff4:	000426bc 	xorhi	zero,zero,4250
   41ff8:	000426bc 	xorhi	zero,zero,4250
   41ffc:	000426bc 	xorhi	zero,zero,4250
   42000:	000426bc 	xorhi	zero,zero,4250
   42004:	000426bc 	xorhi	zero,zero,4250
   42008:	000426bc 	xorhi	zero,zero,4250
   4200c:	000426bc 	xorhi	zero,zero,4250
   42010:	000426bc 	xorhi	zero,zero,4250
   42014:	000426bc 	xorhi	zero,zero,4250
   42018:	00041e7c 	xorhi	zero,zero,4217
   4201c:	00041e7c 	xorhi	zero,zero,4217
   42020:	00041e7c 	xorhi	zero,zero,4217
   42024:	00041e7c 	xorhi	zero,zero,4217
   42028:	00041e7c 	xorhi	zero,zero,4217
   4202c:	00041e7c 	xorhi	zero,zero,4217
   42030:	00041e7c 	xorhi	zero,zero,4217
   42034:	00041e7c 	xorhi	zero,zero,4217
   42038:	00041e7c 	xorhi	zero,zero,4217
   4203c:	00041e7c 	xorhi	zero,zero,4217
   42040:	00042294 	movui	zero,4234
   42044:	00042354 	movui	zero,4237
   42048:	00041e7c 	xorhi	zero,zero,4217
   4204c:	00042354 	movui	zero,4237
   42050:	00041e7c 	xorhi	zero,zero,4217
   42054:	00041e7c 	xorhi	zero,zero,4217
   42058:	00041e7c 	xorhi	zero,zero,4217
   4205c:	00041e7c 	xorhi	zero,zero,4217
   42060:	000423e8 	cmpgeui	zero,zero,4239
   42064:	00041e7c 	xorhi	zero,zero,4217
   42068:	00041e7c 	xorhi	zero,zero,4217
   4206c:	000423f4 	movhi	zero,4239
   42070:	00041e7c 	xorhi	zero,zero,4217
   42074:	00041e7c 	xorhi	zero,zero,4217
   42078:	00041e7c 	xorhi	zero,zero,4217
   4207c:	00041e7c 	xorhi	zero,zero,4217
   42080:	00041e7c 	xorhi	zero,zero,4217
   42084:	0004242c 	andhi	zero,zero,4240
   42088:	00041e7c 	xorhi	zero,zero,4217
   4208c:	00041e7c 	xorhi	zero,zero,4217
   42090:	00042468 	cmpgeui	zero,zero,4241
   42094:	00041e7c 	xorhi	zero,zero,4217
   42098:	00041e7c 	xorhi	zero,zero,4217
   4209c:	00041e7c 	xorhi	zero,zero,4217
   420a0:	00041e7c 	xorhi	zero,zero,4217
   420a4:	00041e7c 	xorhi	zero,zero,4217
   420a8:	00041e7c 	xorhi	zero,zero,4217
   420ac:	00041e7c 	xorhi	zero,zero,4217
   420b0:	00041e7c 	xorhi	zero,zero,4217
   420b4:	00041e7c 	xorhi	zero,zero,4217
   420b8:	00041e7c 	xorhi	zero,zero,4217
   420bc:	00042700 	call	4270 <__alt_mem_onchip_mem-0x3bd90>
   420c0:	00042734 	movhi	zero,4252
   420c4:	00042354 	movui	zero,4237
   420c8:	00042354 	movui	zero,4237
   420cc:	00042354 	movui	zero,4237
   420d0:	00042680 	call	4268 <__alt_mem_onchip_mem-0x3bd98>
   420d4:	00042734 	movhi	zero,4252
   420d8:	00041e7c 	xorhi	zero,zero,4217
   420dc:	00041e7c 	xorhi	zero,zero,4217
   420e0:	0004250c 	andi	zero,zero,4244
   420e4:	00041e7c 	xorhi	zero,zero,4217
   420e8:	00042524 	muli	zero,zero,4244
   420ec:	00042740 	call	4274 <__alt_mem_onchip_mem-0x3bd8c>
   420f0:	00042584 	movi	zero,4246
   420f4:	000425d4 	movui	zero,4247
   420f8:	00041e7c 	xorhi	zero,zero,4217
   420fc:	000425e0 	cmpeqi	zero,zero,4247
   42100:	00041e7c 	xorhi	zero,zero,4217
   42104:	0004274c 	andi	zero,zero,4253
   42108:	00041e7c 	xorhi	zero,zero,4217
   4210c:	00041e7c 	xorhi	zero,zero,4217
   42110:	00042644 	movi	zero,4249
   42114:	d9012e17 	ldw	r4,1208(sp)
   42118:	d8812d15 	stw	r2,1204(sp)
   4211c:	0109c83a 	sub	r4,zero,r4
   42120:	d9012e15 	stw	r4,1208(sp)
   42124:	84000114 	ori	r16,r16,4
   42128:	ac800007 	ldb	r18,0(r21)
   4212c:	003f5006 	br	41e70 <___vfprintf_internal_r+0x170>
   42130:	d9013017 	ldw	r4,1216(sp)
   42134:	d9412917 	ldw	r5,1188(sp)
   42138:	0043ba00 	call	43ba0 <__swsetup_r>
   4213c:	10003d1e 	bne	r2,zero,42234 <___vfprintf_internal_r+0x534>
   42140:	d8c12917 	ldw	r3,1188(sp)
   42144:	1880030b 	ldhu	r2,12(r3)
   42148:	00c00284 	movi	r3,10
   4214c:	1100068c 	andi	r4,r2,26
   42150:	20ff101e 	bne	r4,r3,41d94 <___vfprintf_internal_r+0x94>
   42154:	d9012917 	ldw	r4,1188(sp)
   42158:	20c0038b 	ldhu	r3,14(r4)
   4215c:	193fffcc 	andi	r4,r3,65535
   42160:	2120001c 	xori	r4,r4,32768
   42164:	21200004 	addi	r4,r4,-32768
   42168:	203f0a16 	blt	r4,zero,41d94 <___vfprintf_internal_r+0x94>
   4216c:	d9012917 	ldw	r4,1188(sp)
   42170:	d9c12d17 	ldw	r7,1204(sp)
   42174:	10bfff4c 	andi	r2,r2,65533
   42178:	22800717 	ldw	r10,28(r4)
   4217c:	22400917 	ldw	r9,36(r4)
   42180:	d9013017 	ldw	r4,1216(sp)
   42184:	02010004 	movi	r8,1024
   42188:	d881070d 	sth	r2,1052(sp)
   4218c:	d9410404 	addi	r5,sp,1040
   42190:	d8800404 	addi	r2,sp,16
   42194:	800d883a 	mov	r6,r16
   42198:	d8c1078d 	sth	r3,1054(sp)
   4219c:	da810b15 	stw	r10,1068(sp)
   421a0:	da410d15 	stw	r9,1076(sp)
   421a4:	d8810415 	stw	r2,1040(sp)
   421a8:	d8810815 	stw	r2,1056(sp)
   421ac:	da010615 	stw	r8,1048(sp)
   421b0:	da010915 	stw	r8,1060(sp)
   421b4:	d8010a15 	stw	zero,1064(sp)
   421b8:	0041d000 	call	41d00 <___vfprintf_internal_r>
   421bc:	d8812c15 	stw	r2,1200(sp)
   421c0:	10000416 	blt	r2,zero,421d4 <___vfprintf_internal_r+0x4d4>
   421c4:	d9013017 	ldw	r4,1216(sp)
   421c8:	d9410404 	addi	r5,sp,1040
   421cc:	004570c0 	call	4570c <_fflush_r>
   421d0:	1006501e 	bne	r2,zero,43b14 <___vfprintf_internal_r+0x1e14>
   421d4:	d881070b 	ldhu	r2,1052(sp)
   421d8:	1080100c 	andi	r2,r2,64
   421dc:	10bfffcc 	andi	r2,r2,65535
   421e0:	10a0001c 	xori	r2,r2,32768
   421e4:	10a00004 	addi	r2,r2,-32768
   421e8:	10001426 	beq	r2,zero,4223c <___vfprintf_internal_r+0x53c>
   421ec:	d8c12917 	ldw	r3,1188(sp)
   421f0:	1880030b 	ldhu	r2,12(r3)
   421f4:	10801014 	ori	r2,r2,64
   421f8:	1880030d 	sth	r2,12(r3)
   421fc:	00000f06 	br	4223c <___vfprintf_internal_r+0x53c>
   42200:	d8811d17 	ldw	r2,1140(sp)
   42204:	10000426 	beq	r2,zero,42218 <___vfprintf_internal_r+0x518>
   42208:	d9013017 	ldw	r4,1216(sp)
   4220c:	d9412917 	ldw	r5,1188(sp)
   42210:	d9811b04 	addi	r6,sp,1132
   42214:	0041ccc0 	call	41ccc <__sprint_r>
   42218:	d8c12917 	ldw	r3,1188(sp)
   4221c:	1880030b 	ldhu	r2,12(r3)
   42220:	1080100c 	andi	r2,r2,64
   42224:	10bfffcc 	andi	r2,r2,65535
   42228:	10a0001c 	xori	r2,r2,32768
   4222c:	10a00004 	addi	r2,r2,-32768
   42230:	10000226 	beq	r2,zero,4223c <___vfprintf_internal_r+0x53c>
   42234:	00bfffc4 	movi	r2,-1
   42238:	d8812c15 	stw	r2,1200(sp)
   4223c:	d8812c17 	ldw	r2,1200(sp)
   42240:	dfc14617 	ldw	ra,1304(sp)
   42244:	df014517 	ldw	fp,1300(sp)
   42248:	ddc14417 	ldw	r23,1296(sp)
   4224c:	dd814317 	ldw	r22,1292(sp)
   42250:	dd414217 	ldw	r21,1288(sp)
   42254:	dd014117 	ldw	r20,1284(sp)
   42258:	dcc14017 	ldw	r19,1280(sp)
   4225c:	dc813f17 	ldw	r18,1276(sp)
   42260:	dc413e17 	ldw	r17,1272(sp)
   42264:	dc013d17 	ldw	r16,1268(sp)
   42268:	dec14704 	addi	sp,sp,1308
   4226c:	f800283a 	ret
   42270:	d9412917 	ldw	r5,1188(sp)
   42274:	8809883a 	mov	r4,r17
   42278:	d9811b04 	addi	r6,sp,1132
   4227c:	0041ccc0 	call	41ccc <__sprint_r>
   42280:	103fe51e 	bne	r2,zero,42218 <___vfprintf_internal_r+0x518>
   42284:	da400404 	addi	r9,sp,16
   42288:	003eea06 	br	41e34 <___vfprintf_internal_r+0x134>
   4228c:	00459c80 	call	459c8 <__sinit>
   42290:	003eb306 	br	41d60 <___vfprintf_internal_r+0x60>
   42294:	e013883a 	mov	r9,fp
   42298:	84000414 	ori	r16,r16,16
   4229c:	1839883a 	mov	fp,r3
   422a0:	8080080c 	andi	r2,r16,32
   422a4:	10034426 	beq	r2,zero,42fb8 <___vfprintf_internal_r+0x12b8>
   422a8:	d8c12d17 	ldw	r3,1204(sp)
   422ac:	18800117 	ldw	r2,4(r3)
   422b0:	1dc00017 	ldw	r23,0(r3)
   422b4:	18c00204 	addi	r3,r3,8
   422b8:	d8c12d15 	stw	r3,1204(sp)
   422bc:	102d883a 	mov	r22,r2
   422c0:	1003020e 	bge	r2,zero,42ecc <___vfprintf_internal_r+0x11cc>
   422c4:	05efc83a 	sub	r23,zero,r23
   422c8:	b804c03a 	cmpne	r2,r23,zero
   422cc:	05adc83a 	sub	r22,zero,r22
   422d0:	b0adc83a 	sub	r22,r22,r2
   422d4:	00800b44 	movi	r2,45
   422d8:	d8812585 	stb	r2,1174(sp)
   422dc:	00c00044 	movi	r3,1
   422e0:	bd84b03a 	or	r2,r23,r22
   422e4:	e0000216 	blt	fp,zero,422f0 <___vfprintf_internal_r+0x5f0>
   422e8:	013fdfc4 	movi	r4,-129
   422ec:	8120703a 	and	r16,r16,r4
   422f0:	1001cc1e 	bne	r2,zero,42a24 <___vfprintf_internal_r+0xd24>
   422f4:	e001cb1e 	bne	fp,zero,42a24 <___vfprintf_internal_r+0xd24>
   422f8:	18c03fcc 	andi	r3,r3,255
   422fc:	1802ca1e 	bne	r3,zero,42e28 <___vfprintf_internal_r+0x1128>
   42300:	8080004c 	andi	r2,r16,1
   42304:	1002c826 	beq	r2,zero,42e28 <___vfprintf_internal_r+0x1128>
   42308:	d8c13917 	ldw	r3,1252(sp)
   4230c:	00800c04 	movi	r2,48
   42310:	d8810dc5 	stb	r2,1079(sp)
   42314:	d8c12b15 	stw	r3,1196(sp)
   42318:	dcc10dc4 	addi	r19,sp,1079
   4231c:	d8812b17 	ldw	r2,1196(sp)
   42320:	d8812815 	stw	r2,1184(sp)
   42324:	1700010e 	bge	r2,fp,4232c <___vfprintf_internal_r+0x62c>
   42328:	df012815 	stw	fp,1184(sp)
   4232c:	d8812583 	ldbu	r2,1174(sp)
   42330:	df013115 	stw	fp,1220(sp)
   42334:	10803fcc 	andi	r2,r2,255
   42338:	1080201c 	xori	r2,r2,128
   4233c:	10bfe004 	addi	r2,r2,-128
   42340:	103ed726 	beq	r2,zero,41ea0 <___vfprintf_internal_r+0x1a0>
   42344:	d8c12817 	ldw	r3,1184(sp)
   42348:	18c00044 	addi	r3,r3,1
   4234c:	d8c12815 	stw	r3,1184(sp)
   42350:	003ed306 	br	41ea0 <___vfprintf_internal_r+0x1a0>
   42354:	8080020c 	andi	r2,r16,8
   42358:	e013883a 	mov	r9,fp
   4235c:	1839883a 	mov	fp,r3
   42360:	1003a626 	beq	r2,zero,431fc <___vfprintf_internal_r+0x14fc>
   42364:	d9012d17 	ldw	r4,1204(sp)
   42368:	25800017 	ldw	r22,0(r4)
   4236c:	25000117 	ldw	r20,4(r4)
   42370:	21000204 	addi	r4,r4,8
   42374:	d9012d15 	stw	r4,1204(sp)
   42378:	dd813315 	stw	r22,1228(sp)
   4237c:	dd013415 	stw	r20,1232(sp)
   42380:	b009883a 	mov	r4,r22
   42384:	a00b883a 	mov	r5,r20
   42388:	da413c15 	stw	r9,1264(sp)
   4238c:	0048b540 	call	48b54 <__isinfd>
   42390:	da413c17 	ldw	r9,1264(sp)
   42394:	b009883a 	mov	r4,r22
   42398:	a00b883a 	mov	r5,r20
   4239c:	10041d26 	beq	r2,zero,43414 <___vfprintf_internal_r+0x1714>
   423a0:	000d883a 	mov	r6,zero
   423a4:	000f883a 	mov	r7,zero
   423a8:	004a4900 	call	4a490 <__ltdf2>
   423ac:	da413c17 	ldw	r9,1264(sp)
   423b0:	1004da16 	blt	r2,zero,4371c <___vfprintf_internal_r+0x1a1c>
   423b4:	d8812583 	ldbu	r2,1174(sp)
   423b8:	00c011c4 	movi	r3,71
   423bc:	1c83d116 	blt	r3,r18,43304 <___vfprintf_internal_r+0x1604>
   423c0:	04c00174 	movhi	r19,5
   423c4:	9cf5f604 	addi	r19,r19,-10280
   423c8:	00c000c4 	movi	r3,3
   423cc:	d8c12815 	stw	r3,1184(sp)
   423d0:	00ffdfc4 	movi	r3,-129
   423d4:	80e0703a 	and	r16,r16,r3
   423d8:	d8c12817 	ldw	r3,1184(sp)
   423dc:	d8013115 	stw	zero,1220(sp)
   423e0:	d8c12b15 	stw	r3,1196(sp)
   423e4:	003fd306 	br	42334 <___vfprintf_internal_r+0x634>
   423e8:	84000214 	ori	r16,r16,8
   423ec:	ac800007 	ldb	r18,0(r21)
   423f0:	003e9f06 	br	41e70 <___vfprintf_internal_r+0x170>
   423f4:	e013883a 	mov	r9,fp
   423f8:	84000414 	ori	r16,r16,16
   423fc:	1839883a 	mov	fp,r3
   42400:	8080080c 	andi	r2,r16,32
   42404:	10031d26 	beq	r2,zero,4307c <___vfprintf_internal_r+0x137c>
   42408:	d8812d17 	ldw	r2,1204(sp)
   4240c:	0007883a 	mov	r3,zero
   42410:	15c00017 	ldw	r23,0(r2)
   42414:	15800117 	ldw	r22,4(r2)
   42418:	10800204 	addi	r2,r2,8
   4241c:	d8812d15 	stw	r2,1204(sp)
   42420:	d8012585 	stb	zero,1174(sp)
   42424:	bd84b03a 	or	r2,r23,r22
   42428:	003fae06 	br	422e4 <___vfprintf_internal_r+0x5e4>
   4242c:	e013883a 	mov	r9,fp
   42430:	84000414 	ori	r16,r16,16
   42434:	1839883a 	mov	fp,r3
   42438:	8080080c 	andi	r2,r16,32
   4243c:	1002e726 	beq	r2,zero,42fdc <___vfprintf_internal_r+0x12dc>
   42440:	d8c12d17 	ldw	r3,1204(sp)
   42444:	d9012d17 	ldw	r4,1204(sp)
   42448:	1dc00017 	ldw	r23,0(r3)
   4244c:	1d800117 	ldw	r22,4(r3)
   42450:	21000204 	addi	r4,r4,8
   42454:	00c00044 	movi	r3,1
   42458:	d9012d15 	stw	r4,1204(sp)
   4245c:	bd84b03a 	or	r2,r23,r22
   42460:	d8012585 	stb	zero,1174(sp)
   42464:	003f9f06 	br	422e4 <___vfprintf_internal_r+0x5e4>
   42468:	e013883a 	mov	r9,fp
   4246c:	1839883a 	mov	fp,r3
   42470:	00c00174 	movhi	r3,5
   42474:	18f5fa04 	addi	r3,r3,-10264
   42478:	d8c13615 	stw	r3,1240(sp)
   4247c:	8080080c 	andi	r2,r16,32
   42480:	10007726 	beq	r2,zero,42660 <___vfprintf_internal_r+0x960>
   42484:	d9012d17 	ldw	r4,1204(sp)
   42488:	25c00017 	ldw	r23,0(r4)
   4248c:	25800117 	ldw	r22,4(r4)
   42490:	21000204 	addi	r4,r4,8
   42494:	d9012d15 	stw	r4,1204(sp)
   42498:	8080004c 	andi	r2,r16,1
   4249c:	1002c226 	beq	r2,zero,42fa8 <___vfprintf_internal_r+0x12a8>
   424a0:	bd84b03a 	or	r2,r23,r22
   424a4:	10035d26 	beq	r2,zero,4321c <___vfprintf_internal_r+0x151c>
   424a8:	00c00c04 	movi	r3,48
   424ac:	d8c12505 	stb	r3,1172(sp)
   424b0:	dc812545 	stb	r18,1173(sp)
   424b4:	84000094 	ori	r16,r16,2
   424b8:	00c00084 	movi	r3,2
   424bc:	d8012585 	stb	zero,1174(sp)
   424c0:	003f8806 	br	422e4 <___vfprintf_internal_r+0x5e4>
   424c4:	ac800007 	ldb	r18,0(r21)
   424c8:	00c00a84 	movi	r3,42
   424cc:	adc00044 	addi	r23,r21,1
   424d0:	90c57526 	beq	r18,r3,43aa8 <___vfprintf_internal_r+0x1da8>
   424d4:	95bff404 	addi	r22,r18,-48
   424d8:	0009883a 	mov	r4,zero
   424dc:	9d84ff36 	bltu	r19,r22,438dc <___vfprintf_internal_r+0x1bdc>
   424e0:	01400284 	movi	r5,10
   424e4:	0041a580 	call	41a58 <__mulsi3>
   424e8:	bc800007 	ldb	r18,0(r23)
   424ec:	b089883a 	add	r4,r22,r2
   424f0:	bdc00044 	addi	r23,r23,1
   424f4:	95bff404 	addi	r22,r18,-48
   424f8:	9dbff92e 	bgeu	r19,r22,424e0 <___vfprintf_internal_r+0x7e0>
   424fc:	2007883a 	mov	r3,r4
   42500:	20044316 	blt	r4,zero,43610 <___vfprintf_internal_r+0x1910>
   42504:	b82b883a 	mov	r21,r23
   42508:	003e5a06 	br	41e74 <___vfprintf_internal_r+0x174>
   4250c:	ac800007 	ldb	r18,0(r21)
   42510:	01001b04 	movi	r4,108
   42514:	a805883a 	mov	r2,r21
   42518:	91045526 	beq	r18,r4,43670 <___vfprintf_internal_r+0x1970>
   4251c:	84000414 	ori	r16,r16,16
   42520:	003e5306 	br	41e70 <___vfprintf_internal_r+0x170>
   42524:	8080080c 	andi	r2,r16,32
   42528:	e013883a 	mov	r9,fp
   4252c:	10034026 	beq	r2,zero,43230 <___vfprintf_internal_r+0x1530>
   42530:	d9012d17 	ldw	r4,1204(sp)
   42534:	20800017 	ldw	r2,0(r4)
   42538:	d9012c17 	ldw	r4,1200(sp)
   4253c:	2007d7fa 	srai	r3,r4,31
   42540:	d9012d17 	ldw	r4,1204(sp)
   42544:	10c00115 	stw	r3,4(r2)
   42548:	21000104 	addi	r4,r4,4
   4254c:	d9012d15 	stw	r4,1204(sp)
   42550:	d9012c17 	ldw	r4,1200(sp)
   42554:	11000015 	stw	r4,0(r2)
   42558:	003e1f06 	br	41dd8 <___vfprintf_internal_r+0xd8>
   4255c:	d9012d17 	ldw	r4,1204(sp)
   42560:	21000017 	ldw	r4,0(r4)
   42564:	d9012e15 	stw	r4,1208(sp)
   42568:	d9012d17 	ldw	r4,1204(sp)
   4256c:	20800104 	addi	r2,r4,4
   42570:	d9012e17 	ldw	r4,1208(sp)
   42574:	203ee716 	blt	r4,zero,42114 <___vfprintf_internal_r+0x414>
   42578:	d8812d15 	stw	r2,1204(sp)
   4257c:	ac800007 	ldb	r18,0(r21)
   42580:	003e3b06 	br	41e70 <___vfprintf_internal_r+0x170>
   42584:	e013883a 	mov	r9,fp
   42588:	1839883a 	mov	fp,r3
   4258c:	d8c12d17 	ldw	r3,1204(sp)
   42590:	00800c04 	movi	r2,48
   42594:	01000174 	movhi	r4,5
   42598:	2135ff04 	addi	r4,r4,-10244
   4259c:	1dc00017 	ldw	r23,0(r3)
   425a0:	18c00104 	addi	r3,r3,4
   425a4:	d8812505 	stb	r2,1172(sp)
   425a8:	00801e04 	movi	r2,120
   425ac:	d8812545 	stb	r2,1173(sp)
   425b0:	d8c12d15 	stw	r3,1204(sp)
   425b4:	002d883a 	mov	r22,zero
   425b8:	84000094 	ori	r16,r16,2
   425bc:	d9013615 	stw	r4,1240(sp)
   425c0:	00c00084 	movi	r3,2
   425c4:	04801e04 	movi	r18,120
   425c8:	b805883a 	mov	r2,r23
   425cc:	d8012585 	stb	zero,1174(sp)
   425d0:	003f4406 	br	422e4 <___vfprintf_internal_r+0x5e4>
   425d4:	84000814 	ori	r16,r16,32
   425d8:	ac800007 	ldb	r18,0(r21)
   425dc:	003e2406 	br	41e70 <___vfprintf_internal_r+0x170>
   425e0:	d8812d17 	ldw	r2,1204(sp)
   425e4:	d8012585 	stb	zero,1174(sp)
   425e8:	e013883a 	mov	r9,fp
   425ec:	14c00017 	ldw	r19,0(r2)
   425f0:	1839883a 	mov	fp,r3
   425f4:	15c00104 	addi	r23,r2,4
   425f8:	98045526 	beq	r19,zero,43750 <___vfprintf_internal_r+0x1a50>
   425fc:	9809883a 	mov	r4,r19
   42600:	18043116 	blt	r3,zero,436c8 <___vfprintf_internal_r+0x19c8>
   42604:	000b883a 	mov	r5,zero
   42608:	180d883a 	mov	r6,r3
   4260c:	da413c15 	stw	r9,1264(sp)
   42610:	00470680 	call	47068 <memchr>
   42614:	da413c17 	ldw	r9,1264(sp)
   42618:	10047a26 	beq	r2,zero,43804 <___vfprintf_internal_r+0x1b04>
   4261c:	14c5c83a 	sub	r2,r2,r19
   42620:	d8812b15 	stw	r2,1196(sp)
   42624:	e083d40e 	bge	fp,r2,43578 <___vfprintf_internal_r+0x1878>
   42628:	df012815 	stw	fp,1184(sp)
   4262c:	e004e416 	blt	fp,zero,439c0 <___vfprintf_internal_r+0x1cc0>
   42630:	d8812583 	ldbu	r2,1174(sp)
   42634:	df012b15 	stw	fp,1196(sp)
   42638:	ddc12d15 	stw	r23,1204(sp)
   4263c:	d8013115 	stw	zero,1220(sp)
   42640:	003f3c06 	br	42334 <___vfprintf_internal_r+0x634>
   42644:	00800174 	movhi	r2,5
   42648:	10b5ff04 	addi	r2,r2,-10244
   4264c:	d8813615 	stw	r2,1240(sp)
   42650:	8080080c 	andi	r2,r16,32
   42654:	e013883a 	mov	r9,fp
   42658:	1839883a 	mov	fp,r3
   4265c:	103f891e 	bne	r2,zero,42484 <___vfprintf_internal_r+0x784>
   42660:	8080040c 	andi	r2,r16,16
   42664:	1002c326 	beq	r2,zero,43174 <___vfprintf_internal_r+0x1474>
   42668:	d8812d17 	ldw	r2,1204(sp)
   4266c:	002d883a 	mov	r22,zero
   42670:	15c00017 	ldw	r23,0(r2)
   42674:	10800104 	addi	r2,r2,4
   42678:	d8812d15 	stw	r2,1204(sp)
   4267c:	003f8606 	br	42498 <___vfprintf_internal_r+0x798>
   42680:	84001014 	ori	r16,r16,64
   42684:	ac800007 	ldb	r18,0(r21)
   42688:	003df906 	br	41e70 <___vfprintf_internal_r+0x170>
   4268c:	d8812587 	ldb	r2,1174(sp)
   42690:	1002e51e 	bne	r2,zero,43228 <___vfprintf_internal_r+0x1528>
   42694:	00800804 	movi	r2,32
   42698:	d8812585 	stb	r2,1174(sp)
   4269c:	ac800007 	ldb	r18,0(r21)
   426a0:	003df306 	br	41e70 <___vfprintf_internal_r+0x170>
   426a4:	84000054 	ori	r16,r16,1
   426a8:	ac800007 	ldb	r18,0(r21)
   426ac:	003df006 	br	41e70 <___vfprintf_internal_r+0x170>
   426b0:	84002014 	ori	r16,r16,128
   426b4:	ac800007 	ldb	r18,0(r21)
   426b8:	003ded06 	br	41e70 <___vfprintf_internal_r+0x170>
   426bc:	0009883a 	mov	r4,zero
   426c0:	95bff404 	addi	r22,r18,-48
   426c4:	182f883a 	mov	r23,r3
   426c8:	01400284 	movi	r5,10
   426cc:	0041a580 	call	41a58 <__mulsi3>
   426d0:	ac800007 	ldb	r18,0(r21)
   426d4:	1589883a 	add	r4,r2,r22
   426d8:	ad400044 	addi	r21,r21,1
   426dc:	95bff404 	addi	r22,r18,-48
   426e0:	9dbff92e 	bgeu	r19,r22,426c8 <___vfprintf_internal_r+0x9c8>
   426e4:	b807883a 	mov	r3,r23
   426e8:	d9012e15 	stw	r4,1208(sp)
   426ec:	003de106 	br	41e74 <___vfprintf_internal_r+0x174>
   426f0:	00800ac4 	movi	r2,43
   426f4:	d8812585 	stb	r2,1174(sp)
   426f8:	ac800007 	ldb	r18,0(r21)
   426fc:	003ddc06 	br	41e70 <___vfprintf_internal_r+0x170>
   42700:	d8c12d17 	ldw	r3,1204(sp)
   42704:	d9012d17 	ldw	r4,1204(sp)
   42708:	e013883a 	mov	r9,fp
   4270c:	18800017 	ldw	r2,0(r3)
   42710:	21000104 	addi	r4,r4,4
   42714:	00c00044 	movi	r3,1
   42718:	d8c12815 	stw	r3,1184(sp)
   4271c:	d8012585 	stb	zero,1174(sp)
   42720:	d8810405 	stb	r2,1040(sp)
   42724:	d9012d15 	stw	r4,1204(sp)
   42728:	d8c12b15 	stw	r3,1196(sp)
   4272c:	dcc10404 	addi	r19,sp,1040
   42730:	003dda06 	br	41e9c <___vfprintf_internal_r+0x19c>
   42734:	e013883a 	mov	r9,fp
   42738:	1839883a 	mov	fp,r3
   4273c:	003ed806 	br	422a0 <___vfprintf_internal_r+0x5a0>
   42740:	e013883a 	mov	r9,fp
   42744:	1839883a 	mov	fp,r3
   42748:	003f2d06 	br	42400 <___vfprintf_internal_r+0x700>
   4274c:	e013883a 	mov	r9,fp
   42750:	1839883a 	mov	fp,r3
   42754:	003f3806 	br	42438 <___vfprintf_internal_r+0x738>
   42758:	da011d17 	ldw	r8,1140(sp)
   4275c:	d8c11c17 	ldw	r3,1136(sp)
   42760:	d8812587 	ldb	r2,1174(sp)
   42764:	10000b26 	beq	r2,zero,42794 <___vfprintf_internal_r+0xa94>
   42768:	d8812584 	addi	r2,sp,1174
   4276c:	48800015 	stw	r2,0(r9)
   42770:	00800044 	movi	r2,1
   42774:	48800115 	stw	r2,4(r9)
   42778:	4091883a 	add	r8,r8,r2
   4277c:	1887883a 	add	r3,r3,r2
   42780:	da011d15 	stw	r8,1140(sp)
   42784:	d8c11c15 	stw	r3,1136(sp)
   42788:	008001c4 	movi	r2,7
   4278c:	10c18e16 	blt	r2,r3,42dc8 <___vfprintf_internal_r+0x10c8>
   42790:	4a400204 	addi	r9,r9,8
   42794:	d9012a17 	ldw	r4,1192(sp)
   42798:	20000b26 	beq	r4,zero,427c8 <___vfprintf_internal_r+0xac8>
   4279c:	d8812504 	addi	r2,sp,1172
   427a0:	48800015 	stw	r2,0(r9)
   427a4:	00800084 	movi	r2,2
   427a8:	48800115 	stw	r2,4(r9)
   427ac:	4091883a 	add	r8,r8,r2
   427b0:	18c00044 	addi	r3,r3,1
   427b4:	da011d15 	stw	r8,1140(sp)
   427b8:	d8c11c15 	stw	r3,1136(sp)
   427bc:	008001c4 	movi	r2,7
   427c0:	10c17816 	blt	r2,r3,42da4 <___vfprintf_internal_r+0x10a4>
   427c4:	4a400204 	addi	r9,r9,8
   427c8:	d9012f17 	ldw	r4,1212(sp)
   427cc:	00802004 	movi	r2,128
   427d0:	2080fc26 	beq	r4,r2,42bc4 <___vfprintf_internal_r+0xec4>
   427d4:	d8813117 	ldw	r2,1220(sp)
   427d8:	d9012b17 	ldw	r4,1196(sp)
   427dc:	112fc83a 	sub	r23,r2,r4
   427e0:	05c02a0e 	bge	zero,r23,4288c <___vfprintf_internal_r+0xb8c>
   427e4:	07000404 	movi	fp,16
   427e8:	05000174 	movhi	r20,5
   427ec:	a5360a84 	addi	r20,r20,-10198
   427f0:	e5c01d0e 	bge	fp,r23,42868 <___vfprintf_internal_r+0xb68>
   427f4:	dc812a15 	stw	r18,1192(sp)
   427f8:	058001c4 	movi	r22,7
   427fc:	a025883a 	mov	r18,r20
   42800:	8029883a 	mov	r20,r16
   42804:	dc012917 	ldw	r16,1188(sp)
   42808:	00000306 	br	42818 <___vfprintf_internal_r+0xb18>
   4280c:	bdfffc04 	addi	r23,r23,-16
   42810:	4a400204 	addi	r9,r9,8
   42814:	e5c0110e 	bge	fp,r23,4285c <___vfprintf_internal_r+0xb5c>
   42818:	4c800015 	stw	r18,0(r9)
   4281c:	4f000115 	stw	fp,4(r9)
   42820:	42000404 	addi	r8,r8,16
   42824:	18c00044 	addi	r3,r3,1
   42828:	da011d15 	stw	r8,1140(sp)
   4282c:	d8c11c15 	stw	r3,1136(sp)
   42830:	b0fff60e 	bge	r22,r3,4280c <___vfprintf_internal_r+0xb0c>
   42834:	8809883a 	mov	r4,r17
   42838:	800b883a 	mov	r5,r16
   4283c:	d9811b04 	addi	r6,sp,1132
   42840:	0041ccc0 	call	41ccc <__sprint_r>
   42844:	103e741e 	bne	r2,zero,42218 <___vfprintf_internal_r+0x518>
   42848:	bdfffc04 	addi	r23,r23,-16
   4284c:	da011d17 	ldw	r8,1140(sp)
   42850:	d8c11c17 	ldw	r3,1136(sp)
   42854:	da400404 	addi	r9,sp,16
   42858:	e5ffef16 	blt	fp,r23,42818 <___vfprintf_internal_r+0xb18>
   4285c:	a021883a 	mov	r16,r20
   42860:	9029883a 	mov	r20,r18
   42864:	dc812a17 	ldw	r18,1192(sp)
   42868:	4d000015 	stw	r20,0(r9)
   4286c:	4dc00115 	stw	r23,4(r9)
   42870:	45d1883a 	add	r8,r8,r23
   42874:	18c00044 	addi	r3,r3,1
   42878:	da011d15 	stw	r8,1140(sp)
   4287c:	d8c11c15 	stw	r3,1136(sp)
   42880:	008001c4 	movi	r2,7
   42884:	10c13e16 	blt	r2,r3,42d80 <___vfprintf_internal_r+0x1080>
   42888:	4a400204 	addi	r9,r9,8
   4288c:	8080400c 	andi	r2,r16,256
   42890:	1000831e 	bne	r2,zero,42aa0 <___vfprintf_internal_r+0xda0>
   42894:	d8812b17 	ldw	r2,1196(sp)
   42898:	4cc00015 	stw	r19,0(r9)
   4289c:	48800115 	stw	r2,4(r9)
   428a0:	4091883a 	add	r8,r8,r2
   428a4:	18c00044 	addi	r3,r3,1
   428a8:	da011d15 	stw	r8,1140(sp)
   428ac:	d8c11c15 	stw	r3,1136(sp)
   428b0:	008001c4 	movi	r2,7
   428b4:	10c05316 	blt	r2,r3,42a04 <___vfprintf_internal_r+0xd04>
   428b8:	4a400204 	addi	r9,r9,8
   428bc:	8400010c 	andi	r16,r16,4
   428c0:	80002e26 	beq	r16,zero,4297c <___vfprintf_internal_r+0xc7c>
   428c4:	d8812e17 	ldw	r2,1208(sp)
   428c8:	d8c12817 	ldw	r3,1184(sp)
   428cc:	10e1c83a 	sub	r16,r2,r3
   428d0:	04002a0e 	bge	zero,r16,4297c <___vfprintf_internal_r+0xc7c>
   428d4:	04800404 	movi	r18,16
   428d8:	d8c11c17 	ldw	r3,1136(sp)
   428dc:	05c00174 	movhi	r23,5
   428e0:	bdf60684 	addi	r23,r23,-10214
   428e4:	9400170e 	bge	r18,r16,42944 <___vfprintf_internal_r+0xc44>
   428e8:	04c001c4 	movi	r19,7
   428ec:	dd012917 	ldw	r20,1188(sp)
   428f0:	00000306 	br	42900 <___vfprintf_internal_r+0xc00>
   428f4:	843ffc04 	addi	r16,r16,-16
   428f8:	4a400204 	addi	r9,r9,8
   428fc:	9400110e 	bge	r18,r16,42944 <___vfprintf_internal_r+0xc44>
   42900:	4dc00015 	stw	r23,0(r9)
   42904:	4c800115 	stw	r18,4(r9)
   42908:	42000404 	addi	r8,r8,16
   4290c:	18c00044 	addi	r3,r3,1
   42910:	da011d15 	stw	r8,1140(sp)
   42914:	d8c11c15 	stw	r3,1136(sp)
   42918:	98fff60e 	bge	r19,r3,428f4 <___vfprintf_internal_r+0xbf4>
   4291c:	8809883a 	mov	r4,r17
   42920:	a00b883a 	mov	r5,r20
   42924:	d9811b04 	addi	r6,sp,1132
   42928:	0041ccc0 	call	41ccc <__sprint_r>
   4292c:	103e3a1e 	bne	r2,zero,42218 <___vfprintf_internal_r+0x518>
   42930:	843ffc04 	addi	r16,r16,-16
   42934:	da011d17 	ldw	r8,1140(sp)
   42938:	d8c11c17 	ldw	r3,1136(sp)
   4293c:	da400404 	addi	r9,sp,16
   42940:	943fef16 	blt	r18,r16,42900 <___vfprintf_internal_r+0xc00>
   42944:	4dc00015 	stw	r23,0(r9)
   42948:	4c000115 	stw	r16,4(r9)
   4294c:	8211883a 	add	r8,r16,r8
   42950:	18c00044 	addi	r3,r3,1
   42954:	da011d15 	stw	r8,1140(sp)
   42958:	d8c11c15 	stw	r3,1136(sp)
   4295c:	008001c4 	movi	r2,7
   42960:	10c0060e 	bge	r2,r3,4297c <___vfprintf_internal_r+0xc7c>
   42964:	d9412917 	ldw	r5,1188(sp)
   42968:	8809883a 	mov	r4,r17
   4296c:	d9811b04 	addi	r6,sp,1132
   42970:	0041ccc0 	call	41ccc <__sprint_r>
   42974:	103e281e 	bne	r2,zero,42218 <___vfprintf_internal_r+0x518>
   42978:	da011d17 	ldw	r8,1140(sp)
   4297c:	dd012817 	ldw	r20,1184(sp)
   42980:	d9012e17 	ldw	r4,1208(sp)
   42984:	a100010e 	bge	r20,r4,4298c <___vfprintf_internal_r+0xc8c>
   42988:	2029883a 	mov	r20,r4
   4298c:	d8812c17 	ldw	r2,1200(sp)
   42990:	1505883a 	add	r2,r2,r20
   42994:	d8812c15 	stw	r2,1200(sp)
   42998:	4000b91e 	bne	r8,zero,42c80 <___vfprintf_internal_r+0xf80>
   4299c:	d8011c15 	stw	zero,1136(sp)
   429a0:	a8800007 	ldb	r2,0(r21)
   429a4:	da400404 	addi	r9,sp,16
   429a8:	103d0d1e 	bne	r2,zero,41de0 <___vfprintf_internal_r+0xe0>
   429ac:	a825883a 	mov	r18,r21
   429b0:	003d2306 	br	41e40 <___vfprintf_internal_r+0x140>
   429b4:	d9412917 	ldw	r5,1188(sp)
   429b8:	8809883a 	mov	r4,r17
   429bc:	d9811b04 	addi	r6,sp,1132
   429c0:	0041ccc0 	call	41ccc <__sprint_r>
   429c4:	103e141e 	bne	r2,zero,42218 <___vfprintf_internal_r+0x518>
   429c8:	da011d17 	ldw	r8,1140(sp)
   429cc:	da400404 	addi	r9,sp,16
   429d0:	8080004c 	andi	r2,r16,1
   429d4:	103fb926 	beq	r2,zero,428bc <___vfprintf_internal_r+0xbbc>
   429d8:	d8c11c17 	ldw	r3,1136(sp)
   429dc:	d9013717 	ldw	r4,1244(sp)
   429e0:	00800044 	movi	r2,1
   429e4:	48800115 	stw	r2,4(r9)
   429e8:	49000015 	stw	r4,0(r9)
   429ec:	4091883a 	add	r8,r8,r2
   429f0:	1887883a 	add	r3,r3,r2
   429f4:	da011d15 	stw	r8,1140(sp)
   429f8:	d8c11c15 	stw	r3,1136(sp)
   429fc:	008001c4 	movi	r2,7
   42a00:	10ffad0e 	bge	r2,r3,428b8 <___vfprintf_internal_r+0xbb8>
   42a04:	d9412917 	ldw	r5,1188(sp)
   42a08:	8809883a 	mov	r4,r17
   42a0c:	d9811b04 	addi	r6,sp,1132
   42a10:	0041ccc0 	call	41ccc <__sprint_r>
   42a14:	103e001e 	bne	r2,zero,42218 <___vfprintf_internal_r+0x518>
   42a18:	da400404 	addi	r9,sp,16
   42a1c:	da011d17 	ldw	r8,1140(sp)
   42a20:	003fa606 	br	428bc <___vfprintf_internal_r+0xbbc>
   42a24:	18803fcc 	andi	r2,r3,255
   42a28:	00c00044 	movi	r3,1
   42a2c:	10c10126 	beq	r2,r3,42e34 <___vfprintf_internal_r+0x1134>
   42a30:	00c00084 	movi	r3,2
   42a34:	10c0ed26 	beq	r2,r3,42dec <___vfprintf_internal_r+0x10ec>
   42a38:	d8c10dc4 	addi	r3,sp,1079
   42a3c:	b808d0fa 	srli	r4,r23,3
   42a40:	b00a977a 	slli	r5,r22,29
   42a44:	b02cd0fa 	srli	r22,r22,3
   42a48:	bdc001cc 	andi	r23,r23,7
   42a4c:	b8800c04 	addi	r2,r23,48
   42a50:	292eb03a 	or	r23,r5,r4
   42a54:	18800005 	stb	r2,0(r3)
   42a58:	bd88b03a 	or	r4,r23,r22
   42a5c:	1827883a 	mov	r19,r3
   42a60:	18ffffc4 	addi	r3,r3,-1
   42a64:	203ff51e 	bne	r4,zero,42a3c <___vfprintf_internal_r+0xd3c>
   42a68:	8100004c 	andi	r4,r16,1
   42a6c:	980b883a 	mov	r5,r19
   42a70:	20000726 	beq	r4,zero,42a90 <___vfprintf_internal_r+0xd90>
   42a74:	10803fcc 	andi	r2,r2,255
   42a78:	1080201c 	xori	r2,r2,128
   42a7c:	10bfe004 	addi	r2,r2,-128
   42a80:	01000c04 	movi	r4,48
   42a84:	11000226 	beq	r2,r4,42a90 <___vfprintf_internal_r+0xd90>
   42a88:	1827883a 	mov	r19,r3
   42a8c:	293fffc5 	stb	r4,-1(r5)
   42a90:	d8812717 	ldw	r2,1180(sp)
   42a94:	14c5c83a 	sub	r2,r2,r19
   42a98:	d8812b15 	stw	r2,1196(sp)
   42a9c:	003e1f06 	br	4231c <___vfprintf_internal_r+0x61c>
   42aa0:	00801944 	movi	r2,101
   42aa4:	14807c0e 	bge	r2,r18,42c98 <___vfprintf_internal_r+0xf98>
   42aa8:	d9013317 	ldw	r4,1228(sp)
   42aac:	d9413417 	ldw	r5,1232(sp)
   42ab0:	000d883a 	mov	r6,zero
   42ab4:	000f883a 	mov	r7,zero
   42ab8:	d8c13b15 	stw	r3,1260(sp)
   42abc:	da013a15 	stw	r8,1256(sp)
   42ac0:	da413c15 	stw	r9,1264(sp)
   42ac4:	004a3100 	call	4a310 <__eqdf2>
   42ac8:	d8c13b17 	ldw	r3,1260(sp)
   42acc:	da013a17 	ldw	r8,1256(sp)
   42ad0:	da413c17 	ldw	r9,1264(sp)
   42ad4:	1001001e 	bne	r2,zero,42ed8 <___vfprintf_internal_r+0x11d8>
   42ad8:	00800174 	movhi	r2,5
   42adc:	10b60604 	addi	r2,r2,-10216
   42ae0:	48800015 	stw	r2,0(r9)
   42ae4:	00800044 	movi	r2,1
   42ae8:	48800115 	stw	r2,4(r9)
   42aec:	4091883a 	add	r8,r8,r2
   42af0:	1887883a 	add	r3,r3,r2
   42af4:	da011d15 	stw	r8,1140(sp)
   42af8:	d8c11c15 	stw	r3,1136(sp)
   42afc:	008001c4 	movi	r2,7
   42b00:	10c20316 	blt	r2,r3,43310 <___vfprintf_internal_r+0x1610>
   42b04:	4a400204 	addi	r9,r9,8
   42b08:	d8812417 	ldw	r2,1168(sp)
   42b0c:	d8c13217 	ldw	r3,1224(sp)
   42b10:	10c00216 	blt	r2,r3,42b1c <___vfprintf_internal_r+0xe1c>
   42b14:	8080004c 	andi	r2,r16,1
   42b18:	103f6826 	beq	r2,zero,428bc <___vfprintf_internal_r+0xbbc>
   42b1c:	d8c11c17 	ldw	r3,1136(sp)
   42b20:	d9013717 	ldw	r4,1244(sp)
   42b24:	00800044 	movi	r2,1
   42b28:	48800115 	stw	r2,4(r9)
   42b2c:	49000015 	stw	r4,0(r9)
   42b30:	4091883a 	add	r8,r8,r2
   42b34:	1887883a 	add	r3,r3,r2
   42b38:	da011d15 	stw	r8,1140(sp)
   42b3c:	d8c11c15 	stw	r3,1136(sp)
   42b40:	008001c4 	movi	r2,7
   42b44:	10c2ce16 	blt	r2,r3,43680 <___vfprintf_internal_r+0x1980>
   42b48:	4a400204 	addi	r9,r9,8
   42b4c:	d8813217 	ldw	r2,1224(sp)
   42b50:	14bfffc4 	addi	r18,r2,-1
   42b54:	04bf590e 	bge	zero,r18,428bc <___vfprintf_internal_r+0xbbc>
   42b58:	04c00404 	movi	r19,16
   42b5c:	d8c11c17 	ldw	r3,1136(sp)
   42b60:	05000174 	movhi	r20,5
   42b64:	a5360a84 	addi	r20,r20,-10198
   42b68:	9c818a0e 	bge	r19,r18,43194 <___vfprintf_internal_r+0x1494>
   42b6c:	058001c4 	movi	r22,7
   42b70:	ddc12917 	ldw	r23,1188(sp)
   42b74:	00000306 	br	42b84 <___vfprintf_internal_r+0xe84>
   42b78:	4a400204 	addi	r9,r9,8
   42b7c:	94bffc04 	addi	r18,r18,-16
   42b80:	9c81840e 	bge	r19,r18,43194 <___vfprintf_internal_r+0x1494>
   42b84:	4d000015 	stw	r20,0(r9)
   42b88:	4cc00115 	stw	r19,4(r9)
   42b8c:	42000404 	addi	r8,r8,16
   42b90:	18c00044 	addi	r3,r3,1
   42b94:	da011d15 	stw	r8,1140(sp)
   42b98:	d8c11c15 	stw	r3,1136(sp)
   42b9c:	b0fff60e 	bge	r22,r3,42b78 <___vfprintf_internal_r+0xe78>
   42ba0:	8809883a 	mov	r4,r17
   42ba4:	b80b883a 	mov	r5,r23
   42ba8:	d9811b04 	addi	r6,sp,1132
   42bac:	0041ccc0 	call	41ccc <__sprint_r>
   42bb0:	103d991e 	bne	r2,zero,42218 <___vfprintf_internal_r+0x518>
   42bb4:	da011d17 	ldw	r8,1140(sp)
   42bb8:	d8c11c17 	ldw	r3,1136(sp)
   42bbc:	da400404 	addi	r9,sp,16
   42bc0:	003fee06 	br	42b7c <___vfprintf_internal_r+0xe7c>
   42bc4:	d8812e17 	ldw	r2,1208(sp)
   42bc8:	d9012817 	ldw	r4,1184(sp)
   42bcc:	112fc83a 	sub	r23,r2,r4
   42bd0:	05ff000e 	bge	zero,r23,427d4 <___vfprintf_internal_r+0xad4>
   42bd4:	07000404 	movi	fp,16
   42bd8:	05000174 	movhi	r20,5
   42bdc:	a5360a84 	addi	r20,r20,-10198
   42be0:	e5c01d0e 	bge	fp,r23,42c58 <___vfprintf_internal_r+0xf58>
   42be4:	dc812a15 	stw	r18,1192(sp)
   42be8:	058001c4 	movi	r22,7
   42bec:	a025883a 	mov	r18,r20
   42bf0:	8029883a 	mov	r20,r16
   42bf4:	dc012917 	ldw	r16,1188(sp)
   42bf8:	00000306 	br	42c08 <___vfprintf_internal_r+0xf08>
   42bfc:	bdfffc04 	addi	r23,r23,-16
   42c00:	4a400204 	addi	r9,r9,8
   42c04:	e5c0110e 	bge	fp,r23,42c4c <___vfprintf_internal_r+0xf4c>
   42c08:	4c800015 	stw	r18,0(r9)
   42c0c:	4f000115 	stw	fp,4(r9)
   42c10:	42000404 	addi	r8,r8,16
   42c14:	18c00044 	addi	r3,r3,1
   42c18:	da011d15 	stw	r8,1140(sp)
   42c1c:	d8c11c15 	stw	r3,1136(sp)
   42c20:	b0fff60e 	bge	r22,r3,42bfc <___vfprintf_internal_r+0xefc>
   42c24:	8809883a 	mov	r4,r17
   42c28:	800b883a 	mov	r5,r16
   42c2c:	d9811b04 	addi	r6,sp,1132
   42c30:	0041ccc0 	call	41ccc <__sprint_r>
   42c34:	103d781e 	bne	r2,zero,42218 <___vfprintf_internal_r+0x518>
   42c38:	bdfffc04 	addi	r23,r23,-16
   42c3c:	da011d17 	ldw	r8,1140(sp)
   42c40:	d8c11c17 	ldw	r3,1136(sp)
   42c44:	da400404 	addi	r9,sp,16
   42c48:	e5ffef16 	blt	fp,r23,42c08 <___vfprintf_internal_r+0xf08>
   42c4c:	a021883a 	mov	r16,r20
   42c50:	9029883a 	mov	r20,r18
   42c54:	dc812a17 	ldw	r18,1192(sp)
   42c58:	4d000015 	stw	r20,0(r9)
   42c5c:	4dc00115 	stw	r23,4(r9)
   42c60:	45d1883a 	add	r8,r8,r23
   42c64:	18c00044 	addi	r3,r3,1
   42c68:	da011d15 	stw	r8,1140(sp)
   42c6c:	d8c11c15 	stw	r3,1136(sp)
   42c70:	008001c4 	movi	r2,7
   42c74:	10c13616 	blt	r2,r3,43150 <___vfprintf_internal_r+0x1450>
   42c78:	4a400204 	addi	r9,r9,8
   42c7c:	003ed506 	br	427d4 <___vfprintf_internal_r+0xad4>
   42c80:	d9412917 	ldw	r5,1188(sp)
   42c84:	8809883a 	mov	r4,r17
   42c88:	d9811b04 	addi	r6,sp,1132
   42c8c:	0041ccc0 	call	41ccc <__sprint_r>
   42c90:	103f4226 	beq	r2,zero,4299c <___vfprintf_internal_r+0xc9c>
   42c94:	003d6006 	br	42218 <___vfprintf_internal_r+0x518>
   42c98:	d9013217 	ldw	r4,1224(sp)
   42c9c:	00800044 	movi	r2,1
   42ca0:	4cc00015 	stw	r19,0(r9)
   42ca4:	1101000e 	bge	r2,r4,430a8 <___vfprintf_internal_r+0x13a8>
   42ca8:	00800044 	movi	r2,1
   42cac:	48800115 	stw	r2,4(r9)
   42cb0:	4091883a 	add	r8,r8,r2
   42cb4:	1887883a 	add	r3,r3,r2
   42cb8:	da011d15 	stw	r8,1140(sp)
   42cbc:	d8c11c15 	stw	r3,1136(sp)
   42cc0:	008001c4 	movi	r2,7
   42cc4:	10c10c16 	blt	r2,r3,430f8 <___vfprintf_internal_r+0x13f8>
   42cc8:	4a400204 	addi	r9,r9,8
   42ccc:	d8813717 	ldw	r2,1244(sp)
   42cd0:	48800015 	stw	r2,0(r9)
   42cd4:	00800044 	movi	r2,1
   42cd8:	48800115 	stw	r2,4(r9)
   42cdc:	4091883a 	add	r8,r8,r2
   42ce0:	1887883a 	add	r3,r3,r2
   42ce4:	da011d15 	stw	r8,1140(sp)
   42ce8:	d8c11c15 	stw	r3,1136(sp)
   42cec:	008001c4 	movi	r2,7
   42cf0:	10c10a16 	blt	r2,r3,4311c <___vfprintf_internal_r+0x141c>
   42cf4:	4c800204 	addi	r18,r9,8
   42cf8:	d9013317 	ldw	r4,1228(sp)
   42cfc:	d9413417 	ldw	r5,1232(sp)
   42d00:	000d883a 	mov	r6,zero
   42d04:	000f883a 	mov	r7,zero
   42d08:	d8c13b15 	stw	r3,1260(sp)
   42d0c:	da013a15 	stw	r8,1256(sp)
   42d10:	004a36c0 	call	4a36c <__nedf2>
   42d14:	d8c13b17 	ldw	r3,1260(sp)
   42d18:	da013a17 	ldw	r8,1256(sp)
   42d1c:	1000ba26 	beq	r2,zero,43008 <___vfprintf_internal_r+0x1308>
   42d20:	d9013217 	ldw	r4,1224(sp)
   42d24:	9cc00044 	addi	r19,r19,1
   42d28:	94c00015 	stw	r19,0(r18)
   42d2c:	20bfffc4 	addi	r2,r4,-1
   42d30:	90800115 	stw	r2,4(r18)
   42d34:	4091883a 	add	r8,r8,r2
   42d38:	18c00044 	addi	r3,r3,1
   42d3c:	da011d15 	stw	r8,1140(sp)
   42d40:	d8c11c15 	stw	r3,1136(sp)
   42d44:	008001c4 	movi	r2,7
   42d48:	10c0e216 	blt	r2,r3,430d4 <___vfprintf_internal_r+0x13d4>
   42d4c:	94800204 	addi	r18,r18,8
   42d50:	d9013517 	ldw	r4,1236(sp)
   42d54:	d8811fc4 	addi	r2,sp,1151
   42d58:	90800015 	stw	r2,0(r18)
   42d5c:	91000115 	stw	r4,4(r18)
   42d60:	4111883a 	add	r8,r8,r4
   42d64:	18c00044 	addi	r3,r3,1
   42d68:	da011d15 	stw	r8,1140(sp)
   42d6c:	d8c11c15 	stw	r3,1136(sp)
   42d70:	008001c4 	movi	r2,7
   42d74:	10ff2316 	blt	r2,r3,42a04 <___vfprintf_internal_r+0xd04>
   42d78:	92400204 	addi	r9,r18,8
   42d7c:	003ecf06 	br	428bc <___vfprintf_internal_r+0xbbc>
   42d80:	d9412917 	ldw	r5,1188(sp)
   42d84:	8809883a 	mov	r4,r17
   42d88:	d9811b04 	addi	r6,sp,1132
   42d8c:	0041ccc0 	call	41ccc <__sprint_r>
   42d90:	103d211e 	bne	r2,zero,42218 <___vfprintf_internal_r+0x518>
   42d94:	da011d17 	ldw	r8,1140(sp)
   42d98:	d8c11c17 	ldw	r3,1136(sp)
   42d9c:	da400404 	addi	r9,sp,16
   42da0:	003eba06 	br	4288c <___vfprintf_internal_r+0xb8c>
   42da4:	d9412917 	ldw	r5,1188(sp)
   42da8:	8809883a 	mov	r4,r17
   42dac:	d9811b04 	addi	r6,sp,1132
   42db0:	0041ccc0 	call	41ccc <__sprint_r>
   42db4:	103d181e 	bne	r2,zero,42218 <___vfprintf_internal_r+0x518>
   42db8:	da011d17 	ldw	r8,1140(sp)
   42dbc:	d8c11c17 	ldw	r3,1136(sp)
   42dc0:	da400404 	addi	r9,sp,16
   42dc4:	003e8006 	br	427c8 <___vfprintf_internal_r+0xac8>
   42dc8:	d9412917 	ldw	r5,1188(sp)
   42dcc:	8809883a 	mov	r4,r17
   42dd0:	d9811b04 	addi	r6,sp,1132
   42dd4:	0041ccc0 	call	41ccc <__sprint_r>
   42dd8:	103d0f1e 	bne	r2,zero,42218 <___vfprintf_internal_r+0x518>
   42ddc:	da011d17 	ldw	r8,1140(sp)
   42de0:	d8c11c17 	ldw	r3,1136(sp)
   42de4:	da400404 	addi	r9,sp,16
   42de8:	003e6a06 	br	42794 <___vfprintf_internal_r+0xa94>
   42dec:	d9413617 	ldw	r5,1240(sp)
   42df0:	d8810dc4 	addi	r2,sp,1079
   42df4:	b8c003cc 	andi	r3,r23,15
   42df8:	b008973a 	slli	r4,r22,28
   42dfc:	28c7883a 	add	r3,r5,r3
   42e00:	b82ed13a 	srli	r23,r23,4
   42e04:	18c00003 	ldbu	r3,0(r3)
   42e08:	b02cd13a 	srli	r22,r22,4
   42e0c:	25eeb03a 	or	r23,r4,r23
   42e10:	10c00005 	stb	r3,0(r2)
   42e14:	bd86b03a 	or	r3,r23,r22
   42e18:	1027883a 	mov	r19,r2
   42e1c:	10bfffc4 	addi	r2,r2,-1
   42e20:	183ff41e 	bne	r3,zero,42df4 <___vfprintf_internal_r+0x10f4>
   42e24:	003f1a06 	br	42a90 <___vfprintf_internal_r+0xd90>
   42e28:	d8012b15 	stw	zero,1196(sp)
   42e2c:	dcc10e04 	addi	r19,sp,1080
   42e30:	003d3a06 	br	4231c <___vfprintf_internal_r+0x61c>
   42e34:	b0025426 	beq	r22,zero,43788 <___vfprintf_internal_r+0x1a88>
   42e38:	b807883a 	mov	r3,r23
   42e3c:	d8810dc4 	addi	r2,sp,1079
   42e40:	882f883a 	mov	r23,r17
   42e44:	04c00244 	movi	r19,9
   42e48:	8023883a 	mov	r17,r16
   42e4c:	da412815 	stw	r9,1184(sp)
   42e50:	1821883a 	mov	r16,r3
   42e54:	8009883a 	mov	r4,r16
   42e58:	b00b883a 	mov	r5,r22
   42e5c:	01800284 	movi	r6,10
   42e60:	000f883a 	mov	r7,zero
   42e64:	1029883a 	mov	r20,r2
   42e68:	00498e00 	call	498e0 <__umoddi3>
   42e6c:	10800c04 	addi	r2,r2,48
   42e70:	8009883a 	mov	r4,r16
   42e74:	b00b883a 	mov	r5,r22
   42e78:	a0800005 	stb	r2,0(r20)
   42e7c:	01800284 	movi	r6,10
   42e80:	000f883a 	mov	r7,zero
   42e84:	00492900 	call	49290 <__udivdi3>
   42e88:	1021883a 	mov	r16,r2
   42e8c:	182d883a 	mov	r22,r3
   42e90:	a0bfffc4 	addi	r2,r20,-1
   42e94:	183fef1e 	bne	r3,zero,42e54 <___vfprintf_internal_r+0x1154>
   42e98:	9c3fee36 	bltu	r19,r16,42e54 <___vfprintf_internal_r+0x1154>
   42e9c:	da412817 	ldw	r9,1184(sp)
   42ea0:	8005883a 	mov	r2,r16
   42ea4:	8821883a 	mov	r16,r17
   42ea8:	b823883a 	mov	r17,r23
   42eac:	102f883a 	mov	r23,r2
   42eb0:	d8812717 	ldw	r2,1180(sp)
   42eb4:	a4ffffc4 	addi	r19,r20,-1
   42eb8:	bdc00c04 	addi	r23,r23,48
   42ebc:	14c5c83a 	sub	r2,r2,r19
   42ec0:	a5ffffc5 	stb	r23,-1(r20)
   42ec4:	d8812b15 	stw	r2,1196(sp)
   42ec8:	003d1406 	br	4231c <___vfprintf_internal_r+0x61c>
   42ecc:	00c00044 	movi	r3,1
   42ed0:	bd84b03a 	or	r2,r23,r22
   42ed4:	003d0306 	br	422e4 <___vfprintf_internal_r+0x5e4>
   42ed8:	dc812417 	ldw	r18,1168(sp)
   42edc:	0481140e 	bge	zero,r18,43330 <___vfprintf_internal_r+0x1630>
   42ee0:	d9013217 	ldw	r4,1224(sp)
   42ee4:	4cc00015 	stw	r19,0(r9)
   42ee8:	9100ec16 	blt	r18,r4,4329c <___vfprintf_internal_r+0x159c>
   42eec:	49000115 	stw	r4,4(r9)
   42ef0:	4111883a 	add	r8,r8,r4
   42ef4:	18c00044 	addi	r3,r3,1
   42ef8:	da011d15 	stw	r8,1140(sp)
   42efc:	d8c11c15 	stw	r3,1136(sp)
   42f00:	008001c4 	movi	r2,7
   42f04:	10c23616 	blt	r2,r3,437e0 <___vfprintf_internal_r+0x1ae0>
   42f08:	4a400204 	addi	r9,r9,8
   42f0c:	d8813217 	ldw	r2,1224(sp)
   42f10:	90a5c83a 	sub	r18,r18,r2
   42f14:	04beae0e 	bge	zero,r18,429d0 <___vfprintf_internal_r+0xcd0>
   42f18:	04c00404 	movi	r19,16
   42f1c:	d8c11c17 	ldw	r3,1136(sp)
   42f20:	05000174 	movhi	r20,5
   42f24:	a5360a84 	addi	r20,r20,-10198
   42f28:	9c81dd0e 	bge	r19,r18,436a0 <___vfprintf_internal_r+0x19a0>
   42f2c:	058001c4 	movi	r22,7
   42f30:	ddc12917 	ldw	r23,1188(sp)
   42f34:	00000306 	br	42f44 <___vfprintf_internal_r+0x1244>
   42f38:	4a400204 	addi	r9,r9,8
   42f3c:	94bffc04 	addi	r18,r18,-16
   42f40:	9c81d70e 	bge	r19,r18,436a0 <___vfprintf_internal_r+0x19a0>
   42f44:	4d000015 	stw	r20,0(r9)
   42f48:	4cc00115 	stw	r19,4(r9)
   42f4c:	42000404 	addi	r8,r8,16
   42f50:	18c00044 	addi	r3,r3,1
   42f54:	da011d15 	stw	r8,1140(sp)
   42f58:	d8c11c15 	stw	r3,1136(sp)
   42f5c:	b0fff60e 	bge	r22,r3,42f38 <___vfprintf_internal_r+0x1238>
   42f60:	8809883a 	mov	r4,r17
   42f64:	b80b883a 	mov	r5,r23
   42f68:	d9811b04 	addi	r6,sp,1132
   42f6c:	0041ccc0 	call	41ccc <__sprint_r>
   42f70:	103ca91e 	bne	r2,zero,42218 <___vfprintf_internal_r+0x518>
   42f74:	da011d17 	ldw	r8,1140(sp)
   42f78:	d8c11c17 	ldw	r3,1136(sp)
   42f7c:	da400404 	addi	r9,sp,16
   42f80:	003fee06 	br	42f3c <___vfprintf_internal_r+0x123c>
   42f84:	d9412917 	ldw	r5,1188(sp)
   42f88:	8809883a 	mov	r4,r17
   42f8c:	d9811b04 	addi	r6,sp,1132
   42f90:	0041ccc0 	call	41ccc <__sprint_r>
   42f94:	103ca01e 	bne	r2,zero,42218 <___vfprintf_internal_r+0x518>
   42f98:	da011d17 	ldw	r8,1140(sp)
   42f9c:	d8c11c17 	ldw	r3,1136(sp)
   42fa0:	da400404 	addi	r9,sp,16
   42fa4:	003dee06 	br	42760 <___vfprintf_internal_r+0xa60>
   42fa8:	00c00084 	movi	r3,2
   42fac:	bd84b03a 	or	r2,r23,r22
   42fb0:	d8012585 	stb	zero,1174(sp)
   42fb4:	003ccb06 	br	422e4 <___vfprintf_internal_r+0x5e4>
   42fb8:	8080040c 	andi	r2,r16,16
   42fbc:	1000ae26 	beq	r2,zero,43278 <___vfprintf_internal_r+0x1578>
   42fc0:	d9012d17 	ldw	r4,1204(sp)
   42fc4:	25c00017 	ldw	r23,0(r4)
   42fc8:	21000104 	addi	r4,r4,4
   42fcc:	d9012d15 	stw	r4,1204(sp)
   42fd0:	b82dd7fa 	srai	r22,r23,31
   42fd4:	b005883a 	mov	r2,r22
   42fd8:	003cb906 	br	422c0 <___vfprintf_internal_r+0x5c0>
   42fdc:	8080040c 	andi	r2,r16,16
   42fe0:	10007026 	beq	r2,zero,431a4 <___vfprintf_internal_r+0x14a4>
   42fe4:	d8812d17 	ldw	r2,1204(sp)
   42fe8:	002d883a 	mov	r22,zero
   42fec:	00c00044 	movi	r3,1
   42ff0:	15c00017 	ldw	r23,0(r2)
   42ff4:	10800104 	addi	r2,r2,4
   42ff8:	d8812d15 	stw	r2,1204(sp)
   42ffc:	d8012585 	stb	zero,1174(sp)
   43000:	b805883a 	mov	r2,r23
   43004:	003cb706 	br	422e4 <___vfprintf_internal_r+0x5e4>
   43008:	d8813217 	ldw	r2,1224(sp)
   4300c:	14ffffc4 	addi	r19,r2,-1
   43010:	04ff4f0e 	bge	zero,r19,42d50 <___vfprintf_internal_r+0x1050>
   43014:	05800404 	movi	r22,16
   43018:	05000174 	movhi	r20,5
   4301c:	a5360a84 	addi	r20,r20,-10198
   43020:	b4c0470e 	bge	r22,r19,43140 <___vfprintf_internal_r+0x1440>
   43024:	05c001c4 	movi	r23,7
   43028:	df012917 	ldw	fp,1188(sp)
   4302c:	00000306 	br	4303c <___vfprintf_internal_r+0x133c>
   43030:	94800204 	addi	r18,r18,8
   43034:	9cfffc04 	addi	r19,r19,-16
   43038:	b4c0410e 	bge	r22,r19,43140 <___vfprintf_internal_r+0x1440>
   4303c:	95000015 	stw	r20,0(r18)
   43040:	95800115 	stw	r22,4(r18)
   43044:	42000404 	addi	r8,r8,16
   43048:	18c00044 	addi	r3,r3,1
   4304c:	da011d15 	stw	r8,1140(sp)
   43050:	d8c11c15 	stw	r3,1136(sp)
   43054:	b8fff60e 	bge	r23,r3,43030 <___vfprintf_internal_r+0x1330>
   43058:	8809883a 	mov	r4,r17
   4305c:	e00b883a 	mov	r5,fp
   43060:	d9811b04 	addi	r6,sp,1132
   43064:	0041ccc0 	call	41ccc <__sprint_r>
   43068:	103c6b1e 	bne	r2,zero,42218 <___vfprintf_internal_r+0x518>
   4306c:	da011d17 	ldw	r8,1140(sp)
   43070:	d8c11c17 	ldw	r3,1136(sp)
   43074:	dc800404 	addi	r18,sp,16
   43078:	003fee06 	br	43034 <___vfprintf_internal_r+0x1334>
   4307c:	8080040c 	andi	r2,r16,16
   43080:	10005326 	beq	r2,zero,431d0 <___vfprintf_internal_r+0x14d0>
   43084:	d8c12d17 	ldw	r3,1204(sp)
   43088:	002d883a 	mov	r22,zero
   4308c:	1dc00017 	ldw	r23,0(r3)
   43090:	18c00104 	addi	r3,r3,4
   43094:	d8c12d15 	stw	r3,1204(sp)
   43098:	b805883a 	mov	r2,r23
   4309c:	0007883a 	mov	r3,zero
   430a0:	d8012585 	stb	zero,1174(sp)
   430a4:	003c8f06 	br	422e4 <___vfprintf_internal_r+0x5e4>
   430a8:	8088703a 	and	r4,r16,r2
   430ac:	203efe1e 	bne	r4,zero,42ca8 <___vfprintf_internal_r+0xfa8>
   430b0:	48800115 	stw	r2,4(r9)
   430b4:	42000044 	addi	r8,r8,1
   430b8:	18c00044 	addi	r3,r3,1
   430bc:	da011d15 	stw	r8,1140(sp)
   430c0:	d8c11c15 	stw	r3,1136(sp)
   430c4:	008001c4 	movi	r2,7
   430c8:	10c00216 	blt	r2,r3,430d4 <___vfprintf_internal_r+0x13d4>
   430cc:	4c800204 	addi	r18,r9,8
   430d0:	003f1f06 	br	42d50 <___vfprintf_internal_r+0x1050>
   430d4:	d9412917 	ldw	r5,1188(sp)
   430d8:	8809883a 	mov	r4,r17
   430dc:	d9811b04 	addi	r6,sp,1132
   430e0:	0041ccc0 	call	41ccc <__sprint_r>
   430e4:	103c4c1e 	bne	r2,zero,42218 <___vfprintf_internal_r+0x518>
   430e8:	dc800404 	addi	r18,sp,16
   430ec:	da011d17 	ldw	r8,1140(sp)
   430f0:	d8c11c17 	ldw	r3,1136(sp)
   430f4:	003f1606 	br	42d50 <___vfprintf_internal_r+0x1050>
   430f8:	d9412917 	ldw	r5,1188(sp)
   430fc:	8809883a 	mov	r4,r17
   43100:	d9811b04 	addi	r6,sp,1132
   43104:	0041ccc0 	call	41ccc <__sprint_r>
   43108:	103c431e 	bne	r2,zero,42218 <___vfprintf_internal_r+0x518>
   4310c:	da011d17 	ldw	r8,1140(sp)
   43110:	d8c11c17 	ldw	r3,1136(sp)
   43114:	da400404 	addi	r9,sp,16
   43118:	003eec06 	br	42ccc <___vfprintf_internal_r+0xfcc>
   4311c:	d9412917 	ldw	r5,1188(sp)
   43120:	8809883a 	mov	r4,r17
   43124:	d9811b04 	addi	r6,sp,1132
   43128:	0041ccc0 	call	41ccc <__sprint_r>
   4312c:	103c3a1e 	bne	r2,zero,42218 <___vfprintf_internal_r+0x518>
   43130:	da011d17 	ldw	r8,1140(sp)
   43134:	d8c11c17 	ldw	r3,1136(sp)
   43138:	dc800404 	addi	r18,sp,16
   4313c:	003eee06 	br	42cf8 <___vfprintf_internal_r+0xff8>
   43140:	95000015 	stw	r20,0(r18)
   43144:	94c00115 	stw	r19,4(r18)
   43148:	44d1883a 	add	r8,r8,r19
   4314c:	003efa06 	br	42d38 <___vfprintf_internal_r+0x1038>
   43150:	d9412917 	ldw	r5,1188(sp)
   43154:	8809883a 	mov	r4,r17
   43158:	d9811b04 	addi	r6,sp,1132
   4315c:	0041ccc0 	call	41ccc <__sprint_r>
   43160:	103c2d1e 	bne	r2,zero,42218 <___vfprintf_internal_r+0x518>
   43164:	da011d17 	ldw	r8,1140(sp)
   43168:	d8c11c17 	ldw	r3,1136(sp)
   4316c:	da400404 	addi	r9,sp,16
   43170:	003d9806 	br	427d4 <___vfprintf_internal_r+0xad4>
   43174:	8080100c 	andi	r2,r16,64
   43178:	10011626 	beq	r2,zero,435d4 <___vfprintf_internal_r+0x18d4>
   4317c:	d8c12d17 	ldw	r3,1204(sp)
   43180:	002d883a 	mov	r22,zero
   43184:	1dc0000b 	ldhu	r23,0(r3)
   43188:	18c00104 	addi	r3,r3,4
   4318c:	d8c12d15 	stw	r3,1204(sp)
   43190:	003cc106 	br	42498 <___vfprintf_internal_r+0x798>
   43194:	4d000015 	stw	r20,0(r9)
   43198:	4c800115 	stw	r18,4(r9)
   4319c:	4491883a 	add	r8,r8,r18
   431a0:	003dc006 	br	428a4 <___vfprintf_internal_r+0xba4>
   431a4:	8080100c 	andi	r2,r16,64
   431a8:	10010126 	beq	r2,zero,435b0 <___vfprintf_internal_r+0x18b0>
   431ac:	d8c12d17 	ldw	r3,1204(sp)
   431b0:	002d883a 	mov	r22,zero
   431b4:	1dc0000b 	ldhu	r23,0(r3)
   431b8:	18c00104 	addi	r3,r3,4
   431bc:	d8c12d15 	stw	r3,1204(sp)
   431c0:	b805883a 	mov	r2,r23
   431c4:	00c00044 	movi	r3,1
   431c8:	d8012585 	stb	zero,1174(sp)
   431cc:	003c4506 	br	422e4 <___vfprintf_internal_r+0x5e4>
   431d0:	8080100c 	andi	r2,r16,64
   431d4:	10010526 	beq	r2,zero,435ec <___vfprintf_internal_r+0x18ec>
   431d8:	d9012d17 	ldw	r4,1204(sp)
   431dc:	002d883a 	mov	r22,zero
   431e0:	0007883a 	mov	r3,zero
   431e4:	25c0000b 	ldhu	r23,0(r4)
   431e8:	21000104 	addi	r4,r4,4
   431ec:	d9012d15 	stw	r4,1204(sp)
   431f0:	b805883a 	mov	r2,r23
   431f4:	d8012585 	stb	zero,1174(sp)
   431f8:	003c3a06 	br	422e4 <___vfprintf_internal_r+0x5e4>
   431fc:	d8812d17 	ldw	r2,1204(sp)
   43200:	15800017 	ldw	r22,0(r2)
   43204:	15000117 	ldw	r20,4(r2)
   43208:	10800204 	addi	r2,r2,8
   4320c:	d8812d15 	stw	r2,1204(sp)
   43210:	dd813315 	stw	r22,1228(sp)
   43214:	dd013415 	stw	r20,1232(sp)
   43218:	003c5906 	br	42380 <___vfprintf_internal_r+0x680>
   4321c:	00c00084 	movi	r3,2
   43220:	d8012585 	stb	zero,1174(sp)
   43224:	003c2f06 	br	422e4 <___vfprintf_internal_r+0x5e4>
   43228:	ac800007 	ldb	r18,0(r21)
   4322c:	003b1006 	br	41e70 <___vfprintf_internal_r+0x170>
   43230:	8080040c 	andi	r2,r16,16
   43234:	1000091e 	bne	r2,zero,4325c <___vfprintf_internal_r+0x155c>
   43238:	8400100c 	andi	r16,r16,64
   4323c:	80000726 	beq	r16,zero,4325c <___vfprintf_internal_r+0x155c>
   43240:	d8c12d17 	ldw	r3,1204(sp)
   43244:	d9012c17 	ldw	r4,1200(sp)
   43248:	18800017 	ldw	r2,0(r3)
   4324c:	18c00104 	addi	r3,r3,4
   43250:	d8c12d15 	stw	r3,1204(sp)
   43254:	1100000d 	sth	r4,0(r2)
   43258:	003adf06 	br	41dd8 <___vfprintf_internal_r+0xd8>
   4325c:	d8c12d17 	ldw	r3,1204(sp)
   43260:	d9012c17 	ldw	r4,1200(sp)
   43264:	18800017 	ldw	r2,0(r3)
   43268:	18c00104 	addi	r3,r3,4
   4326c:	d8c12d15 	stw	r3,1204(sp)
   43270:	11000015 	stw	r4,0(r2)
   43274:	003ad806 	br	41dd8 <___vfprintf_internal_r+0xd8>
   43278:	8080100c 	andi	r2,r16,64
   4327c:	1000c526 	beq	r2,zero,43594 <___vfprintf_internal_r+0x1894>
   43280:	d8812d17 	ldw	r2,1204(sp)
   43284:	15c0000f 	ldh	r23,0(r2)
   43288:	10800104 	addi	r2,r2,4
   4328c:	d8812d15 	stw	r2,1204(sp)
   43290:	b82dd7fa 	srai	r22,r23,31
   43294:	b005883a 	mov	r2,r22
   43298:	003c0906 	br	422c0 <___vfprintf_internal_r+0x5c0>
   4329c:	4c800115 	stw	r18,4(r9)
   432a0:	9211883a 	add	r8,r18,r8
   432a4:	18c00044 	addi	r3,r3,1
   432a8:	da011d15 	stw	r8,1140(sp)
   432ac:	d8c11c15 	stw	r3,1136(sp)
   432b0:	008001c4 	movi	r2,7
   432b4:	10c14016 	blt	r2,r3,437b8 <___vfprintf_internal_r+0x1ab8>
   432b8:	4a400204 	addi	r9,r9,8
   432bc:	d8813717 	ldw	r2,1244(sp)
   432c0:	9ca7883a 	add	r19,r19,r18
   432c4:	48800015 	stw	r2,0(r9)
   432c8:	00800044 	movi	r2,1
   432cc:	48800115 	stw	r2,4(r9)
   432d0:	4091883a 	add	r8,r8,r2
   432d4:	1887883a 	add	r3,r3,r2
   432d8:	da011d15 	stw	r8,1140(sp)
   432dc:	d8c11c15 	stw	r3,1136(sp)
   432e0:	008001c4 	movi	r2,7
   432e4:	10c12c16 	blt	r2,r3,43798 <___vfprintf_internal_r+0x1a98>
   432e8:	4a400204 	addi	r9,r9,8
   432ec:	d9013217 	ldw	r4,1224(sp)
   432f0:	da011d17 	ldw	r8,1140(sp)
   432f4:	d8c11c17 	ldw	r3,1136(sp)
   432f8:	24a5c83a 	sub	r18,r4,r18
   432fc:	4cc00015 	stw	r19,0(r9)
   43300:	003fa506 	br	43198 <___vfprintf_internal_r+0x1498>
   43304:	04c00174 	movhi	r19,5
   43308:	9cf5f704 	addi	r19,r19,-10276
   4330c:	003c2e06 	br	423c8 <___vfprintf_internal_r+0x6c8>
   43310:	d9412917 	ldw	r5,1188(sp)
   43314:	8809883a 	mov	r4,r17
   43318:	d9811b04 	addi	r6,sp,1132
   4331c:	0041ccc0 	call	41ccc <__sprint_r>
   43320:	103bbd1e 	bne	r2,zero,42218 <___vfprintf_internal_r+0x518>
   43324:	da011d17 	ldw	r8,1140(sp)
   43328:	da400404 	addi	r9,sp,16
   4332c:	003df606 	br	42b08 <___vfprintf_internal_r+0xe08>
   43330:	00800174 	movhi	r2,5
   43334:	10b60604 	addi	r2,r2,-10216
   43338:	48800015 	stw	r2,0(r9)
   4333c:	00800044 	movi	r2,1
   43340:	48800115 	stw	r2,4(r9)
   43344:	4091883a 	add	r8,r8,r2
   43348:	1887883a 	add	r3,r3,r2
   4334c:	da011d15 	stw	r8,1140(sp)
   43350:	d8c11c15 	stw	r3,1136(sp)
   43354:	008001c4 	movi	r2,7
   43358:	10c0bc16 	blt	r2,r3,4364c <___vfprintf_internal_r+0x194c>
   4335c:	4a400204 	addi	r9,r9,8
   43360:	9000041e 	bne	r18,zero,43374 <___vfprintf_internal_r+0x1674>
   43364:	d8c13217 	ldw	r3,1224(sp)
   43368:	1800021e 	bne	r3,zero,43374 <___vfprintf_internal_r+0x1674>
   4336c:	8080004c 	andi	r2,r16,1
   43370:	103d5226 	beq	r2,zero,428bc <___vfprintf_internal_r+0xbbc>
   43374:	d8c11c17 	ldw	r3,1136(sp)
   43378:	d9013717 	ldw	r4,1244(sp)
   4337c:	00800044 	movi	r2,1
   43380:	48800115 	stw	r2,4(r9)
   43384:	49000015 	stw	r4,0(r9)
   43388:	4091883a 	add	r8,r8,r2
   4338c:	1887883a 	add	r3,r3,r2
   43390:	da011d15 	stw	r8,1140(sp)
   43394:	d8c11c15 	stw	r3,1136(sp)
   43398:	008001c4 	movi	r2,7
   4339c:	10c14516 	blt	r2,r3,438b4 <___vfprintf_internal_r+0x1bb4>
   433a0:	4a400204 	addi	r9,r9,8
   433a4:	04a5c83a 	sub	r18,zero,r18
   433a8:	0480d70e 	bge	zero,r18,43708 <___vfprintf_internal_r+0x1a08>
   433ac:	05800404 	movi	r22,16
   433b0:	05000174 	movhi	r20,5
   433b4:	a5360a84 	addi	r20,r20,-10198
   433b8:	b480db0e 	bge	r22,r18,43728 <___vfprintf_internal_r+0x1a28>
   433bc:	05c001c4 	movi	r23,7
   433c0:	df012917 	ldw	fp,1188(sp)
   433c4:	00000306 	br	433d4 <___vfprintf_internal_r+0x16d4>
   433c8:	4a400204 	addi	r9,r9,8
   433cc:	94bffc04 	addi	r18,r18,-16
   433d0:	b480d50e 	bge	r22,r18,43728 <___vfprintf_internal_r+0x1a28>
   433d4:	4d000015 	stw	r20,0(r9)
   433d8:	4d800115 	stw	r22,4(r9)
   433dc:	42000404 	addi	r8,r8,16
   433e0:	18c00044 	addi	r3,r3,1
   433e4:	da011d15 	stw	r8,1140(sp)
   433e8:	d8c11c15 	stw	r3,1136(sp)
   433ec:	b8fff60e 	bge	r23,r3,433c8 <___vfprintf_internal_r+0x16c8>
   433f0:	8809883a 	mov	r4,r17
   433f4:	e00b883a 	mov	r5,fp
   433f8:	d9811b04 	addi	r6,sp,1132
   433fc:	0041ccc0 	call	41ccc <__sprint_r>
   43400:	103b851e 	bne	r2,zero,42218 <___vfprintf_internal_r+0x518>
   43404:	da011d17 	ldw	r8,1140(sp)
   43408:	d8c11c17 	ldw	r3,1136(sp)
   4340c:	da400404 	addi	r9,sp,16
   43410:	003fee06 	br	433cc <___vfprintf_internal_r+0x16cc>
   43414:	da413c15 	stw	r9,1264(sp)
   43418:	0048b8c0 	call	48b8c <__isnand>
   4341c:	da413c17 	ldw	r9,1264(sp)
   43420:	10007e1e 	bne	r2,zero,4361c <___vfprintf_internal_r+0x191c>
   43424:	00bfffc4 	movi	r2,-1
   43428:	e0816a26 	beq	fp,r2,439d4 <___vfprintf_internal_r+0x1cd4>
   4342c:	008019c4 	movi	r2,103
   43430:	90816526 	beq	r18,r2,439c8 <___vfprintf_internal_r+0x1cc8>
   43434:	008011c4 	movi	r2,71
   43438:	90816326 	beq	r18,r2,439c8 <___vfprintf_internal_r+0x1cc8>
   4343c:	80c04014 	ori	r3,r16,256
   43440:	d8c12a15 	stw	r3,1192(sp)
   43444:	a0016516 	blt	r20,zero,439dc <___vfprintf_internal_r+0x1cdc>
   43448:	d8012f05 	stb	zero,1212(sp)
   4344c:	00801984 	movi	r2,102
   43450:	9080f226 	beq	r18,r2,4381c <___vfprintf_internal_r+0x1b1c>
   43454:	00801184 	movi	r2,70
   43458:	9080f026 	beq	r18,r2,4381c <___vfprintf_internal_r+0x1b1c>
   4345c:	00801944 	movi	r2,101
   43460:	90818d26 	beq	r18,r2,43a98 <___vfprintf_internal_r+0x1d98>
   43464:	00801144 	movi	r2,69
   43468:	90818b26 	beq	r18,r2,43a98 <___vfprintf_internal_r+0x1d98>
   4346c:	e02f883a 	mov	r23,fp
   43470:	d8812404 	addi	r2,sp,1168
   43474:	d8800115 	stw	r2,4(sp)
   43478:	d8812304 	addi	r2,sp,1164
   4347c:	d8800215 	stw	r2,8(sp)
   43480:	d8812204 	addi	r2,sp,1160
   43484:	ddc00015 	stw	r23,0(sp)
   43488:	d8800315 	stw	r2,12(sp)
   4348c:	8809883a 	mov	r4,r17
   43490:	b00b883a 	mov	r5,r22
   43494:	a00d883a 	mov	r6,r20
   43498:	01c00084 	movi	r7,2
   4349c:	da413c15 	stw	r9,1264(sp)
   434a0:	00440f00 	call	440f0 <_dtoa_r>
   434a4:	1027883a 	mov	r19,r2
   434a8:	008019c4 	movi	r2,103
   434ac:	da413c17 	ldw	r9,1264(sp)
   434b0:	9081951e 	bne	r18,r2,43b08 <___vfprintf_internal_r+0x1e08>
   434b4:	8080004c 	andi	r2,r16,1
   434b8:	10017926 	beq	r2,zero,43aa0 <___vfprintf_internal_r+0x1da0>
   434bc:	00801184 	movi	r2,70
   434c0:	9dc7883a 	add	r3,r19,r23
   434c4:	9080e626 	beq	r18,r2,43860 <___vfprintf_internal_r+0x1b60>
   434c8:	b009883a 	mov	r4,r22
   434cc:	a00b883a 	mov	r5,r20
   434d0:	000d883a 	mov	r6,zero
   434d4:	000f883a 	mov	r7,zero
   434d8:	d8c13b15 	stw	r3,1260(sp)
   434dc:	da413c15 	stw	r9,1264(sp)
   434e0:	004a3100 	call	4a310 <__eqdf2>
   434e4:	d8c13b17 	ldw	r3,1260(sp)
   434e8:	da413c17 	ldw	r9,1264(sp)
   434ec:	10000726 	beq	r2,zero,4350c <___vfprintf_internal_r+0x180c>
   434f0:	d8812217 	ldw	r2,1160(sp)
   434f4:	10c18a2e 	bgeu	r2,r3,43b20 <___vfprintf_internal_r+0x1e20>
   434f8:	01000c04 	movi	r4,48
   434fc:	11000005 	stb	r4,0(r2)
   43500:	10800044 	addi	r2,r2,1
   43504:	d8812215 	stw	r2,1160(sp)
   43508:	10fffc1e 	bne	r2,r3,434fc <___vfprintf_internal_r+0x17fc>
   4350c:	1cc7c83a 	sub	r3,r3,r19
   43510:	d8c13215 	stw	r3,1224(sp)
   43514:	008019c4 	movi	r2,103
   43518:	9080fa26 	beq	r18,r2,43904 <___vfprintf_internal_r+0x1c04>
   4351c:	008011c4 	movi	r2,71
   43520:	9080f826 	beq	r18,r2,43904 <___vfprintf_internal_r+0x1c04>
   43524:	00801984 	movi	r2,102
   43528:	90818e1e 	bne	r18,r2,43b64 <___vfprintf_internal_r+0x1e64>
   4352c:	d8812417 	ldw	r2,1168(sp)
   43530:	d8812b15 	stw	r2,1196(sp)
   43534:	00817c0e 	bge	zero,r2,43b28 <___vfprintf_internal_r+0x1e28>
   43538:	e000021e 	bne	fp,zero,43544 <___vfprintf_internal_r+0x1844>
   4353c:	8400004c 	andi	r16,r16,1
   43540:	80000426 	beq	r16,zero,43554 <___vfprintf_internal_r+0x1854>
   43544:	d8812b17 	ldw	r2,1196(sp)
   43548:	e2000044 	addi	r8,fp,1
   4354c:	1205883a 	add	r2,r2,r8
   43550:	d8812b15 	stw	r2,1196(sp)
   43554:	d8812815 	stw	r2,1184(sp)
   43558:	10010b16 	blt	r2,zero,43988 <___vfprintf_internal_r+0x1c88>
   4355c:	ddc12f07 	ldb	r23,1212(sp)
   43560:	b800e426 	beq	r23,zero,438f4 <___vfprintf_internal_r+0x1bf4>
   43564:	00800b44 	movi	r2,45
   43568:	d8812585 	stb	r2,1174(sp)
   4356c:	dc012a17 	ldw	r16,1192(sp)
   43570:	d8013115 	stw	zero,1220(sp)
   43574:	003b7306 	br	42344 <___vfprintf_internal_r+0x644>
   43578:	d8812b17 	ldw	r2,1196(sp)
   4357c:	d8812815 	stw	r2,1184(sp)
   43580:	10005716 	blt	r2,zero,436e0 <___vfprintf_internal_r+0x19e0>
   43584:	d8812583 	ldbu	r2,1174(sp)
   43588:	ddc12d15 	stw	r23,1204(sp)
   4358c:	d8013115 	stw	zero,1220(sp)
   43590:	003b6806 	br	42334 <___vfprintf_internal_r+0x634>
   43594:	d8c12d17 	ldw	r3,1204(sp)
   43598:	1dc00017 	ldw	r23,0(r3)
   4359c:	18c00104 	addi	r3,r3,4
   435a0:	d8c12d15 	stw	r3,1204(sp)
   435a4:	b82dd7fa 	srai	r22,r23,31
   435a8:	b005883a 	mov	r2,r22
   435ac:	003b4406 	br	422c0 <___vfprintf_internal_r+0x5c0>
   435b0:	d9012d17 	ldw	r4,1204(sp)
   435b4:	002d883a 	mov	r22,zero
   435b8:	00c00044 	movi	r3,1
   435bc:	25c00017 	ldw	r23,0(r4)
   435c0:	21000104 	addi	r4,r4,4
   435c4:	d9012d15 	stw	r4,1204(sp)
   435c8:	b805883a 	mov	r2,r23
   435cc:	d8012585 	stb	zero,1174(sp)
   435d0:	003b4406 	br	422e4 <___vfprintf_internal_r+0x5e4>
   435d4:	d9012d17 	ldw	r4,1204(sp)
   435d8:	002d883a 	mov	r22,zero
   435dc:	25c00017 	ldw	r23,0(r4)
   435e0:	21000104 	addi	r4,r4,4
   435e4:	d9012d15 	stw	r4,1204(sp)
   435e8:	003bab06 	br	42498 <___vfprintf_internal_r+0x798>
   435ec:	d8812d17 	ldw	r2,1204(sp)
   435f0:	002d883a 	mov	r22,zero
   435f4:	0007883a 	mov	r3,zero
   435f8:	15c00017 	ldw	r23,0(r2)
   435fc:	10800104 	addi	r2,r2,4
   43600:	d8812d15 	stw	r2,1204(sp)
   43604:	d8012585 	stb	zero,1174(sp)
   43608:	b805883a 	mov	r2,r23
   4360c:	003b3506 	br	422e4 <___vfprintf_internal_r+0x5e4>
   43610:	00ffffc4 	movi	r3,-1
   43614:	b82b883a 	mov	r21,r23
   43618:	003a1606 	br	41e74 <___vfprintf_internal_r+0x174>
   4361c:	008011c4 	movi	r2,71
   43620:	1480b116 	blt	r2,r18,438e8 <___vfprintf_internal_r+0x1be8>
   43624:	04c00174 	movhi	r19,5
   43628:	9cf5f804 	addi	r19,r19,-10272
   4362c:	00c000c4 	movi	r3,3
   43630:	00bfdfc4 	movi	r2,-129
   43634:	80a0703a 	and	r16,r16,r2
   43638:	d8c12815 	stw	r3,1184(sp)
   4363c:	d8812583 	ldbu	r2,1174(sp)
   43640:	d8c12b15 	stw	r3,1196(sp)
   43644:	d8013115 	stw	zero,1220(sp)
   43648:	003b3a06 	br	42334 <___vfprintf_internal_r+0x634>
   4364c:	d9412917 	ldw	r5,1188(sp)
   43650:	8809883a 	mov	r4,r17
   43654:	d9811b04 	addi	r6,sp,1132
   43658:	0041ccc0 	call	41ccc <__sprint_r>
   4365c:	103aee1e 	bne	r2,zero,42218 <___vfprintf_internal_r+0x518>
   43660:	dc812417 	ldw	r18,1168(sp)
   43664:	da011d17 	ldw	r8,1140(sp)
   43668:	da400404 	addi	r9,sp,16
   4366c:	003f3c06 	br	43360 <___vfprintf_internal_r+0x1660>
   43670:	ad400044 	addi	r21,r21,1
   43674:	84000814 	ori	r16,r16,32
   43678:	14800047 	ldb	r18,1(r2)
   4367c:	0039fc06 	br	41e70 <___vfprintf_internal_r+0x170>
   43680:	d9412917 	ldw	r5,1188(sp)
   43684:	8809883a 	mov	r4,r17
   43688:	d9811b04 	addi	r6,sp,1132
   4368c:	0041ccc0 	call	41ccc <__sprint_r>
   43690:	103ae11e 	bne	r2,zero,42218 <___vfprintf_internal_r+0x518>
   43694:	da011d17 	ldw	r8,1140(sp)
   43698:	da400404 	addi	r9,sp,16
   4369c:	003d2b06 	br	42b4c <___vfprintf_internal_r+0xe4c>
   436a0:	4d000015 	stw	r20,0(r9)
   436a4:	4c800115 	stw	r18,4(r9)
   436a8:	4491883a 	add	r8,r8,r18
   436ac:	18c00044 	addi	r3,r3,1
   436b0:	da011d15 	stw	r8,1140(sp)
   436b4:	d8c11c15 	stw	r3,1136(sp)
   436b8:	008001c4 	movi	r2,7
   436bc:	10fcbd16 	blt	r2,r3,429b4 <___vfprintf_internal_r+0xcb4>
   436c0:	4a400204 	addi	r9,r9,8
   436c4:	003cc206 	br	429d0 <___vfprintf_internal_r+0xcd0>
   436c8:	da413c15 	stw	r9,1264(sp)
   436cc:	0041c400 	call	41c40 <strlen>
   436d0:	d8812b15 	stw	r2,1196(sp)
   436d4:	d8812815 	stw	r2,1184(sp)
   436d8:	da413c17 	ldw	r9,1264(sp)
   436dc:	103fa90e 	bge	r2,zero,43584 <___vfprintf_internal_r+0x1884>
   436e0:	d8012815 	stw	zero,1184(sp)
   436e4:	003fa706 	br	43584 <___vfprintf_internal_r+0x1884>
   436e8:	d9412917 	ldw	r5,1188(sp)
   436ec:	8809883a 	mov	r4,r17
   436f0:	d9811b04 	addi	r6,sp,1132
   436f4:	0041ccc0 	call	41ccc <__sprint_r>
   436f8:	103ac71e 	bne	r2,zero,42218 <___vfprintf_internal_r+0x518>
   436fc:	da011d17 	ldw	r8,1140(sp)
   43700:	d8c11c17 	ldw	r3,1136(sp)
   43704:	da400404 	addi	r9,sp,16
   43708:	d8813217 	ldw	r2,1224(sp)
   4370c:	4cc00015 	stw	r19,0(r9)
   43710:	48800115 	stw	r2,4(r9)
   43714:	4091883a 	add	r8,r8,r2
   43718:	003c6206 	br	428a4 <___vfprintf_internal_r+0xba4>
   4371c:	00800b44 	movi	r2,45
   43720:	d8812585 	stb	r2,1174(sp)
   43724:	003b2406 	br	423b8 <___vfprintf_internal_r+0x6b8>
   43728:	4d000015 	stw	r20,0(r9)
   4372c:	4c800115 	stw	r18,4(r9)
   43730:	4491883a 	add	r8,r8,r18
   43734:	18c00044 	addi	r3,r3,1
   43738:	da011d15 	stw	r8,1140(sp)
   4373c:	d8c11c15 	stw	r3,1136(sp)
   43740:	008001c4 	movi	r2,7
   43744:	10ffe816 	blt	r2,r3,436e8 <___vfprintf_internal_r+0x19e8>
   43748:	4a400204 	addi	r9,r9,8
   4374c:	003fee06 	br	43708 <___vfprintf_internal_r+0x1a08>
   43750:	d8c12b15 	stw	r3,1196(sp)
   43754:	00800184 	movi	r2,6
   43758:	10c0062e 	bgeu	r2,r3,43774 <___vfprintf_internal_r+0x1a74>
   4375c:	d8812b15 	stw	r2,1196(sp)
   43760:	d8812815 	stw	r2,1184(sp)
   43764:	ddc12d15 	stw	r23,1204(sp)
   43768:	04c00174 	movhi	r19,5
   4376c:	9cf60404 	addi	r19,r19,-10224
   43770:	0039ca06 	br	41e9c <___vfprintf_internal_r+0x19c>
   43774:	d8812b17 	ldw	r2,1196(sp)
   43778:	d8812815 	stw	r2,1184(sp)
   4377c:	103ff90e 	bge	r2,zero,43764 <___vfprintf_internal_r+0x1a64>
   43780:	d8012815 	stw	zero,1184(sp)
   43784:	003ff706 	br	43764 <___vfprintf_internal_r+0x1a64>
   43788:	00800244 	movi	r2,9
   4378c:	15fdaa36 	bltu	r2,r23,42e38 <___vfprintf_internal_r+0x1138>
   43790:	dd010e04 	addi	r20,sp,1080
   43794:	003dc606 	br	42eb0 <___vfprintf_internal_r+0x11b0>
   43798:	d9412917 	ldw	r5,1188(sp)
   4379c:	8809883a 	mov	r4,r17
   437a0:	d9811b04 	addi	r6,sp,1132
   437a4:	0041ccc0 	call	41ccc <__sprint_r>
   437a8:	103a9b1e 	bne	r2,zero,42218 <___vfprintf_internal_r+0x518>
   437ac:	dc812417 	ldw	r18,1168(sp)
   437b0:	da400404 	addi	r9,sp,16
   437b4:	003ecd06 	br	432ec <___vfprintf_internal_r+0x15ec>
   437b8:	d9412917 	ldw	r5,1188(sp)
   437bc:	8809883a 	mov	r4,r17
   437c0:	d9811b04 	addi	r6,sp,1132
   437c4:	0041ccc0 	call	41ccc <__sprint_r>
   437c8:	103a931e 	bne	r2,zero,42218 <___vfprintf_internal_r+0x518>
   437cc:	dc812417 	ldw	r18,1168(sp)
   437d0:	da011d17 	ldw	r8,1140(sp)
   437d4:	d8c11c17 	ldw	r3,1136(sp)
   437d8:	da400404 	addi	r9,sp,16
   437dc:	003eb706 	br	432bc <___vfprintf_internal_r+0x15bc>
   437e0:	d9412917 	ldw	r5,1188(sp)
   437e4:	8809883a 	mov	r4,r17
   437e8:	d9811b04 	addi	r6,sp,1132
   437ec:	0041ccc0 	call	41ccc <__sprint_r>
   437f0:	103a891e 	bne	r2,zero,42218 <___vfprintf_internal_r+0x518>
   437f4:	dc812417 	ldw	r18,1168(sp)
   437f8:	da011d17 	ldw	r8,1140(sp)
   437fc:	da400404 	addi	r9,sp,16
   43800:	003dc206 	br	42f0c <___vfprintf_internal_r+0x120c>
   43804:	df012815 	stw	fp,1184(sp)
   43808:	d8812583 	ldbu	r2,1174(sp)
   4380c:	df012b15 	stw	fp,1196(sp)
   43810:	ddc12d15 	stw	r23,1204(sp)
   43814:	d8013115 	stw	zero,1220(sp)
   43818:	003ac606 	br	42334 <___vfprintf_internal_r+0x634>
   4381c:	d8812404 	addi	r2,sp,1168
   43820:	d8800115 	stw	r2,4(sp)
   43824:	d8812304 	addi	r2,sp,1164
   43828:	d8800215 	stw	r2,8(sp)
   4382c:	d8812204 	addi	r2,sp,1160
   43830:	df000015 	stw	fp,0(sp)
   43834:	d8800315 	stw	r2,12(sp)
   43838:	8809883a 	mov	r4,r17
   4383c:	b00b883a 	mov	r5,r22
   43840:	a00d883a 	mov	r6,r20
   43844:	01c000c4 	movi	r7,3
   43848:	da413c15 	stw	r9,1264(sp)
   4384c:	00440f00 	call	440f0 <_dtoa_r>
   43850:	da413c17 	ldw	r9,1264(sp)
   43854:	1027883a 	mov	r19,r2
   43858:	1707883a 	add	r3,r2,fp
   4385c:	e02f883a 	mov	r23,fp
   43860:	99000007 	ldb	r4,0(r19)
   43864:	00800c04 	movi	r2,48
   43868:	20800326 	beq	r4,r2,43878 <___vfprintf_internal_r+0x1b78>
   4386c:	da812417 	ldw	r10,1168(sp)
   43870:	1a87883a 	add	r3,r3,r10
   43874:	003f1406 	br	434c8 <___vfprintf_internal_r+0x17c8>
   43878:	b009883a 	mov	r4,r22
   4387c:	a00b883a 	mov	r5,r20
   43880:	000d883a 	mov	r6,zero
   43884:	000f883a 	mov	r7,zero
   43888:	d8c13b15 	stw	r3,1260(sp)
   4388c:	da413c15 	stw	r9,1264(sp)
   43890:	004a36c0 	call	4a36c <__nedf2>
   43894:	d8c13b17 	ldw	r3,1260(sp)
   43898:	da413c17 	ldw	r9,1264(sp)
   4389c:	103ff326 	beq	r2,zero,4386c <___vfprintf_internal_r+0x1b6c>
   438a0:	00800044 	movi	r2,1
   438a4:	15d5c83a 	sub	r10,r2,r23
   438a8:	da812415 	stw	r10,1168(sp)
   438ac:	1a87883a 	add	r3,r3,r10
   438b0:	003f0506 	br	434c8 <___vfprintf_internal_r+0x17c8>
   438b4:	d9412917 	ldw	r5,1188(sp)
   438b8:	8809883a 	mov	r4,r17
   438bc:	d9811b04 	addi	r6,sp,1132
   438c0:	0041ccc0 	call	41ccc <__sprint_r>
   438c4:	103a541e 	bne	r2,zero,42218 <___vfprintf_internal_r+0x518>
   438c8:	dc812417 	ldw	r18,1168(sp)
   438cc:	da011d17 	ldw	r8,1140(sp)
   438d0:	d8c11c17 	ldw	r3,1136(sp)
   438d4:	da400404 	addi	r9,sp,16
   438d8:	003eb206 	br	433a4 <___vfprintf_internal_r+0x16a4>
   438dc:	b82b883a 	mov	r21,r23
   438e0:	0007883a 	mov	r3,zero
   438e4:	00396306 	br	41e74 <___vfprintf_internal_r+0x174>
   438e8:	04c00174 	movhi	r19,5
   438ec:	9cf5f904 	addi	r19,r19,-10268
   438f0:	003f4e06 	br	4362c <___vfprintf_internal_r+0x192c>
   438f4:	d8812583 	ldbu	r2,1174(sp)
   438f8:	dc012a17 	ldw	r16,1192(sp)
   438fc:	d8013115 	stw	zero,1220(sp)
   43900:	003a8c06 	br	42334 <___vfprintf_internal_r+0x634>
   43904:	d8812417 	ldw	r2,1168(sp)
   43908:	d8812b15 	stw	r2,1196(sp)
   4390c:	1029883a 	mov	r20,r2
   43910:	00bfff44 	movi	r2,-3
   43914:	a0800116 	blt	r20,r2,4391c <___vfprintf_internal_r+0x1c1c>
   43918:	e5001d0e 	bge	fp,r20,43990 <___vfprintf_internal_r+0x1c90>
   4391c:	94bfff84 	addi	r18,r18,-2
   43920:	a53fffc4 	addi	r20,r20,-1
   43924:	dd012415 	stw	r20,1168(sp)
   43928:	dc811fc5 	stb	r18,1151(sp)
   4392c:	a0007216 	blt	r20,zero,43af8 <___vfprintf_internal_r+0x1df8>
   43930:	00800ac4 	movi	r2,43
   43934:	d8812005 	stb	r2,1152(sp)
   43938:	00800244 	movi	r2,9
   4393c:	15003516 	blt	r2,r20,43a14 <___vfprintf_internal_r+0x1d14>
   43940:	00800c04 	movi	r2,48
   43944:	a5000c04 	addi	r20,r20,48
   43948:	d8812045 	stb	r2,1153(sp)
   4394c:	dd012085 	stb	r20,1154(sp)
   43950:	d8c120c4 	addi	r3,sp,1155
   43954:	d8811fc4 	addi	r2,sp,1151
   43958:	1885c83a 	sub	r2,r3,r2
   4395c:	d8c13217 	ldw	r3,1224(sp)
   43960:	d8813515 	stw	r2,1236(sp)
   43964:	1885883a 	add	r2,r3,r2
   43968:	d8812b15 	stw	r2,1196(sp)
   4396c:	00800044 	movi	r2,1
   43970:	10c0580e 	bge	r2,r3,43ad4 <___vfprintf_internal_r+0x1dd4>
   43974:	d8812b17 	ldw	r2,1196(sp)
   43978:	10800044 	addi	r2,r2,1
   4397c:	d8812b15 	stw	r2,1196(sp)
   43980:	d8812815 	stw	r2,1184(sp)
   43984:	103ef50e 	bge	r2,zero,4355c <___vfprintf_internal_r+0x185c>
   43988:	d8012815 	stw	zero,1184(sp)
   4398c:	003ef306 	br	4355c <___vfprintf_internal_r+0x185c>
   43990:	d8812b17 	ldw	r2,1196(sp)
   43994:	d8c13217 	ldw	r3,1224(sp)
   43998:	10c01416 	blt	r2,r3,439ec <___vfprintf_internal_r+0x1cec>
   4399c:	8400004c 	andi	r16,r16,1
   439a0:	80000326 	beq	r16,zero,439b0 <___vfprintf_internal_r+0x1cb0>
   439a4:	d8812b17 	ldw	r2,1196(sp)
   439a8:	10800044 	addi	r2,r2,1
   439ac:	d8812b15 	stw	r2,1196(sp)
   439b0:	d8812815 	stw	r2,1184(sp)
   439b4:	10001416 	blt	r2,zero,43a08 <___vfprintf_internal_r+0x1d08>
   439b8:	048019c4 	movi	r18,103
   439bc:	003ee706 	br	4355c <___vfprintf_internal_r+0x185c>
   439c0:	d8012815 	stw	zero,1184(sp)
   439c4:	003b1a06 	br	42630 <___vfprintf_internal_r+0x930>
   439c8:	e03e9c1e 	bne	fp,zero,4343c <___vfprintf_internal_r+0x173c>
   439cc:	07000044 	movi	fp,1
   439d0:	003e9a06 	br	4343c <___vfprintf_internal_r+0x173c>
   439d4:	07000184 	movi	fp,6
   439d8:	003e9806 	br	4343c <___vfprintf_internal_r+0x173c>
   439dc:	00c00b44 	movi	r3,45
   439e0:	a520003c 	xorhi	r20,r20,32768
   439e4:	d8c12f05 	stb	r3,1212(sp)
   439e8:	003e9806 	br	4344c <___vfprintf_internal_r+0x174c>
   439ec:	05003f0e 	bge	zero,r20,43aec <___vfprintf_internal_r+0x1dec>
   439f0:	05000044 	movi	r20,1
   439f4:	d8c13217 	ldw	r3,1224(sp)
   439f8:	a0e9883a 	add	r20,r20,r3
   439fc:	dd012b15 	stw	r20,1196(sp)
   43a00:	dd012815 	stw	r20,1184(sp)
   43a04:	a03fec0e 	bge	r20,zero,439b8 <___vfprintf_internal_r+0x1cb8>
   43a08:	d8012815 	stw	zero,1184(sp)
   43a0c:	048019c4 	movi	r18,103
   43a10:	003ed206 	br	4355c <___vfprintf_internal_r+0x185c>
   43a14:	d8c11f84 	addi	r3,sp,1150
   43a18:	102f883a 	mov	r23,r2
   43a1c:	4839883a 	mov	fp,r9
   43a20:	a009883a 	mov	r4,r20
   43a24:	01400284 	movi	r5,10
   43a28:	182d883a 	mov	r22,r3
   43a2c:	004a7580 	call	4a758 <__modsi3>
   43a30:	10800c04 	addi	r2,r2,48
   43a34:	a009883a 	mov	r4,r20
   43a38:	b0800005 	stb	r2,0(r22)
   43a3c:	01400284 	movi	r5,10
   43a40:	004a7080 	call	4a708 <__divsi3>
   43a44:	1029883a 	mov	r20,r2
   43a48:	b0ffffc4 	addi	r3,r22,-1
   43a4c:	b8bff416 	blt	r23,r2,43a20 <___vfprintf_internal_r+0x1d20>
   43a50:	11400c04 	addi	r5,r2,48
   43a54:	b17fffc5 	stb	r5,-1(r22)
   43a58:	d8811fc4 	addi	r2,sp,1151
   43a5c:	e013883a 	mov	r9,fp
   43a60:	18803e2e 	bgeu	r3,r2,43b5c <___vfprintf_internal_r+0x1e5c>
   43a64:	b007883a 	mov	r3,r22
   43a68:	d9012044 	addi	r4,sp,1153
   43a6c:	00000206 	br	43a78 <___vfprintf_internal_r+0x1d78>
   43a70:	19400003 	ldbu	r5,0(r3)
   43a74:	18c00044 	addi	r3,r3,1
   43a78:	21400005 	stb	r5,0(r4)
   43a7c:	21000044 	addi	r4,r4,1
   43a80:	10fffb1e 	bne	r2,r3,43a70 <___vfprintf_internal_r+0x1d70>
   43a84:	d8c12004 	addi	r3,sp,1152
   43a88:	1d87c83a 	sub	r3,r3,r22
   43a8c:	d9012044 	addi	r4,sp,1153
   43a90:	20c7883a 	add	r3,r4,r3
   43a94:	003fb006 	br	43958 <___vfprintf_internal_r+0x1c58>
   43a98:	e5c00044 	addi	r23,fp,1
   43a9c:	003e7406 	br	43470 <___vfprintf_internal_r+0x1770>
   43aa0:	d8c12217 	ldw	r3,1160(sp)
   43aa4:	003e9906 	br	4350c <___vfprintf_internal_r+0x180c>
   43aa8:	d9012d17 	ldw	r4,1204(sp)
   43aac:	ac800043 	ldbu	r18,1(r21)
   43ab0:	b82b883a 	mov	r21,r23
   43ab4:	20c00017 	ldw	r3,0(r4)
   43ab8:	20800104 	addi	r2,r4,4
   43abc:	d8812d15 	stw	r2,1204(sp)
   43ac0:	18002116 	blt	r3,zero,43b48 <___vfprintf_internal_r+0x1e48>
   43ac4:	94803fcc 	andi	r18,r18,255
   43ac8:	9480201c 	xori	r18,r18,128
   43acc:	94bfe004 	addi	r18,r18,-128
   43ad0:	0038e706 	br	41e70 <___vfprintf_internal_r+0x170>
   43ad4:	80a0703a 	and	r16,r16,r2
   43ad8:	803fa61e 	bne	r16,zero,43974 <___vfprintf_internal_r+0x1c74>
   43adc:	d8812b17 	ldw	r2,1196(sp)
   43ae0:	d8812815 	stw	r2,1184(sp)
   43ae4:	103e9d0e 	bge	r2,zero,4355c <___vfprintf_internal_r+0x185c>
   43ae8:	003fa706 	br	43988 <___vfprintf_internal_r+0x1c88>
   43aec:	00800084 	movi	r2,2
   43af0:	1529c83a 	sub	r20,r2,r20
   43af4:	003fbf06 	br	439f4 <___vfprintf_internal_r+0x1cf4>
   43af8:	00800b44 	movi	r2,45
   43afc:	0529c83a 	sub	r20,zero,r20
   43b00:	d8812005 	stb	r2,1152(sp)
   43b04:	003f8c06 	br	43938 <___vfprintf_internal_r+0x1c38>
   43b08:	008011c4 	movi	r2,71
   43b0c:	90be6926 	beq	r18,r2,434b4 <___vfprintf_internal_r+0x17b4>
   43b10:	003e6a06 	br	434bc <___vfprintf_internal_r+0x17bc>
   43b14:	00bfffc4 	movi	r2,-1
   43b18:	d8812c15 	stw	r2,1200(sp)
   43b1c:	0039ad06 	br	421d4 <___vfprintf_internal_r+0x4d4>
   43b20:	1007883a 	mov	r3,r2
   43b24:	003e7906 	br	4350c <___vfprintf_internal_r+0x180c>
   43b28:	e000021e 	bne	fp,zero,43b34 <___vfprintf_internal_r+0x1e34>
   43b2c:	8400004c 	andi	r16,r16,1
   43b30:	80000e26 	beq	r16,zero,43b6c <___vfprintf_internal_r+0x1e6c>
   43b34:	e7000084 	addi	fp,fp,2
   43b38:	df012b15 	stw	fp,1196(sp)
   43b3c:	df012815 	stw	fp,1184(sp)
   43b40:	e03e860e 	bge	fp,zero,4355c <___vfprintf_internal_r+0x185c>
   43b44:	003f9006 	br	43988 <___vfprintf_internal_r+0x1c88>
   43b48:	94803fcc 	andi	r18,r18,255
   43b4c:	9480201c 	xori	r18,r18,128
   43b50:	00ffffc4 	movi	r3,-1
   43b54:	94bfe004 	addi	r18,r18,-128
   43b58:	0038c506 	br	41e70 <___vfprintf_internal_r+0x170>
   43b5c:	d8c12044 	addi	r3,sp,1153
   43b60:	003f7d06 	br	43958 <___vfprintf_internal_r+0x1c58>
   43b64:	dd012417 	ldw	r20,1168(sp)
   43b68:	003f6d06 	br	43920 <___vfprintf_internal_r+0x1c20>
   43b6c:	00c00044 	movi	r3,1
   43b70:	d8c12815 	stw	r3,1184(sp)
   43b74:	d8c12b15 	stw	r3,1196(sp)
   43b78:	003e7806 	br	4355c <___vfprintf_internal_r+0x185c>

00043b7c <__vfprintf_internal>:
   43b7c:	00800174 	movhi	r2,5
   43b80:	10bcff04 	addi	r2,r2,-3076
   43b84:	2007883a 	mov	r3,r4
   43b88:	11000017 	ldw	r4,0(r2)
   43b8c:	2805883a 	mov	r2,r5
   43b90:	300f883a 	mov	r7,r6
   43b94:	180b883a 	mov	r5,r3
   43b98:	100d883a 	mov	r6,r2
   43b9c:	0041d001 	jmpi	41d00 <___vfprintf_internal_r>

00043ba0 <__swsetup_r>:
   43ba0:	00800174 	movhi	r2,5
   43ba4:	10bcff04 	addi	r2,r2,-3076
   43ba8:	10800017 	ldw	r2,0(r2)
   43bac:	defffd04 	addi	sp,sp,-12
   43bb0:	dc400115 	stw	r17,4(sp)
   43bb4:	dc000015 	stw	r16,0(sp)
   43bb8:	dfc00215 	stw	ra,8(sp)
   43bbc:	2023883a 	mov	r17,r4
   43bc0:	2821883a 	mov	r16,r5
   43bc4:	10000226 	beq	r2,zero,43bd0 <__swsetup_r+0x30>
   43bc8:	10c00e17 	ldw	r3,56(r2)
   43bcc:	18003d26 	beq	r3,zero,43cc4 <__swsetup_r+0x124>
   43bd0:	8080030b 	ldhu	r2,12(r16)
   43bd4:	10c0020c 	andi	r3,r2,8
   43bd8:	18ffffcc 	andi	r3,r3,65535
   43bdc:	18e0001c 	xori	r3,r3,32768
   43be0:	18e00004 	addi	r3,r3,-32768
   43be4:	18001226 	beq	r3,zero,43c30 <__swsetup_r+0x90>
   43be8:	80c00417 	ldw	r3,16(r16)
   43bec:	18001f26 	beq	r3,zero,43c6c <__swsetup_r+0xcc>
   43bf0:	1100004c 	andi	r4,r2,1
   43bf4:	2000261e 	bne	r4,zero,43c90 <__swsetup_r+0xf0>
   43bf8:	1080008c 	andi	r2,r2,2
   43bfc:	10bfffcc 	andi	r2,r2,65535
   43c00:	10a0001c 	xori	r2,r2,32768
   43c04:	10a00004 	addi	r2,r2,-32768
   43c08:	1000311e 	bne	r2,zero,43cd0 <__swsetup_r+0x130>
   43c0c:	80800517 	ldw	r2,20(r16)
   43c10:	80800215 	stw	r2,8(r16)
   43c14:	18002326 	beq	r3,zero,43ca4 <__swsetup_r+0x104>
   43c18:	0005883a 	mov	r2,zero
   43c1c:	dfc00217 	ldw	ra,8(sp)
   43c20:	dc400117 	ldw	r17,4(sp)
   43c24:	dc000017 	ldw	r16,0(sp)
   43c28:	dec00304 	addi	sp,sp,12
   43c2c:	f800283a 	ret
   43c30:	10c0040c 	andi	r3,r2,16
   43c34:	18ffffcc 	andi	r3,r3,65535
   43c38:	18e0001c 	xori	r3,r3,32768
   43c3c:	18e00004 	addi	r3,r3,-32768
   43c40:	18001e26 	beq	r3,zero,43cbc <__swsetup_r+0x11c>
   43c44:	10c0010c 	andi	r3,r2,4
   43c48:	18ffffcc 	andi	r3,r3,65535
   43c4c:	18e0001c 	xori	r3,r3,32768
   43c50:	18e00004 	addi	r3,r3,-32768
   43c54:	1800211e 	bne	r3,zero,43cdc <__swsetup_r+0x13c>
   43c58:	80c00417 	ldw	r3,16(r16)
   43c5c:	11400214 	ori	r5,r2,8
   43c60:	8140030d 	sth	r5,12(r16)
   43c64:	2805883a 	mov	r2,r5
   43c68:	183fe11e 	bne	r3,zero,43bf0 <__swsetup_r+0x50>
   43c6c:	1140a00c 	andi	r5,r2,640
   43c70:	01008004 	movi	r4,512
   43c74:	293fde26 	beq	r5,r4,43bf0 <__swsetup_r+0x50>
   43c78:	8809883a 	mov	r4,r17
   43c7c:	800b883a 	mov	r5,r16
   43c80:	004673c0 	call	4673c <__smakebuf_r>
   43c84:	8080030b 	ldhu	r2,12(r16)
   43c88:	80c00417 	ldw	r3,16(r16)
   43c8c:	003fd806 	br	43bf0 <__swsetup_r+0x50>
   43c90:	80800517 	ldw	r2,20(r16)
   43c94:	80000215 	stw	zero,8(r16)
   43c98:	0085c83a 	sub	r2,zero,r2
   43c9c:	80800615 	stw	r2,24(r16)
   43ca0:	183fdd1e 	bne	r3,zero,43c18 <__swsetup_r+0x78>
   43ca4:	8080030b 	ldhu	r2,12(r16)
   43ca8:	1080200c 	andi	r2,r2,128
   43cac:	10bfffcc 	andi	r2,r2,65535
   43cb0:	10a0001c 	xori	r2,r2,32768
   43cb4:	10a00004 	addi	r2,r2,-32768
   43cb8:	103fd826 	beq	r2,zero,43c1c <__swsetup_r+0x7c>
   43cbc:	00bfffc4 	movi	r2,-1
   43cc0:	003fd606 	br	43c1c <__swsetup_r+0x7c>
   43cc4:	1009883a 	mov	r4,r2
   43cc8:	00459c80 	call	459c8 <__sinit>
   43ccc:	003fc006 	br	43bd0 <__swsetup_r+0x30>
   43cd0:	0005883a 	mov	r2,zero
   43cd4:	80800215 	stw	r2,8(r16)
   43cd8:	003fce06 	br	43c14 <__swsetup_r+0x74>
   43cdc:	81400c17 	ldw	r5,48(r16)
   43ce0:	28000626 	beq	r5,zero,43cfc <__swsetup_r+0x15c>
   43ce4:	80c01004 	addi	r3,r16,64
   43ce8:	28c00326 	beq	r5,r3,43cf8 <__swsetup_r+0x158>
   43cec:	8809883a 	mov	r4,r17
   43cf0:	0045d4c0 	call	45d4c <_free_r>
   43cf4:	8080030b 	ldhu	r2,12(r16)
   43cf8:	80000c15 	stw	zero,48(r16)
   43cfc:	80c00417 	ldw	r3,16(r16)
   43d00:	013ff6c4 	movi	r4,-37
   43d04:	2084703a 	and	r2,r4,r2
   43d08:	80000115 	stw	zero,4(r16)
   43d0c:	80c00015 	stw	r3,0(r16)
   43d10:	003fd206 	br	43c5c <__swsetup_r+0xbc>

00043d14 <__call_exitprocs>:
   43d14:	00800174 	movhi	r2,5
   43d18:	10bcfe04 	addi	r2,r2,-3080
   43d1c:	10800017 	ldw	r2,0(r2)
   43d20:	defff304 	addi	sp,sp,-52
   43d24:	df000b15 	stw	fp,44(sp)
   43d28:	d8800015 	stw	r2,0(sp)
   43d2c:	10805204 	addi	r2,r2,328
   43d30:	dd400815 	stw	r21,32(sp)
   43d34:	dfc00c15 	stw	ra,48(sp)
   43d38:	ddc00a15 	stw	r23,40(sp)
   43d3c:	dd800915 	stw	r22,36(sp)
   43d40:	dd000715 	stw	r20,28(sp)
   43d44:	dcc00615 	stw	r19,24(sp)
   43d48:	dc800515 	stw	r18,20(sp)
   43d4c:	dc400415 	stw	r17,16(sp)
   43d50:	dc000315 	stw	r16,12(sp)
   43d54:	d9000115 	stw	r4,4(sp)
   43d58:	2839883a 	mov	fp,r5
   43d5c:	d8800215 	stw	r2,8(sp)
   43d60:	057fffc4 	movi	r21,-1
   43d64:	d8800017 	ldw	r2,0(sp)
   43d68:	ddc00217 	ldw	r23,8(sp)
   43d6c:	14805217 	ldw	r18,328(r2)
   43d70:	90001726 	beq	r18,zero,43dd0 <__call_exitprocs+0xbc>
   43d74:	94400117 	ldw	r17,4(r18)
   43d78:	8c3fffc4 	addi	r16,r17,-1
   43d7c:	80001116 	blt	r16,zero,43dc4 <__call_exitprocs+0xb0>
   43d80:	8c400044 	addi	r17,r17,1
   43d84:	8427883a 	add	r19,r16,r16
   43d88:	8c63883a 	add	r17,r17,r17
   43d8c:	95802204 	addi	r22,r18,136
   43d90:	9ce7883a 	add	r19,r19,r19
   43d94:	8c63883a 	add	r17,r17,r17
   43d98:	b4e7883a 	add	r19,r22,r19
   43d9c:	9463883a 	add	r17,r18,r17
   43da0:	e0001726 	beq	fp,zero,43e00 <__call_exitprocs+0xec>
   43da4:	8c87c83a 	sub	r3,r17,r18
   43da8:	b0c7883a 	add	r3,r22,r3
   43dac:	18c01e17 	ldw	r3,120(r3)
   43db0:	1f001326 	beq	r3,fp,43e00 <__call_exitprocs+0xec>
   43db4:	843fffc4 	addi	r16,r16,-1
   43db8:	9cffff04 	addi	r19,r19,-4
   43dbc:	8c7fff04 	addi	r17,r17,-4
   43dc0:	857ff71e 	bne	r16,r21,43da0 <__call_exitprocs+0x8c>
   43dc4:	00800034 	movhi	r2,0
   43dc8:	10800004 	addi	r2,r2,0
   43dcc:	10002a1e 	bne	r2,zero,43e78 <__call_exitprocs+0x164>
   43dd0:	dfc00c17 	ldw	ra,48(sp)
   43dd4:	df000b17 	ldw	fp,44(sp)
   43dd8:	ddc00a17 	ldw	r23,40(sp)
   43ddc:	dd800917 	ldw	r22,36(sp)
   43de0:	dd400817 	ldw	r21,32(sp)
   43de4:	dd000717 	ldw	r20,28(sp)
   43de8:	dcc00617 	ldw	r19,24(sp)
   43dec:	dc800517 	ldw	r18,20(sp)
   43df0:	dc400417 	ldw	r17,16(sp)
   43df4:	dc000317 	ldw	r16,12(sp)
   43df8:	dec00d04 	addi	sp,sp,52
   43dfc:	f800283a 	ret
   43e00:	91000117 	ldw	r4,4(r18)
   43e04:	88c00017 	ldw	r3,0(r17)
   43e08:	213fffc4 	addi	r4,r4,-1
   43e0c:	24001526 	beq	r4,r16,43e64 <__call_exitprocs+0x150>
   43e10:	88000015 	stw	zero,0(r17)
   43e14:	183fe726 	beq	r3,zero,43db4 <__call_exitprocs+0xa0>
   43e18:	00800044 	movi	r2,1
   43e1c:	1408983a 	sll	r4,r2,r16
   43e20:	91406217 	ldw	r5,392(r18)
   43e24:	95000117 	ldw	r20,4(r18)
   43e28:	214a703a 	and	r5,r4,r5
   43e2c:	28000b26 	beq	r5,zero,43e5c <__call_exitprocs+0x148>
   43e30:	91406317 	ldw	r5,396(r18)
   43e34:	2148703a 	and	r4,r4,r5
   43e38:	20000c1e 	bne	r4,zero,43e6c <__call_exitprocs+0x158>
   43e3c:	99400017 	ldw	r5,0(r19)
   43e40:	d9000117 	ldw	r4,4(sp)
   43e44:	183ee83a 	callr	r3
   43e48:	90c00117 	ldw	r3,4(r18)
   43e4c:	1d3fc51e 	bne	r3,r20,43d64 <__call_exitprocs+0x50>
   43e50:	b8c00017 	ldw	r3,0(r23)
   43e54:	1cbfd726 	beq	r3,r18,43db4 <__call_exitprocs+0xa0>
   43e58:	003fc206 	br	43d64 <__call_exitprocs+0x50>
   43e5c:	183ee83a 	callr	r3
   43e60:	003ff906 	br	43e48 <__call_exitprocs+0x134>
   43e64:	94000115 	stw	r16,4(r18)
   43e68:	003fea06 	br	43e14 <__call_exitprocs+0x100>
   43e6c:	99000017 	ldw	r4,0(r19)
   43e70:	183ee83a 	callr	r3
   43e74:	003ff406 	br	43e48 <__call_exitprocs+0x134>
   43e78:	90c00117 	ldw	r3,4(r18)
   43e7c:	1800071e 	bne	r3,zero,43e9c <__call_exitprocs+0x188>
   43e80:	90c00017 	ldw	r3,0(r18)
   43e84:	18000926 	beq	r3,zero,43eac <__call_exitprocs+0x198>
   43e88:	9009883a 	mov	r4,r18
   43e8c:	b8c00015 	stw	r3,0(r23)
   43e90:	00000000 	call	0 <__alt_mem_onchip_mem-0x40000>
   43e94:	bc800017 	ldw	r18,0(r23)
   43e98:	003fb506 	br	43d70 <__call_exitprocs+0x5c>
   43e9c:	90c00017 	ldw	r3,0(r18)
   43ea0:	902f883a 	mov	r23,r18
   43ea4:	1825883a 	mov	r18,r3
   43ea8:	003fb106 	br	43d70 <__call_exitprocs+0x5c>
   43eac:	0007883a 	mov	r3,zero
   43eb0:	003ffb06 	br	43ea0 <__call_exitprocs+0x18c>

00043eb4 <quorem>:
   43eb4:	defff204 	addi	sp,sp,-56
   43eb8:	dd000815 	stw	r20,32(sp)
   43ebc:	20800417 	ldw	r2,16(r4)
   43ec0:	2d000417 	ldw	r20,16(r5)
   43ec4:	dcc00715 	stw	r19,28(sp)
   43ec8:	dfc00d15 	stw	ra,52(sp)
   43ecc:	df000c15 	stw	fp,48(sp)
   43ed0:	ddc00b15 	stw	r23,44(sp)
   43ed4:	dd800a15 	stw	r22,40(sp)
   43ed8:	dd400915 	stw	r21,36(sp)
   43edc:	dc800615 	stw	r18,24(sp)
   43ee0:	dc400515 	stw	r17,20(sp)
   43ee4:	dc000415 	stw	r16,16(sp)
   43ee8:	d9400015 	stw	r5,0(sp)
   43eec:	2027883a 	mov	r19,r4
   43ef0:	15007d16 	blt	r2,r20,440e8 <quorem+0x234>
   43ef4:	a0800104 	addi	r2,r20,4
   43ef8:	1085883a 	add	r2,r2,r2
   43efc:	1085883a 	add	r2,r2,r2
   43f00:	28ad883a 	add	r22,r5,r2
   43f04:	2085883a 	add	r2,r4,r2
   43f08:	10800017 	ldw	r2,0(r2)
   43f0c:	b1400017 	ldw	r5,0(r22)
   43f10:	a53fffc4 	addi	r20,r20,-1
   43f14:	1009883a 	mov	r4,r2
   43f18:	29400044 	addi	r5,r5,1
   43f1c:	d8800115 	stw	r2,4(sp)
   43f20:	004a7b40 	call	4a7b4 <__udivsi3>
   43f24:	1025883a 	mov	r18,r2
   43f28:	d8800017 	ldw	r2,0(sp)
   43f2c:	9f000504 	addi	fp,r19,20
   43f30:	14000504 	addi	r16,r2,20
   43f34:	90003626 	beq	r18,zero,44010 <quorem+0x15c>
   43f38:	802b883a 	mov	r21,r16
   43f3c:	e023883a 	mov	r17,fp
   43f40:	0007883a 	mov	r3,zero
   43f44:	002f883a 	mov	r23,zero
   43f48:	a9800017 	ldw	r6,0(r21)
   43f4c:	900b883a 	mov	r5,r18
   43f50:	d8c00315 	stw	r3,12(sp)
   43f54:	313fffcc 	andi	r4,r6,65535
   43f58:	d9800215 	stw	r6,8(sp)
   43f5c:	0041a580 	call	41a58 <__mulsi3>
   43f60:	d9800217 	ldw	r6,8(sp)
   43f64:	d8c00317 	ldw	r3,12(sp)
   43f68:	900b883a 	mov	r5,r18
   43f6c:	3008d43a 	srli	r4,r6,16
   43f70:	1887883a 	add	r3,r3,r2
   43f74:	d8c00315 	stw	r3,12(sp)
   43f78:	0041a580 	call	41a58 <__mulsi3>
   43f7c:	89400017 	ldw	r5,0(r17)
   43f80:	d8c00317 	ldw	r3,12(sp)
   43f84:	ad400104 	addi	r21,r21,4
   43f88:	293fffcc 	andi	r4,r5,65535
   43f8c:	1810d43a 	srli	r8,r3,16
   43f90:	25c9883a 	add	r4,r4,r23
   43f94:	18ffffcc 	andi	r3,r3,65535
   43f98:	20c9c83a 	sub	r4,r4,r3
   43f9c:	280cd43a 	srli	r6,r5,16
   43fa0:	4085883a 	add	r2,r8,r2
   43fa4:	2007d43a 	srai	r3,r4,16
   43fa8:	117fffcc 	andi	r5,r2,65535
   43fac:	314bc83a 	sub	r5,r6,r5
   43fb0:	28cb883a 	add	r5,r5,r3
   43fb4:	8940008d 	sth	r5,2(r17)
   43fb8:	8900000d 	sth	r4,0(r17)
   43fbc:	1006d43a 	srli	r3,r2,16
   43fc0:	282fd43a 	srai	r23,r5,16
   43fc4:	8c400104 	addi	r17,r17,4
   43fc8:	b57fdf2e 	bgeu	r22,r21,43f48 <quorem+0x94>
   43fcc:	d8c00117 	ldw	r3,4(sp)
   43fd0:	18000f1e 	bne	r3,zero,44010 <quorem+0x15c>
   43fd4:	a0800144 	addi	r2,r20,5
   43fd8:	1085883a 	add	r2,r2,r2
   43fdc:	1085883a 	add	r2,r2,r2
   43fe0:	9887883a 	add	r3,r19,r2
   43fe4:	18bfff04 	addi	r2,r3,-4
   43fe8:	e080082e 	bgeu	fp,r2,4400c <quorem+0x158>
   43fec:	18ffff17 	ldw	r3,-4(r3)
   43ff0:	18000326 	beq	r3,zero,44000 <quorem+0x14c>
   43ff4:	00000506 	br	4400c <quorem+0x158>
   43ff8:	10c00017 	ldw	r3,0(r2)
   43ffc:	1800031e 	bne	r3,zero,4400c <quorem+0x158>
   44000:	10bfff04 	addi	r2,r2,-4
   44004:	a53fffc4 	addi	r20,r20,-1
   44008:	e0bffb36 	bltu	fp,r2,43ff8 <quorem+0x144>
   4400c:	9d000415 	stw	r20,16(r19)
   44010:	d9400017 	ldw	r5,0(sp)
   44014:	9809883a 	mov	r4,r19
   44018:	0047e540 	call	47e54 <__mcmp>
   4401c:	10002516 	blt	r2,zero,440b4 <quorem+0x200>
   44020:	94800044 	addi	r18,r18,1
   44024:	e007883a 	mov	r3,fp
   44028:	000d883a 	mov	r6,zero
   4402c:	18800017 	ldw	r2,0(r3)
   44030:	82000017 	ldw	r8,0(r16)
   44034:	84000104 	addi	r16,r16,4
   44038:	11ffffcc 	andi	r7,r2,65535
   4403c:	413fffcc 	andi	r4,r8,65535
   44040:	398d883a 	add	r6,r7,r6
   44044:	310fc83a 	sub	r7,r6,r4
   44048:	4010d43a 	srli	r8,r8,16
   4404c:	100cd43a 	srli	r6,r2,16
   44050:	3809d43a 	srai	r4,r7,16
   44054:	19c0000d 	sth	r7,0(r3)
   44058:	320dc83a 	sub	r6,r6,r8
   4405c:	310d883a 	add	r6,r6,r4
   44060:	1980008d 	sth	r6,2(r3)
   44064:	300dd43a 	srai	r6,r6,16
   44068:	18c00104 	addi	r3,r3,4
   4406c:	b43fef2e 	bgeu	r22,r16,4402c <quorem+0x178>
   44070:	a0800144 	addi	r2,r20,5
   44074:	1085883a 	add	r2,r2,r2
   44078:	1085883a 	add	r2,r2,r2
   4407c:	9885883a 	add	r2,r19,r2
   44080:	10c00017 	ldw	r3,0(r2)
   44084:	18000b1e 	bne	r3,zero,440b4 <quorem+0x200>
   44088:	10ffff04 	addi	r3,r2,-4
   4408c:	e0c0082e 	bgeu	fp,r3,440b0 <quorem+0x1fc>
   44090:	10bfff17 	ldw	r2,-4(r2)
   44094:	10000326 	beq	r2,zero,440a4 <quorem+0x1f0>
   44098:	00000506 	br	440b0 <quorem+0x1fc>
   4409c:	18800017 	ldw	r2,0(r3)
   440a0:	1000031e 	bne	r2,zero,440b0 <quorem+0x1fc>
   440a4:	18ffff04 	addi	r3,r3,-4
   440a8:	a53fffc4 	addi	r20,r20,-1
   440ac:	e0fffb36 	bltu	fp,r3,4409c <quorem+0x1e8>
   440b0:	9d000415 	stw	r20,16(r19)
   440b4:	9005883a 	mov	r2,r18
   440b8:	dfc00d17 	ldw	ra,52(sp)
   440bc:	df000c17 	ldw	fp,48(sp)
   440c0:	ddc00b17 	ldw	r23,44(sp)
   440c4:	dd800a17 	ldw	r22,40(sp)
   440c8:	dd400917 	ldw	r21,36(sp)
   440cc:	dd000817 	ldw	r20,32(sp)
   440d0:	dcc00717 	ldw	r19,28(sp)
   440d4:	dc800617 	ldw	r18,24(sp)
   440d8:	dc400517 	ldw	r17,20(sp)
   440dc:	dc000417 	ldw	r16,16(sp)
   440e0:	dec00e04 	addi	sp,sp,56
   440e4:	f800283a 	ret
   440e8:	0005883a 	mov	r2,zero
   440ec:	003ff206 	br	440b8 <quorem+0x204>

000440f0 <_dtoa_r>:
   440f0:	20801017 	ldw	r2,64(r4)
   440f4:	deffdf04 	addi	sp,sp,-132
   440f8:	dcc01a15 	stw	r19,104(sp)
   440fc:	dc801915 	stw	r18,100(sp)
   44100:	dc401815 	stw	r17,96(sp)
   44104:	dc001715 	stw	r16,92(sp)
   44108:	dfc02015 	stw	ra,128(sp)
   4410c:	df001f15 	stw	fp,124(sp)
   44110:	ddc01e15 	stw	r23,120(sp)
   44114:	dd801d15 	stw	r22,116(sp)
   44118:	dd401c15 	stw	r21,112(sp)
   4411c:	dd001b15 	stw	r20,108(sp)
   44120:	d9400315 	stw	r5,12(sp)
   44124:	d9c00415 	stw	r7,16(sp)
   44128:	2021883a 	mov	r16,r4
   4412c:	3025883a 	mov	r18,r6
   44130:	dcc02317 	ldw	r19,140(sp)
   44134:	3023883a 	mov	r17,r6
   44138:	10000826 	beq	r2,zero,4415c <_dtoa_r+0x6c>
   4413c:	20c01117 	ldw	r3,68(r4)
   44140:	01800044 	movi	r6,1
   44144:	100b883a 	mov	r5,r2
   44148:	30cc983a 	sll	r6,r6,r3
   4414c:	10c00115 	stw	r3,4(r2)
   44150:	11800215 	stw	r6,8(r2)
   44154:	00475b00 	call	475b0 <_Bfree>
   44158:	80001015 	stw	zero,64(r16)
   4415c:	90002f16 	blt	r18,zero,4421c <_dtoa_r+0x12c>
   44160:	98000015 	stw	zero,0(r19)
   44164:	90dffc2c 	andhi	r3,r18,32752
   44168:	009ffc34 	movhi	r2,32752
   4416c:	18801c26 	beq	r3,r2,441e0 <_dtoa_r+0xf0>
   44170:	d9000317 	ldw	r4,12(sp)
   44174:	880b883a 	mov	r5,r17
   44178:	000d883a 	mov	r6,zero
   4417c:	000f883a 	mov	r7,zero
   44180:	004a3100 	call	4a310 <__eqdf2>
   44184:	10002c1e 	bne	r2,zero,44238 <_dtoa_r+0x148>
   44188:	d9002217 	ldw	r4,136(sp)
   4418c:	d9c02417 	ldw	r7,144(sp)
   44190:	00800044 	movi	r2,1
   44194:	20800015 	stw	r2,0(r4)
   44198:	38019426 	beq	r7,zero,447ec <_dtoa_r+0x6fc>
   4419c:	00800174 	movhi	r2,5
   441a0:	10b60644 	addi	r2,r2,-10215
   441a4:	38800015 	stw	r2,0(r7)
   441a8:	15ffffc4 	addi	r23,r2,-1
   441ac:	b805883a 	mov	r2,r23
   441b0:	dfc02017 	ldw	ra,128(sp)
   441b4:	df001f17 	ldw	fp,124(sp)
   441b8:	ddc01e17 	ldw	r23,120(sp)
   441bc:	dd801d17 	ldw	r22,116(sp)
   441c0:	dd401c17 	ldw	r21,112(sp)
   441c4:	dd001b17 	ldw	r20,108(sp)
   441c8:	dcc01a17 	ldw	r19,104(sp)
   441cc:	dc801917 	ldw	r18,100(sp)
   441d0:	dc401817 	ldw	r17,96(sp)
   441d4:	dc001717 	ldw	r16,92(sp)
   441d8:	dec02104 	addi	sp,sp,132
   441dc:	f800283a 	ret
   441e0:	d8c02217 	ldw	r3,136(sp)
   441e4:	d9000317 	ldw	r4,12(sp)
   441e8:	0089c3c4 	movi	r2,9999
   441ec:	18800015 	stw	r2,0(r3)
   441f0:	20016c26 	beq	r4,zero,447a4 <_dtoa_r+0x6b4>
   441f4:	05c00174 	movhi	r23,5
   441f8:	bdf61204 	addi	r23,r23,-10168
   441fc:	d9c02417 	ldw	r7,144(sp)
   44200:	383fea26 	beq	r7,zero,441ac <_dtoa_r+0xbc>
   44204:	b88000c7 	ldb	r2,3(r23)
   44208:	10016d1e 	bne	r2,zero,447c0 <_dtoa_r+0x6d0>
   4420c:	b88000c4 	addi	r2,r23,3
   44210:	d8c02417 	ldw	r3,144(sp)
   44214:	18800015 	stw	r2,0(r3)
   44218:	003fe406 	br	441ac <_dtoa_r+0xbc>
   4421c:	04600034 	movhi	r17,32768
   44220:	8c7fffc4 	addi	r17,r17,-1
   44224:	9462703a 	and	r17,r18,r17
   44228:	00800044 	movi	r2,1
   4422c:	98800015 	stw	r2,0(r19)
   44230:	8825883a 	mov	r18,r17
   44234:	003fcb06 	br	44164 <_dtoa_r+0x74>
   44238:	d9400317 	ldw	r5,12(sp)
   4423c:	9028d53a 	srli	r20,r18,20
   44240:	d8800204 	addi	r2,sp,8
   44244:	d8800015 	stw	r2,0(sp)
   44248:	8009883a 	mov	r4,r16
   4424c:	880d883a 	mov	r6,r17
   44250:	d9c00104 	addi	r7,sp,4
   44254:	00481fc0 	call	481fc <__d2b>
   44258:	a501ffcc 	andi	r20,r20,2047
   4425c:	1039883a 	mov	fp,r2
   44260:	a001591e 	bne	r20,zero,447c8 <_dtoa_r+0x6d8>
   44264:	dd400217 	ldw	r21,8(sp)
   44268:	dd000117 	ldw	r20,4(sp)
   4426c:	00befbc4 	movi	r2,-1041
   44270:	ad29883a 	add	r20,r21,r20
   44274:	a082d216 	blt	r20,r2,44dc0 <_dtoa_r+0xcd0>
   44278:	d8c00317 	ldw	r3,12(sp)
   4427c:	013f0384 	movi	r4,-1010
   44280:	2509c83a 	sub	r4,r4,r20
   44284:	a0810484 	addi	r2,r20,1042
   44288:	9124983a 	sll	r18,r18,r4
   4428c:	1884d83a 	srl	r2,r3,r2
   44290:	9088b03a 	or	r4,r18,r2
   44294:	00414580 	call	41458 <__floatunsidf>
   44298:	1009883a 	mov	r4,r2
   4429c:	017f8434 	movhi	r5,65040
   442a0:	00800044 	movi	r2,1
   442a4:	194b883a 	add	r5,r3,r5
   442a8:	a53fffc4 	addi	r20,r20,-1
   442ac:	d8800f15 	stw	r2,60(sp)
   442b0:	000d883a 	mov	r6,zero
   442b4:	01cffe34 	movhi	r7,16376
   442b8:	004a2b00 	call	4a2b0 <__subdf3>
   442bc:	1009883a 	mov	r4,r2
   442c0:	180b883a 	mov	r5,r3
   442c4:	0198dbf4 	movhi	r6,25455
   442c8:	3190d844 	addi	r6,r6,17249
   442cc:	01cff4f4 	movhi	r7,16339
   442d0:	39e1e9c4 	addi	r7,r7,-30809
   442d4:	0040fc00 	call	40fc0 <__muldf3>
   442d8:	180b883a 	mov	r5,r3
   442dc:	01a2d874 	movhi	r6,35681
   442e0:	31b22cc4 	addi	r6,r6,-14157
   442e4:	01cff1f4 	movhi	r7,16327
   442e8:	39e28a04 	addi	r7,r7,-30168
   442ec:	1009883a 	mov	r4,r2
   442f0:	004a25c0 	call	4a25c <__adddf3>
   442f4:	a009883a 	mov	r4,r20
   442f8:	1027883a 	mov	r19,r2
   442fc:	1825883a 	mov	r18,r3
   44300:	004a4ec0 	call	4a4ec <__floatsidf>
   44304:	1009883a 	mov	r4,r2
   44308:	180b883a 	mov	r5,r3
   4430c:	019427f4 	movhi	r6,20639
   44310:	319e7ec4 	addi	r6,r6,31227
   44314:	01cff4f4 	movhi	r7,16339
   44318:	39d104c4 	addi	r7,r7,17427
   4431c:	0040fc00 	call	40fc0 <__muldf3>
   44320:	9809883a 	mov	r4,r19
   44324:	900b883a 	mov	r5,r18
   44328:	100d883a 	mov	r6,r2
   4432c:	180f883a 	mov	r7,r3
   44330:	004a25c0 	call	4a25c <__adddf3>
   44334:	1009883a 	mov	r4,r2
   44338:	180b883a 	mov	r5,r3
   4433c:	1027883a 	mov	r19,r2
   44340:	1825883a 	mov	r18,r3
   44344:	004a5c00 	call	4a5c0 <__fixdfsi>
   44348:	9809883a 	mov	r4,r19
   4434c:	900b883a 	mov	r5,r18
   44350:	000d883a 	mov	r6,zero
   44354:	000f883a 	mov	r7,zero
   44358:	d8800615 	stw	r2,24(sp)
   4435c:	004a4900 	call	4a490 <__ltdf2>
   44360:	10027e16 	blt	r2,zero,44d5c <_dtoa_r+0xc6c>
   44364:	d8c00617 	ldw	r3,24(sp)
   44368:	00800584 	movi	r2,22
   4436c:	10c26c36 	bltu	r2,r3,44d20 <_dtoa_r+0xc30>
   44370:	180490fa 	slli	r2,r3,3
   44374:	00c00174 	movhi	r3,5
   44378:	18f63704 	addi	r3,r3,-10020
   4437c:	d9800317 	ldw	r6,12(sp)
   44380:	1885883a 	add	r2,r3,r2
   44384:	11000017 	ldw	r4,0(r2)
   44388:	11400117 	ldw	r5,4(r2)
   4438c:	880f883a 	mov	r7,r17
   44390:	004a3c80 	call	4a3c8 <__gtdf2>
   44394:	00828f0e 	bge	zero,r2,44dd4 <_dtoa_r+0xce4>
   44398:	d8800617 	ldw	r2,24(sp)
   4439c:	d8000d15 	stw	zero,52(sp)
   443a0:	10bfffc4 	addi	r2,r2,-1
   443a4:	d8800615 	stw	r2,24(sp)
   443a8:	ad29c83a 	sub	r20,r21,r20
   443ac:	a53fffc4 	addi	r20,r20,-1
   443b0:	a0026616 	blt	r20,zero,44d4c <_dtoa_r+0xc5c>
   443b4:	dd000715 	stw	r20,28(sp)
   443b8:	d8000815 	stw	zero,32(sp)
   443bc:	d8800617 	ldw	r2,24(sp)
   443c0:	10025a16 	blt	r2,zero,44d2c <_dtoa_r+0xc3c>
   443c4:	d8c00717 	ldw	r3,28(sp)
   443c8:	d8800b15 	stw	r2,44(sp)
   443cc:	d8000a15 	stw	zero,40(sp)
   443d0:	1887883a 	add	r3,r3,r2
   443d4:	d8c00715 	stw	r3,28(sp)
   443d8:	d9c00417 	ldw	r7,16(sp)
   443dc:	00800244 	movi	r2,9
   443e0:	11c10536 	bltu	r2,r7,447f8 <_dtoa_r+0x708>
   443e4:	00800144 	movi	r2,5
   443e8:	11c4c60e 	bge	r2,r7,45704 <_dtoa_r+0x1614>
   443ec:	39ffff04 	addi	r7,r7,-4
   443f0:	d9c00415 	stw	r7,16(sp)
   443f4:	0027883a 	mov	r19,zero
   443f8:	d9c00417 	ldw	r7,16(sp)
   443fc:	008000c4 	movi	r2,3
   44400:	3883a226 	beq	r7,r2,4528c <_dtoa_r+0x119c>
   44404:	11c2bc16 	blt	r2,r7,44ef8 <_dtoa_r+0xe08>
   44408:	00800084 	movi	r2,2
   4440c:	3880fb1e 	bne	r7,r2,447fc <_dtoa_r+0x70c>
   44410:	d8000c15 	stw	zero,48(sp)
   44414:	d9002117 	ldw	r4,132(sp)
   44418:	0103ae0e 	bge	zero,r4,452d4 <_dtoa_r+0x11e4>
   4441c:	2025883a 	mov	r18,r4
   44420:	d9000e15 	stw	r4,56(sp)
   44424:	d9000915 	stw	r4,36(sp)
   44428:	80001115 	stw	zero,68(r16)
   4442c:	008005c4 	movi	r2,23
   44430:	1484b22e 	bgeu	r2,r18,456fc <_dtoa_r+0x160c>
   44434:	00c00044 	movi	r3,1
   44438:	00800104 	movi	r2,4
   4443c:	1085883a 	add	r2,r2,r2
   44440:	11000504 	addi	r4,r2,20
   44444:	180b883a 	mov	r5,r3
   44448:	18c00044 	addi	r3,r3,1
   4444c:	913ffb2e 	bgeu	r18,r4,4443c <_dtoa_r+0x34c>
   44450:	81401115 	stw	r5,68(r16)
   44454:	8009883a 	mov	r4,r16
   44458:	00475080 	call	47508 <_Balloc>
   4445c:	102f883a 	mov	r23,r2
   44460:	80801015 	stw	r2,64(r16)
   44464:	00800384 	movi	r2,14
   44468:	1480f036 	bltu	r2,r18,4482c <_dtoa_r+0x73c>
   4446c:	9800ef26 	beq	r19,zero,4482c <_dtoa_r+0x73c>
   44470:	d8800617 	ldw	r2,24(sp)
   44474:	00839c0e 	bge	zero,r2,452e8 <_dtoa_r+0x11f8>
   44478:	d8c00617 	ldw	r3,24(sp)
   4447c:	108003cc 	andi	r2,r2,15
   44480:	100490fa 	slli	r2,r2,3
   44484:	182bd13a 	srai	r21,r3,4
   44488:	00c00174 	movhi	r3,5
   4448c:	18f63704 	addi	r3,r3,-10020
   44490:	1885883a 	add	r2,r3,r2
   44494:	a8c0040c 	andi	r3,r21,16
   44498:	12800017 	ldw	r10,0(r2)
   4449c:	15800117 	ldw	r22,4(r2)
   444a0:	18038726 	beq	r3,zero,452c0 <_dtoa_r+0x11d0>
   444a4:	00800174 	movhi	r2,5
   444a8:	10b62d04 	addi	r2,r2,-10060
   444ac:	11800817 	ldw	r6,32(r2)
   444b0:	11c00917 	ldw	r7,36(r2)
   444b4:	d9000317 	ldw	r4,12(sp)
   444b8:	880b883a 	mov	r5,r17
   444bc:	da801515 	stw	r10,84(sp)
   444c0:	00412a40 	call	412a4 <__divdf3>
   444c4:	da801517 	ldw	r10,84(sp)
   444c8:	d8801015 	stw	r2,64(sp)
   444cc:	1829883a 	mov	r20,r3
   444d0:	ad4003cc 	andi	r21,r21,15
   444d4:	048000c4 	movi	r18,3
   444d8:	a8001126 	beq	r21,zero,44520 <_dtoa_r+0x430>
   444dc:	04c00174 	movhi	r19,5
   444e0:	9cf62d04 	addi	r19,r19,-10060
   444e4:	5005883a 	mov	r2,r10
   444e8:	b007883a 	mov	r3,r22
   444ec:	a980004c 	andi	r6,r21,1
   444f0:	1009883a 	mov	r4,r2
   444f4:	a82bd07a 	srai	r21,r21,1
   444f8:	180b883a 	mov	r5,r3
   444fc:	30000426 	beq	r6,zero,44510 <_dtoa_r+0x420>
   44500:	99800017 	ldw	r6,0(r19)
   44504:	99c00117 	ldw	r7,4(r19)
   44508:	94800044 	addi	r18,r18,1
   4450c:	0040fc00 	call	40fc0 <__muldf3>
   44510:	9cc00204 	addi	r19,r19,8
   44514:	a83ff51e 	bne	r21,zero,444ec <_dtoa_r+0x3fc>
   44518:	1015883a 	mov	r10,r2
   4451c:	182d883a 	mov	r22,r3
   44520:	d9001017 	ldw	r4,64(sp)
   44524:	a00b883a 	mov	r5,r20
   44528:	500d883a 	mov	r6,r10
   4452c:	b00f883a 	mov	r7,r22
   44530:	00412a40 	call	412a4 <__divdf3>
   44534:	1027883a 	mov	r19,r2
   44538:	1829883a 	mov	r20,r3
   4453c:	d8c00d17 	ldw	r3,52(sp)
   44540:	18000626 	beq	r3,zero,4455c <_dtoa_r+0x46c>
   44544:	9809883a 	mov	r4,r19
   44548:	a00b883a 	mov	r5,r20
   4454c:	000d883a 	mov	r6,zero
   44550:	01cffc34 	movhi	r7,16368
   44554:	004a4900 	call	4a490 <__ltdf2>
   44558:	10040e16 	blt	r2,zero,45594 <_dtoa_r+0x14a4>
   4455c:	9009883a 	mov	r4,r18
   44560:	004a4ec0 	call	4a4ec <__floatsidf>
   44564:	1009883a 	mov	r4,r2
   44568:	180b883a 	mov	r5,r3
   4456c:	980d883a 	mov	r6,r19
   44570:	a00f883a 	mov	r7,r20
   44574:	0040fc00 	call	40fc0 <__muldf3>
   44578:	1009883a 	mov	r4,r2
   4457c:	180b883a 	mov	r5,r3
   44580:	000d883a 	mov	r6,zero
   44584:	01d00734 	movhi	r7,16412
   44588:	004a25c0 	call	4a25c <__adddf3>
   4458c:	057f3034 	movhi	r21,64704
   44590:	1d6b883a 	add	r21,r3,r21
   44594:	d8c00917 	ldw	r3,36(sp)
   44598:	1025883a 	mov	r18,r2
   4459c:	18031f26 	beq	r3,zero,4521c <_dtoa_r+0x112c>
   445a0:	d8800617 	ldw	r2,24(sp)
   445a4:	dac00917 	ldw	r11,36(sp)
   445a8:	d8801315 	stw	r2,76(sp)
   445ac:	d8c00c17 	ldw	r3,48(sp)
   445b0:	18039026 	beq	r3,zero,453f4 <_dtoa_r+0x1304>
   445b4:	58bfffc4 	addi	r2,r11,-1
   445b8:	100490fa 	slli	r2,r2,3
   445bc:	00c00174 	movhi	r3,5
   445c0:	18f63704 	addi	r3,r3,-10020
   445c4:	0009883a 	mov	r4,zero
   445c8:	1885883a 	add	r2,r3,r2
   445cc:	11800017 	ldw	r6,0(r2)
   445d0:	11c00117 	ldw	r7,4(r2)
   445d4:	014ff834 	movhi	r5,16352
   445d8:	dac01615 	stw	r11,88(sp)
   445dc:	00412a40 	call	412a4 <__divdf3>
   445e0:	900d883a 	mov	r6,r18
   445e4:	a80f883a 	mov	r7,r21
   445e8:	1009883a 	mov	r4,r2
   445ec:	180b883a 	mov	r5,r3
   445f0:	004a2b00 	call	4a2b0 <__subdf3>
   445f4:	a00b883a 	mov	r5,r20
   445f8:	9809883a 	mov	r4,r19
   445fc:	182b883a 	mov	r21,r3
   44600:	d8801015 	stw	r2,64(sp)
   44604:	004a5c00 	call	4a5c0 <__fixdfsi>
   44608:	1009883a 	mov	r4,r2
   4460c:	d8801515 	stw	r2,84(sp)
   44610:	004a4ec0 	call	4a4ec <__floatsidf>
   44614:	9809883a 	mov	r4,r19
   44618:	a00b883a 	mov	r5,r20
   4461c:	100d883a 	mov	r6,r2
   44620:	180f883a 	mov	r7,r3
   44624:	004a2b00 	call	4a2b0 <__subdf3>
   44628:	da401517 	ldw	r9,84(sp)
   4462c:	d9001017 	ldw	r4,64(sp)
   44630:	a80b883a 	mov	r5,r21
   44634:	4d000c04 	addi	r20,r9,48
   44638:	bd000005 	stb	r20,0(r23)
   4463c:	100d883a 	mov	r6,r2
   44640:	180f883a 	mov	r7,r3
   44644:	bd800044 	addi	r22,r23,1
   44648:	1025883a 	mov	r18,r2
   4464c:	1827883a 	mov	r19,r3
   44650:	004a3c80 	call	4a3c8 <__gtdf2>
   44654:	00842216 	blt	zero,r2,456e0 <_dtoa_r+0x15f0>
   44658:	0009883a 	mov	r4,zero
   4465c:	014ffc34 	movhi	r5,16368
   44660:	900d883a 	mov	r6,r18
   44664:	980f883a 	mov	r7,r19
   44668:	004a2b00 	call	4a2b0 <__subdf3>
   4466c:	d9001017 	ldw	r4,64(sp)
   44670:	a80b883a 	mov	r5,r21
   44674:	100d883a 	mov	r6,r2
   44678:	180f883a 	mov	r7,r3
   4467c:	004a3c80 	call	4a3c8 <__gtdf2>
   44680:	dac01617 	ldw	r11,88(sp)
   44684:	00841316 	blt	zero,r2,456d4 <_dtoa_r+0x15e4>
   44688:	00800044 	movi	r2,1
   4468c:	12c0670e 	bge	r2,r11,4482c <_dtoa_r+0x73c>
   44690:	bad7883a 	add	r11,r23,r11
   44694:	df001115 	stw	fp,68(sp)
   44698:	dc401215 	stw	r17,72(sp)
   4469c:	5839883a 	mov	fp,r11
   446a0:	dc401017 	ldw	r17,64(sp)
   446a4:	00000806 	br	446c8 <_dtoa_r+0x5d8>
   446a8:	004a2b00 	call	4a2b0 <__subdf3>
   446ac:	1009883a 	mov	r4,r2
   446b0:	180b883a 	mov	r5,r3
   446b4:	880d883a 	mov	r6,r17
   446b8:	a80f883a 	mov	r7,r21
   446bc:	004a4900 	call	4a490 <__ltdf2>
   446c0:	1003ee16 	blt	r2,zero,4567c <_dtoa_r+0x158c>
   446c4:	b703f126 	beq	r22,fp,4568c <_dtoa_r+0x159c>
   446c8:	8809883a 	mov	r4,r17
   446cc:	a80b883a 	mov	r5,r21
   446d0:	000d883a 	mov	r6,zero
   446d4:	01d00934 	movhi	r7,16420
   446d8:	0040fc00 	call	40fc0 <__muldf3>
   446dc:	000d883a 	mov	r6,zero
   446e0:	01d00934 	movhi	r7,16420
   446e4:	9009883a 	mov	r4,r18
   446e8:	980b883a 	mov	r5,r19
   446ec:	1023883a 	mov	r17,r2
   446f0:	182b883a 	mov	r21,r3
   446f4:	0040fc00 	call	40fc0 <__muldf3>
   446f8:	180b883a 	mov	r5,r3
   446fc:	1009883a 	mov	r4,r2
   44700:	1825883a 	mov	r18,r3
   44704:	1027883a 	mov	r19,r2
   44708:	004a5c00 	call	4a5c0 <__fixdfsi>
   4470c:	1009883a 	mov	r4,r2
   44710:	1029883a 	mov	r20,r2
   44714:	004a4ec0 	call	4a4ec <__floatsidf>
   44718:	9809883a 	mov	r4,r19
   4471c:	900b883a 	mov	r5,r18
   44720:	100d883a 	mov	r6,r2
   44724:	180f883a 	mov	r7,r3
   44728:	004a2b00 	call	4a2b0 <__subdf3>
   4472c:	a5000c04 	addi	r20,r20,48
   44730:	b5000005 	stb	r20,0(r22)
   44734:	1009883a 	mov	r4,r2
   44738:	180b883a 	mov	r5,r3
   4473c:	880d883a 	mov	r6,r17
   44740:	a80f883a 	mov	r7,r21
   44744:	1025883a 	mov	r18,r2
   44748:	1827883a 	mov	r19,r3
   4474c:	004a4900 	call	4a490 <__ltdf2>
   44750:	b5800044 	addi	r22,r22,1
   44754:	0009883a 	mov	r4,zero
   44758:	014ffc34 	movhi	r5,16368
   4475c:	900d883a 	mov	r6,r18
   44760:	980f883a 	mov	r7,r19
   44764:	103fd00e 	bge	r2,zero,446a8 <_dtoa_r+0x5b8>
   44768:	d9001317 	ldw	r4,76(sp)
   4476c:	df001117 	ldw	fp,68(sp)
   44770:	d9000615 	stw	r4,24(sp)
   44774:	8009883a 	mov	r4,r16
   44778:	e00b883a 	mov	r5,fp
   4477c:	00475b00 	call	475b0 <_Bfree>
   44780:	d9c00617 	ldw	r7,24(sp)
   44784:	d8c02217 	ldw	r3,136(sp)
   44788:	d9002417 	ldw	r4,144(sp)
   4478c:	b0000005 	stb	zero,0(r22)
   44790:	38800044 	addi	r2,r7,1
   44794:	18800015 	stw	r2,0(r3)
   44798:	203e8426 	beq	r4,zero,441ac <_dtoa_r+0xbc>
   4479c:	25800015 	stw	r22,0(r4)
   447a0:	003e8206 	br	441ac <_dtoa_r+0xbc>
   447a4:	00800434 	movhi	r2,16
   447a8:	10bfffc4 	addi	r2,r2,-1
   447ac:	90a4703a 	and	r18,r18,r2
   447b0:	903e901e 	bne	r18,zero,441f4 <_dtoa_r+0x104>
   447b4:	05c00174 	movhi	r23,5
   447b8:	bdf60f04 	addi	r23,r23,-10180
   447bc:	003e8f06 	br	441fc <_dtoa_r+0x10c>
   447c0:	b8800204 	addi	r2,r23,8
   447c4:	003e9206 	br	44210 <_dtoa_r+0x120>
   447c8:	01400434 	movhi	r5,16
   447cc:	297fffc4 	addi	r5,r5,-1
   447d0:	894a703a 	and	r5,r17,r5
   447d4:	d9000317 	ldw	r4,12(sp)
   447d8:	294ffc34 	orhi	r5,r5,16368
   447dc:	a53f0044 	addi	r20,r20,-1023
   447e0:	dd400217 	ldw	r21,8(sp)
   447e4:	d8000f15 	stw	zero,60(sp)
   447e8:	003eb106 	br	442b0 <_dtoa_r+0x1c0>
   447ec:	05c00174 	movhi	r23,5
   447f0:	bdf60604 	addi	r23,r23,-10216
   447f4:	003e6d06 	br	441ac <_dtoa_r+0xbc>
   447f8:	d8000415 	stw	zero,16(sp)
   447fc:	80001115 	stw	zero,68(r16)
   44800:	8009883a 	mov	r4,r16
   44804:	000b883a 	mov	r5,zero
   44808:	00475080 	call	47508 <_Balloc>
   4480c:	01ffffc4 	movi	r7,-1
   44810:	102f883a 	mov	r23,r2
   44814:	80801015 	stw	r2,64(r16)
   44818:	00800044 	movi	r2,1
   4481c:	d9c00915 	stw	r7,36(sp)
   44820:	d8002115 	stw	zero,132(sp)
   44824:	d9c00e15 	stw	r7,56(sp)
   44828:	d8800c15 	stw	r2,48(sp)
   4482c:	d8800117 	ldw	r2,4(sp)
   44830:	10008b16 	blt	r2,zero,44a60 <_dtoa_r+0x970>
   44834:	d9000617 	ldw	r4,24(sp)
   44838:	00c00384 	movi	r3,14
   4483c:	19008816 	blt	r3,r4,44a60 <_dtoa_r+0x970>
   44840:	200490fa 	slli	r2,r4,3
   44844:	d9c02117 	ldw	r7,132(sp)
   44848:	00c00174 	movhi	r3,5
   4484c:	18f63704 	addi	r3,r3,-10020
   44850:	1885883a 	add	r2,r3,r2
   44854:	14800017 	ldw	r18,0(r2)
   44858:	14c00117 	ldw	r19,4(r2)
   4485c:	3801c916 	blt	r7,zero,44f84 <_dtoa_r+0xe94>
   44860:	d9000317 	ldw	r4,12(sp)
   44864:	900d883a 	mov	r6,r18
   44868:	980f883a 	mov	r7,r19
   4486c:	880b883a 	mov	r5,r17
   44870:	00412a40 	call	412a4 <__divdf3>
   44874:	180b883a 	mov	r5,r3
   44878:	1009883a 	mov	r4,r2
   4487c:	004a5c00 	call	4a5c0 <__fixdfsi>
   44880:	1009883a 	mov	r4,r2
   44884:	102b883a 	mov	r21,r2
   44888:	004a4ec0 	call	4a4ec <__floatsidf>
   4488c:	1009883a 	mov	r4,r2
   44890:	180b883a 	mov	r5,r3
   44894:	900d883a 	mov	r6,r18
   44898:	980f883a 	mov	r7,r19
   4489c:	0040fc00 	call	40fc0 <__muldf3>
   448a0:	d9000317 	ldw	r4,12(sp)
   448a4:	880b883a 	mov	r5,r17
   448a8:	100d883a 	mov	r6,r2
   448ac:	180f883a 	mov	r7,r3
   448b0:	004a2b00 	call	4a2b0 <__subdf3>
   448b4:	d9c00917 	ldw	r7,36(sp)
   448b8:	1009883a 	mov	r4,r2
   448bc:	a8800c04 	addi	r2,r21,48
   448c0:	b8800005 	stb	r2,0(r23)
   448c4:	01800044 	movi	r6,1
   448c8:	180b883a 	mov	r5,r3
   448cc:	2005883a 	mov	r2,r4
   448d0:	bd800044 	addi	r22,r23,1
   448d4:	39803726 	beq	r7,r6,449b4 <_dtoa_r+0x8c4>
   448d8:	000d883a 	mov	r6,zero
   448dc:	01d00934 	movhi	r7,16420
   448e0:	0040fc00 	call	40fc0 <__muldf3>
   448e4:	1009883a 	mov	r4,r2
   448e8:	180b883a 	mov	r5,r3
   448ec:	000d883a 	mov	r6,zero
   448f0:	000f883a 	mov	r7,zero
   448f4:	1029883a 	mov	r20,r2
   448f8:	1823883a 	mov	r17,r3
   448fc:	004a3100 	call	4a310 <__eqdf2>
   44900:	103f9c26 	beq	r2,zero,44774 <_dtoa_r+0x684>
   44904:	dd400917 	ldw	r21,36(sp)
   44908:	dc000415 	stw	r16,16(sp)
   4490c:	00000906 	br	44934 <_dtoa_r+0x844>
   44910:	0040fc00 	call	40fc0 <__muldf3>
   44914:	1009883a 	mov	r4,r2
   44918:	180b883a 	mov	r5,r3
   4491c:	000d883a 	mov	r6,zero
   44920:	000f883a 	mov	r7,zero
   44924:	1029883a 	mov	r20,r2
   44928:	1823883a 	mov	r17,r3
   4492c:	004a3100 	call	4a310 <__eqdf2>
   44930:	10022926 	beq	r2,zero,451d8 <_dtoa_r+0x10e8>
   44934:	900d883a 	mov	r6,r18
   44938:	980f883a 	mov	r7,r19
   4493c:	a009883a 	mov	r4,r20
   44940:	880b883a 	mov	r5,r17
   44944:	00412a40 	call	412a4 <__divdf3>
   44948:	180b883a 	mov	r5,r3
   4494c:	1009883a 	mov	r4,r2
   44950:	004a5c00 	call	4a5c0 <__fixdfsi>
   44954:	1009883a 	mov	r4,r2
   44958:	1021883a 	mov	r16,r2
   4495c:	004a4ec0 	call	4a4ec <__floatsidf>
   44960:	1009883a 	mov	r4,r2
   44964:	180b883a 	mov	r5,r3
   44968:	900d883a 	mov	r6,r18
   4496c:	980f883a 	mov	r7,r19
   44970:	0040fc00 	call	40fc0 <__muldf3>
   44974:	a009883a 	mov	r4,r20
   44978:	880b883a 	mov	r5,r17
   4497c:	100d883a 	mov	r6,r2
   44980:	180f883a 	mov	r7,r3
   44984:	004a2b00 	call	4a2b0 <__subdf3>
   44988:	82400c04 	addi	r9,r16,48
   4498c:	b2400005 	stb	r9,0(r22)
   44990:	b5800044 	addi	r22,r22,1
   44994:	b5d3c83a 	sub	r9,r22,r23
   44998:	000d883a 	mov	r6,zero
   4499c:	01d00934 	movhi	r7,16420
   449a0:	1009883a 	mov	r4,r2
   449a4:	180b883a 	mov	r5,r3
   449a8:	aa7fd91e 	bne	r21,r9,44910 <_dtoa_r+0x820>
   449ac:	802b883a 	mov	r21,r16
   449b0:	dc000417 	ldw	r16,16(sp)
   449b4:	1009883a 	mov	r4,r2
   449b8:	180b883a 	mov	r5,r3
   449bc:	100d883a 	mov	r6,r2
   449c0:	180f883a 	mov	r7,r3
   449c4:	004a25c0 	call	4a25c <__adddf3>
   449c8:	9009883a 	mov	r4,r18
   449cc:	980b883a 	mov	r5,r19
   449d0:	100d883a 	mov	r6,r2
   449d4:	180f883a 	mov	r7,r3
   449d8:	1023883a 	mov	r17,r2
   449dc:	1829883a 	mov	r20,r3
   449e0:	004a4900 	call	4a490 <__ltdf2>
   449e4:	10000816 	blt	r2,zero,44a08 <_dtoa_r+0x918>
   449e8:	9009883a 	mov	r4,r18
   449ec:	980b883a 	mov	r5,r19
   449f0:	880d883a 	mov	r6,r17
   449f4:	a00f883a 	mov	r7,r20
   449f8:	004a3100 	call	4a310 <__eqdf2>
   449fc:	103f5d1e 	bne	r2,zero,44774 <_dtoa_r+0x684>
   44a00:	ad40004c 	andi	r21,r21,1
   44a04:	a83f5b26 	beq	r21,zero,44774 <_dtoa_r+0x684>
   44a08:	b53fffc3 	ldbu	r20,-1(r22)
   44a0c:	b0ffff84 	addi	r3,r22,-2
   44a10:	01400e44 	movi	r5,57
   44a14:	00000306 	br	44a24 <_dtoa_r+0x934>
   44a18:	1d000003 	ldbu	r20,0(r3)
   44a1c:	102d883a 	mov	r22,r2
   44a20:	18ffffc4 	addi	r3,r3,-1
   44a24:	a1003fcc 	andi	r4,r20,255
   44a28:	2100201c 	xori	r4,r4,128
   44a2c:	213fe004 	addi	r4,r4,-128
   44a30:	b0bfffc4 	addi	r2,r22,-1
   44a34:	2142ca1e 	bne	r4,r5,45560 <_dtoa_r+0x1470>
   44a38:	b8bff71e 	bne	r23,r2,44a18 <_dtoa_r+0x928>
   44a3c:	d8800617 	ldw	r2,24(sp)
   44a40:	05000c44 	movi	r20,49
   44a44:	10800044 	addi	r2,r2,1
   44a48:	d8800615 	stw	r2,24(sp)
   44a4c:	00800c04 	movi	r2,48
   44a50:	b8800005 	stb	r2,0(r23)
   44a54:	b805883a 	mov	r2,r23
   44a58:	15000005 	stb	r20,0(r2)
   44a5c:	003f4506 	br	44774 <_dtoa_r+0x684>
   44a60:	d9c00c17 	ldw	r7,48(sp)
   44a64:	3800c926 	beq	r7,zero,44d8c <_dtoa_r+0xc9c>
   44a68:	d9c00417 	ldw	r7,16(sp)
   44a6c:	00c00044 	movi	r3,1
   44a70:	19c16c0e 	bge	r3,r7,45024 <_dtoa_r+0xf34>
   44a74:	d9000917 	ldw	r4,36(sp)
   44a78:	d9c00a17 	ldw	r7,40(sp)
   44a7c:	24ffffc4 	addi	r19,r4,-1
   44a80:	3cc20716 	blt	r7,r19,452a0 <_dtoa_r+0x11b0>
   44a84:	3ce7c83a 	sub	r19,r7,r19
   44a88:	d9c00917 	ldw	r7,36(sp)
   44a8c:	3802ae16 	blt	r7,zero,45548 <_dtoa_r+0x1458>
   44a90:	dc800817 	ldw	r18,32(sp)
   44a94:	d8800917 	ldw	r2,36(sp)
   44a98:	d8c00817 	ldw	r3,32(sp)
   44a9c:	d9c00717 	ldw	r7,28(sp)
   44aa0:	8009883a 	mov	r4,r16
   44aa4:	1887883a 	add	r3,r3,r2
   44aa8:	388f883a 	add	r7,r7,r2
   44aac:	01400044 	movi	r5,1
   44ab0:	d8c00815 	stw	r3,32(sp)
   44ab4:	d9c00715 	stw	r7,28(sp)
   44ab8:	00479380 	call	47938 <__i2b>
   44abc:	102b883a 	mov	r21,r2
   44ac0:	90000a26 	beq	r18,zero,44aec <_dtoa_r+0x9fc>
   44ac4:	d8800717 	ldw	r2,28(sp)
   44ac8:	0080080e 	bge	zero,r2,44aec <_dtoa_r+0x9fc>
   44acc:	90812b16 	blt	r18,r2,44f7c <_dtoa_r+0xe8c>
   44ad0:	d8c00817 	ldw	r3,32(sp)
   44ad4:	d9000717 	ldw	r4,28(sp)
   44ad8:	90a5c83a 	sub	r18,r18,r2
   44adc:	1887c83a 	sub	r3,r3,r2
   44ae0:	2089c83a 	sub	r4,r4,r2
   44ae4:	d8c00815 	stw	r3,32(sp)
   44ae8:	d9000715 	stw	r4,28(sp)
   44aec:	d9c00a17 	ldw	r7,40(sp)
   44af0:	01c0140e 	bge	zero,r7,44b44 <_dtoa_r+0xa54>
   44af4:	d8800c17 	ldw	r2,48(sp)
   44af8:	1001de26 	beq	r2,zero,45274 <_dtoa_r+0x1184>
   44afc:	04c00e0e 	bge	zero,r19,44b38 <_dtoa_r+0xa48>
   44b00:	a80b883a 	mov	r5,r21
   44b04:	8009883a 	mov	r4,r16
   44b08:	980d883a 	mov	r6,r19
   44b0c:	0047bcc0 	call	47bcc <__pow5mult>
   44b10:	e00d883a 	mov	r6,fp
   44b14:	8009883a 	mov	r4,r16
   44b18:	100b883a 	mov	r5,r2
   44b1c:	102b883a 	mov	r21,r2
   44b20:	00479740 	call	47974 <__multiply>
   44b24:	1029883a 	mov	r20,r2
   44b28:	e00b883a 	mov	r5,fp
   44b2c:	8009883a 	mov	r4,r16
   44b30:	00475b00 	call	475b0 <_Bfree>
   44b34:	a039883a 	mov	fp,r20
   44b38:	d8c00a17 	ldw	r3,40(sp)
   44b3c:	1ccdc83a 	sub	r6,r3,r19
   44b40:	3001291e 	bne	r6,zero,44fe8 <_dtoa_r+0xef8>
   44b44:	8009883a 	mov	r4,r16
   44b48:	01400044 	movi	r5,1
   44b4c:	00479380 	call	47938 <__i2b>
   44b50:	d9000b17 	ldw	r4,44(sp)
   44b54:	1029883a 	mov	r20,r2
   44b58:	0100050e 	bge	zero,r4,44b70 <_dtoa_r+0xa80>
   44b5c:	d9800b17 	ldw	r6,44(sp)
   44b60:	8009883a 	mov	r4,r16
   44b64:	100b883a 	mov	r5,r2
   44b68:	0047bcc0 	call	47bcc <__pow5mult>
   44b6c:	1029883a 	mov	r20,r2
   44b70:	d9c00417 	ldw	r7,16(sp)
   44b74:	00800044 	movi	r2,1
   44b78:	11c0f00e 	bge	r2,r7,44f3c <_dtoa_r+0xe4c>
   44b7c:	0023883a 	mov	r17,zero
   44b80:	d8800b17 	ldw	r2,44(sp)
   44b84:	1001741e 	bne	r2,zero,45158 <_dtoa_r+0x1068>
   44b88:	00800044 	movi	r2,1
   44b8c:	d8c00717 	ldw	r3,28(sp)
   44b90:	10c5883a 	add	r2,r2,r3
   44b94:	108007cc 	andi	r2,r2,31
   44b98:	10008026 	beq	r2,zero,44d9c <_dtoa_r+0xcac>
   44b9c:	01000804 	movi	r4,32
   44ba0:	2089c83a 	sub	r4,r4,r2
   44ba4:	00c00104 	movi	r3,4
   44ba8:	1902d00e 	bge	r3,r4,456ec <_dtoa_r+0x15fc>
   44bac:	d9000817 	ldw	r4,32(sp)
   44bb0:	d9c00717 	ldw	r7,28(sp)
   44bb4:	00c00704 	movi	r3,28
   44bb8:	1885c83a 	sub	r2,r3,r2
   44bbc:	2089883a 	add	r4,r4,r2
   44bc0:	388f883a 	add	r7,r7,r2
   44bc4:	d9000815 	stw	r4,32(sp)
   44bc8:	90a5883a 	add	r18,r18,r2
   44bcc:	d9c00715 	stw	r7,28(sp)
   44bd0:	d9c00817 	ldw	r7,32(sp)
   44bd4:	01c0050e 	bge	zero,r7,44bec <_dtoa_r+0xafc>
   44bd8:	e00b883a 	mov	r5,fp
   44bdc:	8009883a 	mov	r4,r16
   44be0:	380d883a 	mov	r6,r7
   44be4:	0047cf80 	call	47cf8 <__lshift>
   44be8:	1039883a 	mov	fp,r2
   44bec:	d8800717 	ldw	r2,28(sp)
   44bf0:	0080050e 	bge	zero,r2,44c08 <_dtoa_r+0xb18>
   44bf4:	a00b883a 	mov	r5,r20
   44bf8:	8009883a 	mov	r4,r16
   44bfc:	100d883a 	mov	r6,r2
   44c00:	0047cf80 	call	47cf8 <__lshift>
   44c04:	1029883a 	mov	r20,r2
   44c08:	d8c00d17 	ldw	r3,52(sp)
   44c0c:	1801401e 	bne	r3,zero,45110 <_dtoa_r+0x1020>
   44c10:	d8800917 	ldw	r2,36(sp)
   44c14:	00815a0e 	bge	zero,r2,45180 <_dtoa_r+0x1090>
   44c18:	d8c00c17 	ldw	r3,48(sp)
   44c1c:	18006f1e 	bne	r3,zero,44ddc <_dtoa_r+0xcec>
   44c20:	b823883a 	mov	r17,r23
   44c24:	dc800917 	ldw	r18,36(sp)
   44c28:	00000206 	br	44c34 <_dtoa_r+0xb44>
   44c2c:	00475d80 	call	475d8 <__multadd>
   44c30:	1039883a 	mov	fp,r2
   44c34:	e009883a 	mov	r4,fp
   44c38:	a00b883a 	mov	r5,r20
   44c3c:	0043eb40 	call	43eb4 <quorem>
   44c40:	10800c04 	addi	r2,r2,48
   44c44:	88800005 	stb	r2,0(r17)
   44c48:	8c400044 	addi	r17,r17,1
   44c4c:	8dc7c83a 	sub	r3,r17,r23
   44c50:	8009883a 	mov	r4,r16
   44c54:	e00b883a 	mov	r5,fp
   44c58:	01800284 	movi	r6,10
   44c5c:	000f883a 	mov	r7,zero
   44c60:	1cbff216 	blt	r3,r18,44c2c <_dtoa_r+0xb3c>
   44c64:	dd800917 	ldw	r22,36(sp)
   44c68:	1007883a 	mov	r3,r2
   44c6c:	05823a0e 	bge	zero,r22,45558 <_dtoa_r+0x1468>
   44c70:	bdad883a 	add	r22,r23,r22
   44c74:	0023883a 	mov	r17,zero
   44c78:	e00b883a 	mov	r5,fp
   44c7c:	01800044 	movi	r6,1
   44c80:	8009883a 	mov	r4,r16
   44c84:	d8c01515 	stw	r3,84(sp)
   44c88:	0047cf80 	call	47cf8 <__lshift>
   44c8c:	1009883a 	mov	r4,r2
   44c90:	a00b883a 	mov	r5,r20
   44c94:	1039883a 	mov	fp,r2
   44c98:	0047e540 	call	47e54 <__mcmp>
   44c9c:	d8c01517 	ldw	r3,84(sp)
   44ca0:	0080d60e 	bge	zero,r2,44ffc <_dtoa_r+0xf0c>
   44ca4:	b13fffc3 	ldbu	r4,-1(r22)
   44ca8:	b0ffff84 	addi	r3,r22,-2
   44cac:	01800e44 	movi	r6,57
   44cb0:	00000306 	br	44cc0 <_dtoa_r+0xbd0>
   44cb4:	19000003 	ldbu	r4,0(r3)
   44cb8:	102d883a 	mov	r22,r2
   44cbc:	18ffffc4 	addi	r3,r3,-1
   44cc0:	21403fcc 	andi	r5,r4,255
   44cc4:	2940201c 	xori	r5,r5,128
   44cc8:	297fe004 	addi	r5,r5,-128
   44ccc:	b0bfffc4 	addi	r2,r22,-1
   44cd0:	2981a71e 	bne	r5,r6,45370 <_dtoa_r+0x1280>
   44cd4:	b8bff71e 	bne	r23,r2,44cb4 <_dtoa_r+0xbc4>
   44cd8:	d8800617 	ldw	r2,24(sp)
   44cdc:	10800044 	addi	r2,r2,1
   44ce0:	d8800615 	stw	r2,24(sp)
   44ce4:	00800c44 	movi	r2,49
   44ce8:	b8800005 	stb	r2,0(r23)
   44cec:	8009883a 	mov	r4,r16
   44cf0:	a00b883a 	mov	r5,r20
   44cf4:	00475b00 	call	475b0 <_Bfree>
   44cf8:	a83e9e26 	beq	r21,zero,44774 <_dtoa_r+0x684>
   44cfc:	88000426 	beq	r17,zero,44d10 <_dtoa_r+0xc20>
   44d00:	8d400326 	beq	r17,r21,44d10 <_dtoa_r+0xc20>
   44d04:	8009883a 	mov	r4,r16
   44d08:	880b883a 	mov	r5,r17
   44d0c:	00475b00 	call	475b0 <_Bfree>
   44d10:	8009883a 	mov	r4,r16
   44d14:	a80b883a 	mov	r5,r21
   44d18:	00475b00 	call	475b0 <_Bfree>
   44d1c:	003e9506 	br	44774 <_dtoa_r+0x684>
   44d20:	00c00044 	movi	r3,1
   44d24:	d8c00d15 	stw	r3,52(sp)
   44d28:	003d9f06 	br	443a8 <_dtoa_r+0x2b8>
   44d2c:	d9000817 	ldw	r4,32(sp)
   44d30:	d8800617 	ldw	r2,24(sp)
   44d34:	d8000b15 	stw	zero,44(sp)
   44d38:	2089c83a 	sub	r4,r4,r2
   44d3c:	0087c83a 	sub	r3,zero,r2
   44d40:	d9000815 	stw	r4,32(sp)
   44d44:	d8c00a15 	stw	r3,40(sp)
   44d48:	003da306 	br	443d8 <_dtoa_r+0x2e8>
   44d4c:	0529c83a 	sub	r20,zero,r20
   44d50:	dd000815 	stw	r20,32(sp)
   44d54:	d8000715 	stw	zero,28(sp)
   44d58:	003d9806 	br	443bc <_dtoa_r+0x2cc>
   44d5c:	d9000617 	ldw	r4,24(sp)
   44d60:	004a4ec0 	call	4a4ec <__floatsidf>
   44d64:	1009883a 	mov	r4,r2
   44d68:	180b883a 	mov	r5,r3
   44d6c:	980d883a 	mov	r6,r19
   44d70:	900f883a 	mov	r7,r18
   44d74:	004a36c0 	call	4a36c <__nedf2>
   44d78:	103d7a26 	beq	r2,zero,44364 <_dtoa_r+0x274>
   44d7c:	d8800617 	ldw	r2,24(sp)
   44d80:	10bfffc4 	addi	r2,r2,-1
   44d84:	d8800615 	stw	r2,24(sp)
   44d88:	003d7606 	br	44364 <_dtoa_r+0x274>
   44d8c:	dcc00a17 	ldw	r19,40(sp)
   44d90:	dc800817 	ldw	r18,32(sp)
   44d94:	002b883a 	mov	r21,zero
   44d98:	003f4906 	br	44ac0 <_dtoa_r+0x9d0>
   44d9c:	00800704 	movi	r2,28
   44da0:	d8c00817 	ldw	r3,32(sp)
   44da4:	d9000717 	ldw	r4,28(sp)
   44da8:	90a5883a 	add	r18,r18,r2
   44dac:	1887883a 	add	r3,r3,r2
   44db0:	2089883a 	add	r4,r4,r2
   44db4:	d8c00815 	stw	r3,32(sp)
   44db8:	d9000715 	stw	r4,28(sp)
   44dbc:	003f8406 	br	44bd0 <_dtoa_r+0xae0>
   44dc0:	d9c00317 	ldw	r7,12(sp)
   44dc4:	013efb84 	movi	r4,-1042
   44dc8:	2509c83a 	sub	r4,r4,r20
   44dcc:	3908983a 	sll	r4,r7,r4
   44dd0:	003d3006 	br	44294 <_dtoa_r+0x1a4>
   44dd4:	d8000d15 	stw	zero,52(sp)
   44dd8:	003d7306 	br	443a8 <_dtoa_r+0x2b8>
   44ddc:	0480050e 	bge	zero,r18,44df4 <_dtoa_r+0xd04>
   44de0:	a80b883a 	mov	r5,r21
   44de4:	8009883a 	mov	r4,r16
   44de8:	900d883a 	mov	r6,r18
   44dec:	0047cf80 	call	47cf8 <__lshift>
   44df0:	102b883a 	mov	r21,r2
   44df4:	8801611e 	bne	r17,zero,4537c <_dtoa_r+0x128c>
   44df8:	a827883a 	mov	r19,r21
   44dfc:	d8c00317 	ldw	r3,12(sp)
   44e00:	d9000917 	ldw	r4,36(sp)
   44e04:	b8bfffc4 	addi	r2,r23,-1
   44e08:	18c0004c 	andi	r3,r3,1
   44e0c:	1105883a 	add	r2,r2,r4
   44e10:	b825883a 	mov	r18,r23
   44e14:	d8800515 	stw	r2,20(sp)
   44e18:	a823883a 	mov	r17,r21
   44e1c:	d8c00315 	stw	r3,12(sp)
   44e20:	ddc00715 	stw	r23,28(sp)
   44e24:	e009883a 	mov	r4,fp
   44e28:	a00b883a 	mov	r5,r20
   44e2c:	0043eb40 	call	43eb4 <quorem>
   44e30:	e009883a 	mov	r4,fp
   44e34:	880b883a 	mov	r5,r17
   44e38:	102d883a 	mov	r22,r2
   44e3c:	0047e540 	call	47e54 <__mcmp>
   44e40:	980d883a 	mov	r6,r19
   44e44:	8009883a 	mov	r4,r16
   44e48:	a00b883a 	mov	r5,r20
   44e4c:	102b883a 	mov	r21,r2
   44e50:	0047eac0 	call	47eac <__mdiff>
   44e54:	100d883a 	mov	r6,r2
   44e58:	10800317 	ldw	r2,12(r2)
   44e5c:	b5c00c04 	addi	r23,r22,48
   44e60:	10008c26 	beq	r2,zero,45094 <_dtoa_r+0xfa4>
   44e64:	8009883a 	mov	r4,r16
   44e68:	300b883a 	mov	r5,r6
   44e6c:	00475b00 	call	475b0 <_Bfree>
   44e70:	00800044 	movi	r2,1
   44e74:	a8007116 	blt	r21,zero,4503c <_dtoa_r+0xf4c>
   44e78:	a800041e 	bne	r21,zero,44e8c <_dtoa_r+0xd9c>
   44e7c:	d9c00417 	ldw	r7,16(sp)
   44e80:	3800021e 	bne	r7,zero,44e8c <_dtoa_r+0xd9c>
   44e84:	d8c00317 	ldw	r3,12(sp)
   44e88:	18006c26 	beq	r3,zero,4503c <_dtoa_r+0xf4c>
   44e8c:	00814c16 	blt	zero,r2,453c0 <_dtoa_r+0x12d0>
   44e90:	d8c00517 	ldw	r3,20(sp)
   44e94:	95400044 	addi	r21,r18,1
   44e98:	95c00005 	stb	r23,0(r18)
   44e9c:	a82d883a 	mov	r22,r21
   44ea0:	90c14d26 	beq	r18,r3,453d8 <_dtoa_r+0x12e8>
   44ea4:	e00b883a 	mov	r5,fp
   44ea8:	8009883a 	mov	r4,r16
   44eac:	01800284 	movi	r6,10
   44eb0:	000f883a 	mov	r7,zero
   44eb4:	00475d80 	call	475d8 <__multadd>
   44eb8:	1039883a 	mov	fp,r2
   44ebc:	8cc08b26 	beq	r17,r19,450ec <_dtoa_r+0xffc>
   44ec0:	880b883a 	mov	r5,r17
   44ec4:	01800284 	movi	r6,10
   44ec8:	000f883a 	mov	r7,zero
   44ecc:	8009883a 	mov	r4,r16
   44ed0:	00475d80 	call	475d8 <__multadd>
   44ed4:	980b883a 	mov	r5,r19
   44ed8:	8009883a 	mov	r4,r16
   44edc:	01800284 	movi	r6,10
   44ee0:	000f883a 	mov	r7,zero
   44ee4:	1023883a 	mov	r17,r2
   44ee8:	00475d80 	call	475d8 <__multadd>
   44eec:	1027883a 	mov	r19,r2
   44ef0:	a825883a 	mov	r18,r21
   44ef4:	003fcb06 	br	44e24 <_dtoa_r+0xd34>
   44ef8:	d9c00417 	ldw	r7,16(sp)
   44efc:	00800104 	movi	r2,4
   44f00:	3880e426 	beq	r7,r2,45294 <_dtoa_r+0x11a4>
   44f04:	00800144 	movi	r2,5
   44f08:	38be3c1e 	bne	r7,r2,447fc <_dtoa_r+0x70c>
   44f0c:	00c00044 	movi	r3,1
   44f10:	d8c00c15 	stw	r3,48(sp)
   44f14:	d9c02117 	ldw	r7,132(sp)
   44f18:	d8800617 	ldw	r2,24(sp)
   44f1c:	388f883a 	add	r7,r7,r2
   44f20:	3c800044 	addi	r18,r7,1
   44f24:	d9c00e15 	stw	r7,56(sp)
   44f28:	dc800915 	stw	r18,36(sp)
   44f2c:	04bd3e16 	blt	zero,r18,44428 <_dtoa_r+0x338>
   44f30:	80001115 	stw	zero,68(r16)
   44f34:	000b883a 	mov	r5,zero
   44f38:	003d4606 	br	44454 <_dtoa_r+0x364>
   44f3c:	d8c00317 	ldw	r3,12(sp)
   44f40:	183f0e1e 	bne	r3,zero,44b7c <_dtoa_r+0xa8c>
   44f44:	00c00434 	movhi	r3,16
   44f48:	18ffffc4 	addi	r3,r3,-1
   44f4c:	88c6703a 	and	r3,r17,r3
   44f50:	183f0a1e 	bne	r3,zero,44b7c <_dtoa_r+0xa8c>
   44f54:	8c5ffc2c 	andhi	r17,r17,32752
   44f58:	883f0826 	beq	r17,zero,44b7c <_dtoa_r+0xa8c>
   44f5c:	d9000817 	ldw	r4,32(sp)
   44f60:	d9c00717 	ldw	r7,28(sp)
   44f64:	1023883a 	mov	r17,r2
   44f68:	2089883a 	add	r4,r4,r2
   44f6c:	388f883a 	add	r7,r7,r2
   44f70:	d9000815 	stw	r4,32(sp)
   44f74:	d9c00715 	stw	r7,28(sp)
   44f78:	003f0106 	br	44b80 <_dtoa_r+0xa90>
   44f7c:	9005883a 	mov	r2,r18
   44f80:	003ed306 	br	44ad0 <_dtoa_r+0x9e0>
   44f84:	d8800917 	ldw	r2,36(sp)
   44f88:	00be3516 	blt	zero,r2,44860 <_dtoa_r+0x770>
   44f8c:	1000b61e 	bne	r2,zero,45268 <_dtoa_r+0x1178>
   44f90:	9009883a 	mov	r4,r18
   44f94:	980b883a 	mov	r5,r19
   44f98:	000d883a 	mov	r6,zero
   44f9c:	01d00534 	movhi	r7,16404
   44fa0:	0040fc00 	call	40fc0 <__muldf3>
   44fa4:	d9800317 	ldw	r6,12(sp)
   44fa8:	1009883a 	mov	r4,r2
   44fac:	180b883a 	mov	r5,r3
   44fb0:	880f883a 	mov	r7,r17
   44fb4:	004a42c0 	call	4a42c <__gedf2>
   44fb8:	0029883a 	mov	r20,zero
   44fbc:	002b883a 	mov	r21,zero
   44fc0:	10007e16 	blt	r2,zero,451bc <_dtoa_r+0x10cc>
   44fc4:	d8802117 	ldw	r2,132(sp)
   44fc8:	b82d883a 	mov	r22,r23
   44fcc:	0084303a 	nor	r2,zero,r2
   44fd0:	d8800615 	stw	r2,24(sp)
   44fd4:	8009883a 	mov	r4,r16
   44fd8:	a00b883a 	mov	r5,r20
   44fdc:	00475b00 	call	475b0 <_Bfree>
   44fe0:	a83f4b1e 	bne	r21,zero,44d10 <_dtoa_r+0xc20>
   44fe4:	003de306 	br	44774 <_dtoa_r+0x684>
   44fe8:	e00b883a 	mov	r5,fp
   44fec:	8009883a 	mov	r4,r16
   44ff0:	0047bcc0 	call	47bcc <__pow5mult>
   44ff4:	1039883a 	mov	fp,r2
   44ff8:	003ed206 	br	44b44 <_dtoa_r+0xa54>
   44ffc:	1000021e 	bne	r2,zero,45008 <_dtoa_r+0xf18>
   45000:	18c0004c 	andi	r3,r3,1
   45004:	183f271e 	bne	r3,zero,44ca4 <_dtoa_r+0xbb4>
   45008:	01000c04 	movi	r4,48
   4500c:	00000106 	br	45014 <_dtoa_r+0xf24>
   45010:	102d883a 	mov	r22,r2
   45014:	b0bfffc4 	addi	r2,r22,-1
   45018:	10c00007 	ldb	r3,0(r2)
   4501c:	193ffc26 	beq	r3,r4,45010 <_dtoa_r+0xf20>
   45020:	003f3206 	br	44cec <_dtoa_r+0xbfc>
   45024:	d8c00f17 	ldw	r3,60(sp)
   45028:	18015026 	beq	r3,zero,4556c <_dtoa_r+0x147c>
   4502c:	10810cc4 	addi	r2,r2,1075
   45030:	dcc00a17 	ldw	r19,40(sp)
   45034:	dc800817 	ldw	r18,32(sp)
   45038:	003e9706 	br	44a98 <_dtoa_r+0x9a8>
   4503c:	b807883a 	mov	r3,r23
   45040:	182b883a 	mov	r21,r3
   45044:	ddc00717 	ldw	r23,28(sp)
   45048:	00800e0e 	bge	zero,r2,45084 <_dtoa_r+0xf94>
   4504c:	e00b883a 	mov	r5,fp
   45050:	01800044 	movi	r6,1
   45054:	8009883a 	mov	r4,r16
   45058:	d8c01515 	stw	r3,84(sp)
   4505c:	0047cf80 	call	47cf8 <__lshift>
   45060:	1009883a 	mov	r4,r2
   45064:	a00b883a 	mov	r5,r20
   45068:	1039883a 	mov	fp,r2
   4506c:	0047e540 	call	47e54 <__mcmp>
   45070:	d8c01517 	ldw	r3,84(sp)
   45074:	0081880e 	bge	zero,r2,45698 <_dtoa_r+0x15a8>
   45078:	00800e44 	movi	r2,57
   4507c:	b0c00c44 	addi	r3,r22,49
   45080:	a8816326 	beq	r21,r2,45610 <_dtoa_r+0x1520>
   45084:	90c00005 	stb	r3,0(r18)
   45088:	95800044 	addi	r22,r18,1
   4508c:	982b883a 	mov	r21,r19
   45090:	003f1606 	br	44cec <_dtoa_r+0xbfc>
   45094:	300b883a 	mov	r5,r6
   45098:	e009883a 	mov	r4,fp
   4509c:	d9801515 	stw	r6,84(sp)
   450a0:	0047e540 	call	47e54 <__mcmp>
   450a4:	d9801517 	ldw	r6,84(sp)
   450a8:	8009883a 	mov	r4,r16
   450ac:	d8801515 	stw	r2,84(sp)
   450b0:	300b883a 	mov	r5,r6
   450b4:	00475b00 	call	475b0 <_Bfree>
   450b8:	d8801517 	ldw	r2,84(sp)
   450bc:	103f6d1e 	bne	r2,zero,44e74 <_dtoa_r+0xd84>
   450c0:	d9c00417 	ldw	r7,16(sp)
   450c4:	383f6b1e 	bne	r7,zero,44e74 <_dtoa_r+0xd84>
   450c8:	d8c00317 	ldw	r3,12(sp)
   450cc:	183f691e 	bne	r3,zero,44e74 <_dtoa_r+0xd84>
   450d0:	b807883a 	mov	r3,r23
   450d4:	00800e44 	movi	r2,57
   450d8:	ddc00717 	ldw	r23,28(sp)
   450dc:	18814c26 	beq	r3,r2,45610 <_dtoa_r+0x1520>
   450e0:	057fe80e 	bge	zero,r21,45084 <_dtoa_r+0xf94>
   450e4:	b0c00c44 	addi	r3,r22,49
   450e8:	003fe606 	br	45084 <_dtoa_r+0xf94>
   450ec:	880b883a 	mov	r5,r17
   450f0:	8009883a 	mov	r4,r16
   450f4:	01800284 	movi	r6,10
   450f8:	000f883a 	mov	r7,zero
   450fc:	00475d80 	call	475d8 <__multadd>
   45100:	1023883a 	mov	r17,r2
   45104:	1027883a 	mov	r19,r2
   45108:	a825883a 	mov	r18,r21
   4510c:	003f4506 	br	44e24 <_dtoa_r+0xd34>
   45110:	e009883a 	mov	r4,fp
   45114:	a00b883a 	mov	r5,r20
   45118:	0047e540 	call	47e54 <__mcmp>
   4511c:	103ebc0e 	bge	r2,zero,44c10 <_dtoa_r+0xb20>
   45120:	e00b883a 	mov	r5,fp
   45124:	8009883a 	mov	r4,r16
   45128:	01800284 	movi	r6,10
   4512c:	000f883a 	mov	r7,zero
   45130:	00475d80 	call	475d8 <__multadd>
   45134:	1039883a 	mov	fp,r2
   45138:	d8800617 	ldw	r2,24(sp)
   4513c:	d8c00c17 	ldw	r3,48(sp)
   45140:	10bfffc4 	addi	r2,r2,-1
   45144:	d8800615 	stw	r2,24(sp)
   45148:	1801571e 	bne	r3,zero,456a8 <_dtoa_r+0x15b8>
   4514c:	d9c00e17 	ldw	r7,56(sp)
   45150:	d9c00915 	stw	r7,36(sp)
   45154:	003eae06 	br	44c10 <_dtoa_r+0xb20>
   45158:	a0800417 	ldw	r2,16(r20)
   4515c:	10800104 	addi	r2,r2,4
   45160:	1085883a 	add	r2,r2,r2
   45164:	1085883a 	add	r2,r2,r2
   45168:	a085883a 	add	r2,r20,r2
   4516c:	11000017 	ldw	r4,0(r2)
   45170:	00478200 	call	47820 <__hi0bits>
   45174:	00c00804 	movi	r3,32
   45178:	1885c83a 	sub	r2,r3,r2
   4517c:	003e8306 	br	44b8c <_dtoa_r+0xa9c>
   45180:	d9c00417 	ldw	r7,16(sp)
   45184:	00800084 	movi	r2,2
   45188:	11fea30e 	bge	r2,r7,44c18 <_dtoa_r+0xb28>
   4518c:	d8800917 	ldw	r2,36(sp)
   45190:	103f8c1e 	bne	r2,zero,44fc4 <_dtoa_r+0xed4>
   45194:	a00b883a 	mov	r5,r20
   45198:	8009883a 	mov	r4,r16
   4519c:	01800144 	movi	r6,5
   451a0:	000f883a 	mov	r7,zero
   451a4:	00475d80 	call	475d8 <__multadd>
   451a8:	e009883a 	mov	r4,fp
   451ac:	100b883a 	mov	r5,r2
   451b0:	1029883a 	mov	r20,r2
   451b4:	0047e540 	call	47e54 <__mcmp>
   451b8:	00bf820e 	bge	zero,r2,44fc4 <_dtoa_r+0xed4>
   451bc:	00800c44 	movi	r2,49
   451c0:	b8800005 	stb	r2,0(r23)
   451c4:	d8800617 	ldw	r2,24(sp)
   451c8:	bd800044 	addi	r22,r23,1
   451cc:	10800044 	addi	r2,r2,1
   451d0:	d8800615 	stw	r2,24(sp)
   451d4:	003f7f06 	br	44fd4 <_dtoa_r+0xee4>
   451d8:	dc000417 	ldw	r16,16(sp)
   451dc:	003d6506 	br	44774 <_dtoa_r+0x684>
   451e0:	9009883a 	mov	r4,r18
   451e4:	004a4ec0 	call	4a4ec <__floatsidf>
   451e8:	1009883a 	mov	r4,r2
   451ec:	180b883a 	mov	r5,r3
   451f0:	980d883a 	mov	r6,r19
   451f4:	a00f883a 	mov	r7,r20
   451f8:	0040fc00 	call	40fc0 <__muldf3>
   451fc:	1009883a 	mov	r4,r2
   45200:	180b883a 	mov	r5,r3
   45204:	000d883a 	mov	r6,zero
   45208:	01d00734 	movhi	r7,16412
   4520c:	004a25c0 	call	4a25c <__adddf3>
   45210:	057f3034 	movhi	r21,64704
   45214:	1025883a 	mov	r18,r2
   45218:	1d6b883a 	add	r21,r3,r21
   4521c:	9809883a 	mov	r4,r19
   45220:	a00b883a 	mov	r5,r20
   45224:	000d883a 	mov	r6,zero
   45228:	01d00534 	movhi	r7,16404
   4522c:	004a2b00 	call	4a2b0 <__subdf3>
   45230:	1009883a 	mov	r4,r2
   45234:	180b883a 	mov	r5,r3
   45238:	900d883a 	mov	r6,r18
   4523c:	a80f883a 	mov	r7,r21
   45240:	1027883a 	mov	r19,r2
   45244:	1829883a 	mov	r20,r3
   45248:	004a3c80 	call	4a3c8 <__gtdf2>
   4524c:	00806616 	blt	zero,r2,453e8 <_dtoa_r+0x12f8>
   45250:	a9e0003c 	xorhi	r7,r21,32768
   45254:	9809883a 	mov	r4,r19
   45258:	a00b883a 	mov	r5,r20
   4525c:	900d883a 	mov	r6,r18
   45260:	004a4900 	call	4a490 <__ltdf2>
   45264:	103d710e 	bge	r2,zero,4482c <_dtoa_r+0x73c>
   45268:	0029883a 	mov	r20,zero
   4526c:	002b883a 	mov	r21,zero
   45270:	003f5406 	br	44fc4 <_dtoa_r+0xed4>
   45274:	d9800a17 	ldw	r6,40(sp)
   45278:	e00b883a 	mov	r5,fp
   4527c:	8009883a 	mov	r4,r16
   45280:	0047bcc0 	call	47bcc <__pow5mult>
   45284:	1039883a 	mov	fp,r2
   45288:	003e2e06 	br	44b44 <_dtoa_r+0xa54>
   4528c:	d8000c15 	stw	zero,48(sp)
   45290:	003f2006 	br	44f14 <_dtoa_r+0xe24>
   45294:	00800044 	movi	r2,1
   45298:	d8800c15 	stw	r2,48(sp)
   4529c:	003c5d06 	br	44414 <_dtoa_r+0x324>
   452a0:	d8c00a17 	ldw	r3,40(sp)
   452a4:	d9000b17 	ldw	r4,44(sp)
   452a8:	dcc00a15 	stw	r19,40(sp)
   452ac:	98c5c83a 	sub	r2,r19,r3
   452b0:	2089883a 	add	r4,r4,r2
   452b4:	d9000b15 	stw	r4,44(sp)
   452b8:	0027883a 	mov	r19,zero
   452bc:	003df206 	br	44a88 <_dtoa_r+0x998>
   452c0:	d9000317 	ldw	r4,12(sp)
   452c4:	8829883a 	mov	r20,r17
   452c8:	04800084 	movi	r18,2
   452cc:	d9001015 	stw	r4,64(sp)
   452d0:	003c8106 	br	444d8 <_dtoa_r+0x3e8>
   452d4:	04800044 	movi	r18,1
   452d8:	dc800e15 	stw	r18,56(sp)
   452dc:	dc800915 	stw	r18,36(sp)
   452e0:	dc802115 	stw	r18,132(sp)
   452e4:	003f1206 	br	44f30 <_dtoa_r+0xe40>
   452e8:	d8800617 	ldw	r2,24(sp)
   452ec:	00abc83a 	sub	r21,zero,r2
   452f0:	a800a426 	beq	r21,zero,45584 <_dtoa_r+0x1494>
   452f4:	a88003cc 	andi	r2,r21,15
   452f8:	100490fa 	slli	r2,r2,3
   452fc:	00c00174 	movhi	r3,5
   45300:	18f63704 	addi	r3,r3,-10020
   45304:	d9000317 	ldw	r4,12(sp)
   45308:	1885883a 	add	r2,r3,r2
   4530c:	11800017 	ldw	r6,0(r2)
   45310:	11c00117 	ldw	r7,4(r2)
   45314:	a82bd13a 	srai	r21,r21,4
   45318:	880b883a 	mov	r5,r17
   4531c:	0040fc00 	call	40fc0 <__muldf3>
   45320:	1027883a 	mov	r19,r2
   45324:	1829883a 	mov	r20,r3
   45328:	a800e826 	beq	r21,zero,456cc <_dtoa_r+0x15dc>
   4532c:	05800174 	movhi	r22,5
   45330:	b5b62d04 	addi	r22,r22,-10060
   45334:	04800084 	movi	r18,2
   45338:	a980004c 	andi	r6,r21,1
   4533c:	1009883a 	mov	r4,r2
   45340:	a82bd07a 	srai	r21,r21,1
   45344:	180b883a 	mov	r5,r3
   45348:	30000426 	beq	r6,zero,4535c <_dtoa_r+0x126c>
   4534c:	b1800017 	ldw	r6,0(r22)
   45350:	b1c00117 	ldw	r7,4(r22)
   45354:	94800044 	addi	r18,r18,1
   45358:	0040fc00 	call	40fc0 <__muldf3>
   4535c:	b5800204 	addi	r22,r22,8
   45360:	a83ff51e 	bne	r21,zero,45338 <_dtoa_r+0x1248>
   45364:	1027883a 	mov	r19,r2
   45368:	1829883a 	mov	r20,r3
   4536c:	003c7306 	br	4453c <_dtoa_r+0x44c>
   45370:	21000044 	addi	r4,r4,1
   45374:	11000005 	stb	r4,0(r2)
   45378:	003e5c06 	br	44cec <_dtoa_r+0xbfc>
   4537c:	a9400117 	ldw	r5,4(r21)
   45380:	8009883a 	mov	r4,r16
   45384:	00475080 	call	47508 <_Balloc>
   45388:	a9800417 	ldw	r6,16(r21)
   4538c:	11000304 	addi	r4,r2,12
   45390:	a9400304 	addi	r5,r21,12
   45394:	31800084 	addi	r6,r6,2
   45398:	318d883a 	add	r6,r6,r6
   4539c:	318d883a 	add	r6,r6,r6
   453a0:	1023883a 	mov	r17,r2
   453a4:	00471600 	call	47160 <memcpy>
   453a8:	8009883a 	mov	r4,r16
   453ac:	880b883a 	mov	r5,r17
   453b0:	01800044 	movi	r6,1
   453b4:	0047cf80 	call	47cf8 <__lshift>
   453b8:	1027883a 	mov	r19,r2
   453bc:	003e8f06 	br	44dfc <_dtoa_r+0xd0c>
   453c0:	b807883a 	mov	r3,r23
   453c4:	00800e44 	movi	r2,57
   453c8:	ddc00717 	ldw	r23,28(sp)
   453cc:	18809026 	beq	r3,r2,45610 <_dtoa_r+0x1520>
   453d0:	18c00044 	addi	r3,r3,1
   453d4:	003f2b06 	br	45084 <_dtoa_r+0xf94>
   453d8:	b807883a 	mov	r3,r23
   453dc:	982b883a 	mov	r21,r19
   453e0:	ddc00717 	ldw	r23,28(sp)
   453e4:	003e2406 	br	44c78 <_dtoa_r+0xb88>
   453e8:	0029883a 	mov	r20,zero
   453ec:	002b883a 	mov	r21,zero
   453f0:	003f7206 	br	451bc <_dtoa_r+0x10cc>
   453f4:	593fffc4 	addi	r4,r11,-1
   453f8:	200490fa 	slli	r2,r4,3
   453fc:	00c00174 	movhi	r3,5
   45400:	18f63704 	addi	r3,r3,-10020
   45404:	d9001015 	stw	r4,64(sp)
   45408:	1885883a 	add	r2,r3,r2
   4540c:	11000017 	ldw	r4,0(r2)
   45410:	11400117 	ldw	r5,4(r2)
   45414:	900d883a 	mov	r6,r18
   45418:	a80f883a 	mov	r7,r21
   4541c:	dac01615 	stw	r11,88(sp)
   45420:	0040fc00 	call	40fc0 <__muldf3>
   45424:	a00b883a 	mov	r5,r20
   45428:	9809883a 	mov	r4,r19
   4542c:	d8c01215 	stw	r3,72(sp)
   45430:	d8801115 	stw	r2,68(sp)
   45434:	004a5c00 	call	4a5c0 <__fixdfsi>
   45438:	1009883a 	mov	r4,r2
   4543c:	1025883a 	mov	r18,r2
   45440:	004a4ec0 	call	4a4ec <__floatsidf>
   45444:	9809883a 	mov	r4,r19
   45448:	a00b883a 	mov	r5,r20
   4544c:	100d883a 	mov	r6,r2
   45450:	180f883a 	mov	r7,r3
   45454:	94800c04 	addi	r18,r18,48
   45458:	004a2b00 	call	4a2b0 <__subdf3>
   4545c:	bc800005 	stb	r18,0(r23)
   45460:	dac01617 	ldw	r11,88(sp)
   45464:	102b883a 	mov	r21,r2
   45468:	00800044 	movi	r2,1
   4546c:	bd800044 	addi	r22,r23,1
   45470:	1815883a 	mov	r10,r3
   45474:	58802226 	beq	r11,r2,45500 <_dtoa_r+0x1410>
   45478:	bad7883a 	add	r11,r23,r11
   4547c:	dc001415 	stw	r16,80(sp)
   45480:	a805883a 	mov	r2,r21
   45484:	b027883a 	mov	r19,r22
   45488:	5821883a 	mov	r16,r11
   4548c:	882b883a 	mov	r21,r17
   45490:	000d883a 	mov	r6,zero
   45494:	01d00934 	movhi	r7,16420
   45498:	1009883a 	mov	r4,r2
   4549c:	180b883a 	mov	r5,r3
   454a0:	0040fc00 	call	40fc0 <__muldf3>
   454a4:	180b883a 	mov	r5,r3
   454a8:	1009883a 	mov	r4,r2
   454ac:	1829883a 	mov	r20,r3
   454b0:	1023883a 	mov	r17,r2
   454b4:	004a5c00 	call	4a5c0 <__fixdfsi>
   454b8:	1009883a 	mov	r4,r2
   454bc:	1025883a 	mov	r18,r2
   454c0:	004a4ec0 	call	4a4ec <__floatsidf>
   454c4:	8809883a 	mov	r4,r17
   454c8:	a00b883a 	mov	r5,r20
   454cc:	100d883a 	mov	r6,r2
   454d0:	180f883a 	mov	r7,r3
   454d4:	94800c04 	addi	r18,r18,48
   454d8:	004a2b00 	call	4a2b0 <__subdf3>
   454dc:	9cc00044 	addi	r19,r19,1
   454e0:	9cbfffc5 	stb	r18,-1(r19)
   454e4:	9c3fea1e 	bne	r19,r16,45490 <_dtoa_r+0x13a0>
   454e8:	1815883a 	mov	r10,r3
   454ec:	d8c01017 	ldw	r3,64(sp)
   454f0:	dc001417 	ldw	r16,80(sp)
   454f4:	a823883a 	mov	r17,r21
   454f8:	b0ed883a 	add	r22,r22,r3
   454fc:	102b883a 	mov	r21,r2
   45500:	d9001117 	ldw	r4,68(sp)
   45504:	d9401217 	ldw	r5,72(sp)
   45508:	000d883a 	mov	r6,zero
   4550c:	01cff834 	movhi	r7,16352
   45510:	da801515 	stw	r10,84(sp)
   45514:	004a25c0 	call	4a25c <__adddf3>
   45518:	da801517 	ldw	r10,84(sp)
   4551c:	1009883a 	mov	r4,r2
   45520:	180b883a 	mov	r5,r3
   45524:	500f883a 	mov	r7,r10
   45528:	a80d883a 	mov	r6,r21
   4552c:	004a4900 	call	4a490 <__ltdf2>
   45530:	da801517 	ldw	r10,84(sp)
   45534:	10003b0e 	bge	r2,zero,45624 <_dtoa_r+0x1534>
   45538:	d9c01317 	ldw	r7,76(sp)
   4553c:	b53fffc3 	ldbu	r20,-1(r22)
   45540:	d9c00615 	stw	r7,24(sp)
   45544:	003d3106 	br	44a0c <_dtoa_r+0x91c>
   45548:	d8800817 	ldw	r2,32(sp)
   4554c:	11e5c83a 	sub	r18,r2,r7
   45550:	0005883a 	mov	r2,zero
   45554:	003d5006 	br	44a98 <_dtoa_r+0x9a8>
   45558:	05800044 	movi	r22,1
   4555c:	003dc406 	br	44c70 <_dtoa_r+0xb80>
   45560:	a5000044 	addi	r20,r20,1
   45564:	15000005 	stb	r20,0(r2)
   45568:	003c8206 	br	44774 <_dtoa_r+0x684>
   4556c:	d8800217 	ldw	r2,8(sp)
   45570:	00c00d84 	movi	r3,54
   45574:	dcc00a17 	ldw	r19,40(sp)
   45578:	1885c83a 	sub	r2,r3,r2
   4557c:	dc800817 	ldw	r18,32(sp)
   45580:	003d4506 	br	44a98 <_dtoa_r+0x9a8>
